#[1]   mouse.s
   10                     
   11           0001                      .ifdef HUC
#[3]   huc.inc
   12                                      .include "huc.inc"      ; HUC
    1                     ;
    2                     ; Hu-C internal include file
    3                     ;
    4                     
    5                     
    6                     ; variables
    7                     ; ----
    8                     
    9           2000                 .zp
   10  --:2000            __sp
   11  --:2000            __stack    .ds 2
   12  --:2002            __arg_idx  .ds 1
   13  --:2003            __temp     .ds 8
   14  --:200B            __ptr      .ds 2
   15  --:200D            __fbank    .ds 1
   16  --:200E            __fptr     .ds 2
   17  --:2010            __expr     .ds 2
   18                     
   19                     
   20                     ; macros
   21                     ; ----
   22                     
   23                             .macro __farptr
   24                              ldy    #bank(\1)
   25                              sty    \2
   26                              ldy    #low(\1)
   27                              sty    \3
   28                              ldy    #high(\1)
   29                              sty    \3+1
   30                             .endm
   31                     
   32                             .macro __farptr_i
   33                              sax
   34                              add    #low(\1)
   35                             .if (\# = 3)
   36                              sta    <\3
   37                             .else
   38                              sta    <__fptr
   39                             .endif
   40                              sax
   41                              adc    #high(\1) & $1F
   42                             .if (\# = 3)
   43                              sta    <\3+1
   44                             .else
   45                              tax
   46                             .endif
   47                              rol    A
   48                              rol    A
   49                              rol    A
   50                              rol    A
   51                              and    #$F
   52                              add    #bank(\1)
   53                             .if (\# = 3)
   54                              sta    <\2
   55                             .endif
   56                             .endm
   57                     
   58                             .macro __farptr_get
   59                              stx    <\1
   60                              ldy    #2
   61                              lda    [__ptr],Y
   62                              sta    <\2
   63                              iny
   64                              lda    [__ptr],Y
   65                              sta    <\2+1
   66                             .endm
   67                     
   68                             .macro __fgetb
   69                              tam    #3
   70                              txa
   71                              and    #$1F
   72                              ora    #$60
   73                              sta    <__fptr+1
   74                              lda    [__fptr]
   75                              tax
   76                              cla
   77                             .endm
   78                     
   79                     __ldb   .macro
   80                             .if (\# = 2)
   81                              clx
   82                              lda    \1
   83                              clc
   84                              adc    #low(\2)
   85                              sax
   86                              adc    #high(\2)
   87                             .else
   88                              ldx    \1
   89                            __extw
   90                             .endif
   91                             .endm
   92                     
   93                     __ldbp  .macro
   94                              lda    [\1]
   95                              tax
   96                            __extw
   97                             .endm
   98                     
   99                     __stbps .macro
  100                            __stw    <__temp
  101                            __ldwp    __stack
  102                            __stw    <__ptr
  103                            __ldw    <__temp
  104                              sax
  105                              sta    [__ptr]
  106                              sax
  107                            __addmi  2,__stack
  108                             .endm
  109                     
  110                     __ldw   .macro
  111                             .if (\# = 2)
  112                              lda    \1
  113                              clc
  114                              adc    #low(\2)
  115                              tax
  116                              lda    \1+1
  117                              adc    #high(\2)
  118                             .else
  119                              ldx    \1
  120                              lda    \1+1
  121                             .endif
  122                             .endm
  123                     
  124                     __ldwp  .macro
  125                              lda    [\1]
  126                              tax
  127                              ldy    #1
  128                              lda    [\1],Y
  129                             .endm
  130                     
  131                     __ldwi  .macro
  132                              ldx    #low(\1)
  133                              lda    #high(\1)
  134                             .endm
  135                     
  136                     __stw   .macro
  137                              stx    \1
  138                              sta    \1+1
  139                             .endm
  140                     
  141                     __stwp  .macro
  142                              sax
  143                              sta    [\1]
  144                              sax
  145                              ldy    #1
  146                              sta    [\1],Y
  147                             .endm
  148                     
  149                     __stwps .macro
  150                            __stw    <__temp
  151                            __ldwp    __stack
  152                            __stw    <__ptr
  153                            __ldw    <__temp
  154                            __stwp    __ptr
  155                            __addmi  2,__stack
  156                             .endm
  157                     
  158                     __pushw .macro
  159                            __submi  2,__stack
  160                              sax
  161                              sta    [__stack]
  162                              sax
  163                              ldy    #1
  164                              sta    [__stack],Y
  165                             .endm
  166                     
  167                     __popw  .macro
  168                              lda    [__stack]
  169                              tax
  170                              ldy    #1
  171                              lda    [__stack],Y
  172                            __addmi  2,__stack
  173                             .endm
  174                     
  175                     __calls .macro
  176                              pha
  177                              ldy    #\1
  178                              lda    [__stack],Y
  179                              sta    <__ptr
  180                              incw   <__stack
  181                              lda    [__stack],Y
  182                              sta    <__ptr+1
  183                              incw   <__stack
  184                              pla
  185                              jsr    hook
  186                             .endm
  187                     
  188                     __swapw .macro
  189                              pha
  190                              ldy    #1
  191                              lda    [__stack],Y
  192                              sta    <__temp
  193                              lda    [__stack]
  194                              sax
  195                              sta    [__stack]
  196                              pla
  197                              sta    [__stack],Y
  198                              lda    <__temp
  199                             .endm
  200                     
  201                     
  202                     ; TODO : check if we need pha/pla or not
  203                     __tstw  .macro
  204                              ; pha
  205                              stx    <__temp
  206                              ora    <__temp
  207                              ; pla
  208                             .endm
  209                     
  210                     __lsrw  .macro
  211                             lsr     A
  212                             sax
  213                             ror     A
  214                             sax
  215                             .endm
  216                     
  217                     __aslw  .macro
  218                              sax
  219                              asl    A
  220                              sax
  221                              rol    A
  222                             .endm
  223                     
  224                     __aslws .macro
  225                              asl    [__stack]
  226                              ldy    #1
  227                              rol    [__stack],Y
  228                             .endm
  229                     
  230                     __asrw  .macro
  231                              cmp    #$80
  232                              ror    A
  233                              sax
  234                              ror    A
  235                              sax
  236                             .endm
  237                     
  238                     __extw  .macro
  239                     ;        txa    ; signed
  240                     ;        cla
  241                     ;        bpl    .x_\@
  242                     ;        dec    A
  243                     ;.x_\@:
  244                              cla    ; unsigned
  245                             .endm
  246                     
  247                     __comw  .macro
  248                              sax
  249                              eor    #$FF
  250                              sax
  251                              eor    #$FF
  252                             .endm
  253                     
  254                     __negw  .macro
  255                              sax
  256                              eor    #$FF
  257                              clc
  258                              adc    #1
  259                              sax
  260                              eor    #$FF
  261                              adc    #0
  262                             .endm
  263                     
  264                     __boolw .macro
  265                              stx    <__temp
  266                              ora    <__temp
  267                              clx
  268                              beq    .x\@
  269                              inx
  270                     .x\@     cla
  271                             .endm
  272                     
  273                     __notw  .macro
  274                              stx    <__temp
  275                              ora    <__temp
  276                              clx
  277                              bne    .x\@
  278                              inx
  279                     .x\@     cla
  280                             .endm
  281                     
  282                     __addw  .macro
  283                              clc
  284                              sax
  285                              adc    \1
  286                              sax
  287                              adc    \1+1
  288                             .endm   
  289                     
  290                     __addwi .macro
  291                              clc
  292                              sax
  293                              adc    #low(\1)
  294                              sax
  295                              adc    #high(\1)
  296                             .endm   
  297                     
  298                     __addmi .macro
  299                              pha
  300                              clc
  301                              lda    <\2
  302                              adc    #low(\1)
  303                              sta    <\2
  304                              lda    <\2+1
  305                              adc    #high(\1)
  306                              sta    <\2+1
  307                              pla
  308                             .endm   
  309                     
  310                     __subw  .macro
  311                              sec
  312                              sax
  313                              sbc    \1
  314                              sax
  315                              sbc    \1+1
  316                             .endm   
  317                     
  318                     __subwi .macro
  319                              sec
  320                              sax
  321                              sbc    #low(\1)
  322                              sax
  323                              sbc    #high(\1)
  324                             .endm   
  325                     
  326                     __submi .macro
  327                              pha
  328                              sec
  329                              lda    <\2
  330                              sbc    #low(\1)
  331                              sta    <\2
  332                              lda    <\2+1
  333                              sbc    #high(\1)
  334                              sta    <\2+1
  335                              pla
  336                             .endm   
  337                     
  338                     __addws .macro
  339                              sax
  340                              clc
  341                              adc    [__stack]
  342                              sax
  343                              ldy    #1
  344                              adc    [__stack],Y
  345                            __addmi 2, __stack
  346                             .endm
  347                     
  348                     __subws .macro
  349                             stx     <__temp
  350                             sta     <__temp+1
  351                             sec
  352                             lda     [__stack]
  353                             sbc     <__temp
  354                             tax
  355                             ldy     #1
  356                             lda     [__stack],Y
  357                             sbc     <__temp+1
  358                             __addmi 2, __stack
  359                             .endm
  360                     
  361                     __orws  .macro
  362                              sax
  363                              ora    [__stack]
  364                              sax
  365                              ldy    #1
  366                              ora    [__stack],Y
  367                            __addmi  2,__stack
  368                             .endm
  369                     
  370                     __orwi  .macro
  371                              sax
  372                              ora    #low(\1)
  373                              sax
  374                              ora    #high(\1)
  375                             .endm   
  376                     
  377                     __orw   .macro
  378                              sax
  379                              ora    \1
  380                              sax
  381                              ora    \1+1
  382                             .endm   
  383                     
  384                     __andws .macro
  385                              sax
  386                              and    [__stack]
  387                              sax
  388                              ldy    #1
  389                              and    [__stack],Y
  390                            __addmi  2,__stack
  391                             .endm
  392                     
  393                     __andwi .macro
  394                              sax
  395                              and    #low(\1)
  396                              sax
  397                              and    #high(\1)
  398                             .endm   
  399                     
  400                     __andw  .macro
  401                              sax
  402                              and    \1
  403                              sax
  404                              and    \1+1
  405                             .endm   
  406                     
  407                     __eorws .macro
  408                              sax
  409                              eor    [__stack]
  410                              sax
  411                              ldy    #1
  412                              eor    [__stack],Y
  413                            __addmi  2,__stack
  414                             .endm
  415                     
  416                     __lbra  .macro
  417                              jmp    \1
  418                             .endm
  419                     
  420                     __lbeq  .macro
  421                              bne    .x\@
  422                              jmp    \1
  423                     .x\@
  424                             .endm
  425                     
  426                     __lbne  .macro
  427                              beq    .x\@
  428                              jmp    \1
  429                     .x\@
  430                             .endm
  431                     
  432                     __call  .macro
  433                              call   \1
  434                             .endm
  435                     
  436                     _set_bgpal .macro
  437                              set_bgpal \1,\2,\3
  438                             .endm
  439                     
  440                     _set_sprpal .macro
  441                              set_sprpal \1,\2,\3
  442                             .endm
  443                     
  444                     _load_background .macro
  445                              vload $1000,\1,#$4000
  446                              vsync
  447                              set_bgpal #0, \2,#16
  448                              batcpy #$0, \3, \4, \5
  449                             .endm
  450                     
#[2]   startup.asm
#[3]   huc_opt.inc
   13                                      .include "huc_opt.inc"
    1                     ;
    2                     ; Hu-C internal include file
    3                     ;
    4                     
    5                     ; optimized macros
    6                     ; ----
    7                     
    8                     ; phw
    9                     ;
   10                             .macro __phw
   11                              ; #1 (bytes :  9, cycles : 16)
   12                              ; #2 (bytes : 16, cycles : 28)
   13                     
   14                             .if (\# = 2)
   15                              tay
   16                              lda    <__arg_idx
   17                              add    #\2
   18                              sta    <__arg_idx
   19                              say
   20                             .else
   21                              ldy    <__arg_idx
   22                             .endif
   23                     
   24                              sta    __arg-(\1),Y
   25                              txa
   26                              sta    __arg-(\1-1),Y
   27                             .endm
   28                     
   29                     ; phb
   30                     ;
   31                             .macro __phb
   32                              ; #1 (bytes :  6, cycles : 11)
   33                              ; #2 (bytes : 12, cycles : 21)
   34                     
   35                             .if (\# = 2)
   36                              lda    <__arg_idx
   37                              add    #\2
   38                              sta    <__arg_idx
   39                              tay
   40                             .else
   41                              ldy    <__arg_idx
   42                             .endif
   43                     
   44                              txa
   45                              sta    __arg-(\1),Y
   46                             .endm
   47                     
   48                     ; plw
   49                     ;
   50                             .macro __plw
   51                              ; (bytes : 9/12, cycles : 16/22)
   52                     
   53                              dey
   54                              lda    __arg,Y
   55                             .if (\#)
   56                              sta    \1
   57                             .else
   58                              tax
   59                             .endif
   60                              dey
   61                              lda    __arg,Y
   62                             .if (\#)
   63                              sta    \1+1
   64                             .endif
   65                             .endm
   66                     
   67                     ; plb
   68                     ;
   69                             .macro __plb
   70                              ; (bytes : 6/7, cycles : 11/12)
   71                     
   72                             .if (\# = 2)
   73                              dey
   74                              ldx    __arg,Y
   75                              stx    \1
   76                             .else
   77                              dey
   78                              lda    __arg,Y
   79                             .if (\#)
   80                              sta    \1
   81                             .endif
   82                             .endif
   83                             .endm
   84                     
   85                     ; lea_s
   86                     ;
   87                             .macro __lea_s
   88                              ; (bytes : 10, cycles : 16)
   89                     
   90                              lda    <__sp
   91                              clc
   92                              adc    #LOW(\1)
   93                              tax
   94                              lda    <__sp+1
   95                              adc    #HIGH(\1)
   96                             .endm
   97                     
   98                     ; pea_s
   99                     ;
  100                             .macro __pea_s
  101                              ; (bytes : 25, cycles : 44)
  102                     
  103                              lda    <__sp
  104                              sec
  105                              sbc    #2
  106                              bcs    .x_\@
  107                              dec    <__sp+1
  108                     .x_\@:   sta    <__sp
  109                              clc
  110                              adc    #LOW(\1+2)
  111                              sta    [__sp]
  112                              tax
  113                              lda    <__sp+1
  114                              adc    #HIGH(\1+2)
  115                              ldy    #1
  116                              sta    [__sp],Y
  117                             .endm
  118                     
  119                     ; ldb_s
  120                     ;
  121                             .macro __ldb_s
  122                             .if (\1 < 256)
  123                              ; short index (bytes :  9, cycles : 13/17)
  124                     
  125                              ldy    #\1
  126                              lda    [__sp],Y
  127                              tax
  128                              cla
  129                     ;        bpl    .x_\@   ; signed
  130                     ;        dec    A
  131                     ;.x_\@:
  132                             .else
  133                              ; long index  (bytes : 20, cycles : 37/41)
  134                     
  135                              addw   #\1,<__sp,<__ptr        ; 13,26
  136                              lda    [__ptr]
  137                              tax
  138                              cla
  139                     ;        bpl    .x_\@   ; signed
  140                     ;        dec    A
  141                     ;.x_\@:
  142                             .endif
  143                             .endm
  144                     
  145                     ; ldb_p
  146                     ;
  147                             .macro __ldb_p
  148                              ; (bytes : 11, cycles : 19/23)
  149                              stx    <__ptr
  150                              sta    <__ptr+1
  151                              lda    [__ptr]
  152                              tax
  153                              cla
  154                     ;        bpl    .x_\@   ; signed
  155                     ;        dec    A
  156                     ;.x_\@:
  157                             .endm
  158                     
  159                     ; ldw_s
  160                     ;
  161                             .macro __ldw_s
  162                             .if (\1 < 255)
  163                              ; short index (bytes :  7/8, cycles : 18/20)
  164                              .if (\1 = 0)
  165                               lda   [__sp]
  166                               tax
  167                               ldy   #1
  168                               lda   [__sp],Y
  169                              .else
  170                               ldy   #\1
  171                               lda   [__sp],Y
  172                               tax
  173                               iny
  174                               lda   [__sp],Y
  175                              .endif
  176                             .else
  177                              ; long index  (bytes : 20, cycles : 44)
  178                     
  179                              addw   #\1,<__sp,<__ptr        ; 13,26
  180                              lda    [__ptr]
  181                              tax
  182                              ldy    #1
  183                              lda    [__ptr],Y
  184                             .endif
  185                             .endm
  186                     
  187                     ; stbi_s
  188                     ;
  189                             .macro __stbi_s
  190                             .if (\2 < 256)
  191                              ; short index (bytes :  8/ 9, cycles : 15)
  192                     
  193                              lda    #LOW(\1)
  194                              ldy    #\2
  195                              sta    [__sp],Y
  196                              tax
  197                     ;        lda    #HIGH(\1)
  198                              cla
  199                             .else
  200                              ; long index  (bytes : 19/20, cycles : 39)
  201                     
  202                              addw   #\2,<__sp,<__ptr        ; 13,26
  203                              lda    #LOW(\1)
  204                              sta    [__ptr]
  205                              tax
  206                     ;        lda    #HIGH(\1)
  207                              cla
  208                             .endif
  209                             .endm
  210                     
  211                     ; stwi_s
  212                     ;
  213                             .macro __stwi_s
  214                             .if (\2 < 255)
  215                              ; short index (bytes : 12, cycles : 24)
  216                     
  217                              lda    #LOW(\1)
  218                              ldy    #\2
  219                              sta    [__sp],Y
  220                              tax
  221                              lda    #HIGH(\1)
  222                              iny
  223                              sta    [__sp],Y
  224                             .else
  225                              ; long index  (bytes : 24, cycles : 48)
  226                     
  227                              addw   #\2,<__sp,<__ptr        ; 13,26
  228                              lda    #LOW(\1)
  229                              sta    [__ptr]
  230                              tax
  231                              lda    #HIGH(\1)
  232                              ldy    #1
  233                              sta    [__ptr],Y
  234                             .endif
  235                             .endm
  236                     
  237                     ; stb_s
  238                     ;
  239                             .macro __stb_s
  240                             .if (\1 < 255)
  241                              ; short index (bytes :  6, cycles : 13)
  242                     
  243                              sax
  244                              ldy    #\1
  245                              sta    [__sp],Y
  246                              sax
  247                             .else
  248                              ; long index  (bytes : 18, cycles : 42)
  249                     
  250                              pha
  251                              addw   #\1,<__sp,<__ptr        ; 13,26
  252                              txa
  253                              sta    [__ptr]
  254                              pla
  255                             .endif
  256                             .endm
  257                     
  258                     ; stw_s
  259                     ;
  260                             .macro __stw_s
  261                             .if (\1 < 255)
  262                              ; short index (bytes :  9, cycles : 22)
  263                     
  264                              sax
  265                              ldy    #\1
  266                              sta    [__sp],Y
  267                              sax
  268                              iny
  269                              sta    [__sp],Y
  270                             .else
  271                              ; long index  (bytes : 22, cycles : 51)
  272                     
  273                              pha
  274                              addw   #\1,<__sp,<__ptr        ; 13,26
  275                              txa
  276                              sta    [__ptr]
  277                              pla
  278                              ldy    #1
  279                              sta    [__ptr],Y
  280                             .endif
  281                             .endm
  282                     
  283                     ; addw_s
  284                     ;
  285                             .macro __addw_s
  286                             .if (\1 < 255)
  287                              ; short index (bytes : 10, cycles : 24)
  288                     
  289                              ldy    #\1
  290                              clc
  291                              sax
  292                              adc    [__sp],Y
  293                              sax
  294                              iny
  295                              adc    [__sp],Y
  296                             .else
  297                              ; long index  (bytes : 24, cycles : 55)
  298                     
  299                              pha                            ;  1, 3
  300                              addw   #\1,<__sp,<__ptr        ; 13,26
  301                              pla                            ;  1, 4
  302                              clc
  303                              sax
  304                              adc    [__ptr]
  305                              sax
  306                              ldy    #1
  307                              adc    [__ptr],Y
  308                             .endif
  309                             .endm
  310                     
  311                     ; incw_s
  312                     ;
  313                             .macro __incw_s
  314                              ; (bytes : 16, cycles : 24/40)
  315                     
  316                              pha
  317                              ldy    #\1
  318                              txa
  319                              inc    A
  320                              sta    [__sp],Y
  321                              bne    .x_\@
  322                              iny
  323                              lda    [__sp],Y
  324                              inc    A
  325                              sta    [__sp],Y
  326                     .x_\@:
  327                              pla
  328                             .endm
  329                     
  330                     ; ldd_i
  331                     ;
  332                             .macro __ldd_i
  333                              stw    #(\1) & 0xFFFF,<\2
  334                              stw    #(\1) >> 16,<\3
  335                              ldx    #low(\2)
  336                              lda    #high(\2)
  337                             .endm
  338                     
  339                     ; ldd_b
  340                     ;
  341                             .macro __ldd_b
  342                              lda     \1
  343                              sta    <\2
  344                              stz    <\2+1
  345                              stwz   <\3
  346                              ldx    #low(\2)
  347                              lda    #high(\2)
  348                             .endm
  349                     
  350                     ; ldd_w
  351                     ;
  352                             .macro __ldd_w
  353                              stw     \1,<\2
  354                              stwz   <\3
  355                              ldx    #low(\2)
  356                              lda    #high(\2)
  357                             .endm
  358                     
  359                     ; ldd_s_b
  360                     ;
  361                             .macro __ldd_s_b
  362                            __ldb_s  \1
  363                              stx    <\2
  364                              sta    <\2+1
  365                              stwz   <\3
  366                              ldx    #low(\2)
  367                              lda    #high(\2)
  368                             .endm
  369                     
  370                     ; ldd_s_w
  371                     ;
  372                             .macro __ldd_s_w
  373                            __ldw_s  \1
  374                              stx    <\2
  375                              sta    <\2+1
  376                              stwz   <\3
  377                              ldx    #low(\2)
  378                              lda    #high(\2)
  379                             .endm
  380                     
#[2]   startup.asm
   14                                     .endif  ; HUC
   15                     
#[3]   standard.inc
   16                                     .include  "standard.inc" ; HUCARD
    1                     ;
    2                     ; STANDARD.INC  -  MagicKit standard include file
    3                     ;
#[4]   equ.inc
    4                             .include        "equ.inc"
    1                     ;
    2                     ; EQU.INC  -  MagicKit Standard Equates
    3                     ;
    4                     ;
    5                     
    6                     
    7                     ; --------
    8                     ; This block defines standard system variables
    9                     ; in zero-page.
   10                     ;
   11                     
   12           20F3      vdc_crl = $20F3 ; VDC control register   (copy of)
   13           20F4      vdc_crh = $20F4 ;
   14           20F5      irq_m   = $20F5 ; interrupt control mask (copy of)
   15           20F6      vdc_sr  = $20F6 ; VDC status register    (copy of)
   16           20F7      vdc_reg = $20F7 ; VDC register index     (copy of)
   17                     
   18                             ; old aliases (for compatibility only, don't use them)
   19                     
   20           0000              .ifndef HUC
   24                             .endif
   25                     
   26                     ; --------
   27                     ; This block defines standard parameter-passing
   28                     ; areas (in zero-page) for subroutines.
   29                     ;
   30                     
   31           20EC      _bp     = $20EC ; base pointer
   32           20EE      _si     = $20EE ; source address
   33           20F0      _di     = $20F0 ; destination address
   34           20F8      _ax     = $20F8
   35           20F8      _al     = $20F8
   36           20F9      _ah     = $20F9
   37           20FA      _bx     = $20FA
   38           20FA      _bl     = $20FA
   39           20FB      _bh     = $20FB
   40           20FC      _cx     = $20FC
   41           20FC      _cl     = $20FC
   42           20FD      _ch     = $20FD
   43           20FE      _dx     = $20FE
   44           20FE      _dl     = $20FE
   45           20FF      _dh     = $20FF
   46                     
   47                     
   48                     ; --------
   49                     ; This block defines names for standard
   50                     ; devices and equipment on the PC-Engine.
   51                     ; (they should be self-explanatory...)
   52                     ;
   53                     
   54                         ; ----
   55                         ; VDC (Video Display Controller)
   56                     
   57           0000      videoport    .equ $0000
   58                     
   59           0000      video_reg    .equ  videoport
   60           0000      video_reg_l  .equ  video_reg
   61           0001      video_reg_h  .equ  video_reg+1
   62                     
   63           0002      video_data   .equ  videoport+2
   64           0002      video_data_l .equ  video_data
   65           0003      video_data_h .equ  video_data+1
   66                     
   67                     
   68                         ; ----
   69                         ; VCE (Video Color Encoder)
   70                     
   71           0400      colorport    .equ $0400
   72           0400      color_ctrl   .equ  colorport
   73                     
   74           0402      color_reg    .equ  colorport+2
   75           0402      color_reg_l  .equ  color_reg
   76           0403      color_reg_h  .equ  color_reg+1
   77                     
   78           0404      color_data   .equ  colorport+4
   79           0404      color_data_l .equ  color_data
   80           0405      color_data_h .equ  color_data+1
   81                     
   82           0001                   .ifdef HUC
   83           0402      _color_reg   .equ  colorport+2
   84           0404      _color_data  .equ  colorport+4
   85                                  .endif
   86                     
   87                         ; ----
   88                         ; PSG (Programmable Sound Generator)
   89                     
   90           0800      psgport      .equ  $0800
   91           0800      psg_ch       .equ  psgport
   92           0801      psg_mainvol  .equ  psgport+1
   93           0802      psg_freqlo   .equ  psgport+2
   94           0803      psg_freqhi   .equ  psgport+3
   95           0804      psg_ctrl     .equ  psgport+4
   96           0805      psg_pan      .equ  psgport+5
   97           0806      psg_wavebuf  .equ  psgport+6
   98           0807      psg_noise    .equ  psgport+7
   99           0808      psg_lfofreq  .equ  psgport+8
  100           0809      psg_lfoctrl  .equ  psgport+9
  101                     
  102                     
  103                         ; ----
  104                         ; TIMER
  105                     
  106           0C00      timerport    .equ  $0C00
  107           0C00      timer_cnt    .equ  timerport
  108           0C01      timer_ctrl   .equ  timerport+1        
  109                     
  110                     
  111                         ; ----
  112                         ; I/O port
  113                     
  114           1000      joyport      .equ  $1000
  115                     
  116                     
  117                         ; ----
  118                         ; IRQ ports
  119                     
  120           1400      irqport      .equ  $1400
  121           1402      irq_disable  .equ  irqport+2
  122           1403      irq_status   .equ  irqport+3
  123                     
  124                         ; ----
  125                         ; CDROM/Expansion ports
  126                     
  127           1800      cd_port       .equ  $1800
  128                     
  129           1803      bram_lock    .equ  cd_port+3  ; a read access here will do it
  130           1807      bram_unlock  .equ  cd_port+7  ; actually, bit #$80 of this byte
  131                     
  132                         ; ----
  133                         ; Arcade Card ports
  134                     
  135           1A00      ac_port        .equ  $1A00
  136           1A00      ac_data1       .equ  ac_port
  137           1A01      ac_data1_alt   .equ  ac_port+1
  138           1A02      ac_base1_l     .equ  ac_port+2
  139           1A03      ac_base1_m     .equ  ac_port+3
  140           1A04      ac_base1_h     .equ  ac_port+4
  141           1A05      ac_offset1_l   .equ  ac_port+5
  142           1A06      ac_offset1_m   .equ  ac_port+6
  143           1A09      ac_cntrol1     .equ  ac_port+9
  144           1A0A      ac_addoffset1  .equ  ac_port+$0A
  145                     
  146           1AE0      ac_shftreg    .equ  $1AE0       ; actually, probably rotate register
  147           1AE0      ac_shftreg_0  .equ  ac_shftreg
  148           1AE1      ac_shftreg_1  .equ  ac_shftreg+1
  149           1AE2      ac_shftreg_2  .equ  ac_shftreg+2
  150           1AE3      ac_shftreg_3  .equ  ac_shftreg+3
  151           1AE4      ac_shft_bits  .equ  ac_shftreg+4        ; positive = shift left
  152                     
  153           1AFD      ac_identbase  .equ  $1AFD
  154           1AFD      ac_identver_l .equ  ac_identbase
  155           1AFE      ac_identver_h .equ  ac_identbase+1
  156           1AFF      ac_identflag  .equ  ac_identbase+2
  157                     
  158           0051      AC_IDENT      .equ  $51 ; if ac_identflag = AC_IDENT, then AC in use
  159                     
  160                     
  161                     ; --------
  162                     ; This block defines names for macro
  163                     ; argument types (\?x).
  164                     ;
  165                     
  166           0000      ARG_NONE        .equ 0
  167           0001      ARG_REG         .equ 1
  168           0002      ARG_IMMED       .equ 2
  169           0003      ARG_ABS         .equ 3
  170           0003      ARG_ABSOLUTE    .equ 3
  171           0004      ARG_INDIRECT    .equ 4
  172           0005      ARG_STRING      .equ 5
  173           0006      ARG_LABEL       .equ 6
  174                     
#[3]   standard.inc
#[4]   macro.inc
    5                             .include        "macro.inc"
    1                     ;
    2                     ; MACRO.INC  -  MagicKit standard MACRO definitions
    3                     ;
    4                     
    5                     map     .macro                  ; map a memory bank into
    6                              lda   #bank(\1)        ; addressable memory
    7                              tam   #page(\1)
    8                             .endm
    9                     
   10                     ;
   11                     ; MAPLIBFUNC - Re-map a library function into $A000-space if it's
   12                     ;              not in library bank #1
   13                     ;
   14                     maplibfunc      .macro
   15                              tay
   16                              tma  #page(\1)
   17                              pha
   18                              lda  #bank(\1)
   19                              tam  #page(\1)
   20                              tya
   21                              jsr  \1
   22                              tay
   23                              pla
   24                              tam  #page(\1)
   25                              tya
   26                             .endm
   27                     
   28                     
   29                     ;
   30                     ; STWZ - store a word-sized zero value at stated memory location
   31                     ;
   32                     stwz    .macro
   33                              stz    LOW_BYTE \1
   34                              stz    HIGH_BYTE \1
   35                             .endm
   36                     
   37                     ;
   38                     ; STW - store a word-sized value at stated memory location
   39                     ;
   40                     stw     .macro
   41                              lda    LOW_BYTE \1
   42                              sta    LOW_BYTE \2
   43                              lda    HIGH_BYTE \1
   44                              sta    HIGH_BYTE \2
   45                             .endm
   46                     
   47                     stb     .macro
   48                              lda    \1
   49                              sta    \2
   50                             .endm
   51                     
   52                     ;
   53                     ; ADDW - add word-sized value to value at stated memory location,
   54                     ;        storing result back into stated memory location (or into
   55                     ;        another destination memory location - third arg)
   56                     ;
   57                     addw    .macro
   58                             .if     (\# = 3)
   59                              ; 3-arg mode
   60                              ;
   61                              clc
   62                              lda    LOW_BYTE \2
   63                              adc    LOW_BYTE \1
   64                              sta    LOW_BYTE \3
   65                              lda    HIGH_BYTE \2
   66                              adc    HIGH_BYTE \1
   67                              sta    HIGH_BYTE \3
   68                             .else
   69                              ; 2-arg mode
   70                              ;
   71                              clc
   72                              lda    LOW_BYTE \2
   73                              adc    LOW_BYTE \1
   74                              sta    LOW_BYTE \2
   75                              lda    HIGH_BYTE \2
   76                              adc    HIGH_BYTE \1
   77                              sta    HIGH_BYTE \2
   78                             .endif
   79                             .endm
   80                     
   81                     ;
   82                     ; ADCW - add word-sized value plus carry to value at stated memory location,
   83                     ;        storing result back into stated memory location
   84                     ;
   85                     adcw    .macro
   86                              lda    LOW_BYTE \2
   87                              adc    LOW_BYTE \1
   88                              sta    LOW_BYTE \2
   89                              lda    HIGH_BYTE \2
   90                              adc    HIGH_BYTE \1
   91                              sta    HIGH_BYTE \2
   92                             .endm
   93                     
   94                     ;
   95                     ; SUBW - substract word-sized value from value at stated memory location,
   96                     ;        storing result back into stated memory location
   97                     ;
   98                     subw    .macro
   99                              sec
  100                              lda    LOW_BYTE \2
  101                              sbc    LOW_BYTE \1
  102                              sta    LOW_BYTE \2
  103                              lda    HIGH_BYTE \2
  104                              sbc    HIGH_BYTE \1
  105                              sta    HIGH_BYTE \2
  106                             .endm
  107                     
  108                     ;
  109                     ; SBCW - substract word-sized value plus carry from value at stated memory
  110                     ;        location, storing result back into stated memory location
  111                     ;
  112                     sbcw    .macro
  113                              lda    LOW_BYTE \2
  114                              sbc    LOW_BYTE \1
  115                              sta    LOW_BYTE \2
  116                              lda    HIGH_BYTE \2
  117                              sbc    HIGH_BYTE \1
  118                              sta    HIGH_BYTE \2
  119                             .endm
  120                     
  121                     cmpw    .macro
  122                              lda    HIGH_BYTE \2
  123                              cmp    HIGH_BYTE \1
  124                              bne    .x_\@
  125                              lda    LOW_BYTE \2
  126                              cmp    LOW_BYTE \1
  127                     .x_\@:
  128                             .endm
  129                     
  130                     tstw    .macro                  ; test if the word-sized 
  131                              lda   \1               ; value at stated memory
  132                              ora   \1+1             ; location is zero
  133                             .endm
  134                     
  135                     incw    .macro                  ; increment a word-sized
  136                              inc    \1              ; value at stated memory
  137                              bne    .x_\@           ; location
  138                              inc    \1+1
  139                     .x_\@:
  140                             .endm
  141                     
  142                     decw    .macro                  ; decrement a word-sized
  143                              sec                    ; value at stated memory
  144                              lda    \1              ; location
  145                              sbc    #1
  146                              sta    \1
  147                              lda    \1+1
  148                              sbc    #0
  149                              sta    \1+1
  150                             .endm
  151                     
  152                     rolw    .macro                  ; rotate word-sized value
  153                              rol    \1              ; (at stated memory location)
  154                              rol    \1+1
  155                             .endm
  156                     
  157                     aslw    .macro                  ; arithmetic shift-left
  158                              asl    \1              ; word-sized value (at stated
  159                              rol    \1+1            ; memory location)
  160                             .endm
  161                     
  162                     lsrw    .macro                  ; logical shift-right word-sized
  163                              lsr    \1+1            ; value (at stated memory
  164                              ror    \1              ; location)
  165                             .endm
  166                     
  167                     rorw    .macro                  ; rotate right word-sized value
  168                              ror    \1+1            ; (at stated memory location)
  169                              ror    \1
  170                             .endm
  171                     
  172                     negw    .macro                  ; negate word-sized value
  173                              cla                    ; (at stated memory location)
  174                              sub    \1              ; 2's complement
  175                              sta    \1
  176                              cla
  177                              sbc    \1+1
  178                              sta    \1+1
  179                             .endm
  180                     
  181                     neg     .macro                  ; negate byte-sized value
  182                              eor    #$FF            ; in register A
  183                              inc    A               ; 2's complement
  184                             .endm
  185                     
  186                     add     .macro                  ; add byte-sized value to
  187                             .if (\# = 2)            ; register A (handle carry
  188                              lda    \2              ; flag)
  189                              clc
  190                              adc    \1
  191                              sta    \2
  192                             .else
  193                              clc
  194                              adc    \1
  195                             .endif
  196                             .endm
  197                     
  198                     sub     .macro                  ; subtract byte-sized value
  199                             .if (\# = 2)            ; from register A (handle
  200                              lda    \2              ; carry flag)
  201                              sec
  202                              sbc    \1
  203                              sta    \2
  204                             .else
  205                              sec
  206                              sbc    \1
  207                             .endif
  208                             .endm
  209                     
  210                     blo     .macro                  ; branch if 'lower'
  211                              bcc    \1
  212                             .endm
  213                     
  214                     bhs     .macro                  ; branch if 'higher or same'
  215                              bcs    \1
  216                             .endm
  217                     
  218                     bhi     .macro                  ; branch if 'higher'
  219                              beq    .x_\@
  220                              bcs    \1
  221                     .x_\@:
  222                             .endm
  223                     
  224                     ;-------------------------------
  225                     
  226                     ;
  227                     ; Long branch MACROs
  228                     ;
  229                     
  230                     lbne    .macro
  231                              beq    .x_\@
  232                              jmp    \1
  233                     .x_\@
  234                             .endm
  235                     
  236                     lbeq    .macro
  237                              bne    .x_\@
  238                              jmp    \1
  239                     .x_\@
  240                             .endm
  241                     
  242                     lbpl    .macro
  243                              bmi    .x_\@
  244                              jmp    \1
  245                     .x_\@
  246                             .endm
  247                     
  248                     lbmi    .macro
  249                              bpl    .x_\@
  250                              jmp    \1
  251                     .x_\@
  252                             .endm
  253                     
  254                     lbcc    .macro
  255                              bcs    .x_\@
  256                              jmp    \1
  257                     .x_\@
  258                             .endm
  259                     
  260                     lbcs    .macro
  261                              bcc    .x_\@
  262                              jmp    \1
  263                     .x_\@
  264                             .endm
  265                     
  266                     lblo    .macro
  267                              bcs    .x_\@
  268                              jmp    \1
  269                     .x_\@
  270                             .endm
  271                     
  272                     lbhs    .macro
  273                              bcc    .x_\@
  274                              jmp    \1
  275                     .x_\@
  276                             .endm
  277                     
  278                     
  279                     ;-------------------------------
  280                     
  281                     ;
  282                     ; These MACROs are the same as the MACROs
  283                     ; without an underscore; the difference
  284                     ; is these MACROs preserve the state of
  285                     ; the registers they use (at the expense
  286                     ; of speed)
  287                     ;
  288                     
  289                     _stw    .macro
  290                              pha
  291                              stw    \1,\2
  292                              pla
  293                             .endm
  294                     
  295                     _addw   .macro
  296                              pha
  297                              addw   \1,\2
  298                              pla
  299                             .endm
  300                     
  301                     _adcw   .macro
  302                              pha
  303                              adcw   \1,\2
  304                              pla
  305                             .endm
  306                     
  307                     _subw   .macro
  308                              pha
  309                              subw   \1,\2
  310                              pla
  311                             .endm
  312                     
  313                     _sbcw   .macro
  314                              pha
  315                              sbcw   \1,\2
  316                              pla
  317                             .endm
  318                     
  319                     _cmpw   .macro
  320                              pha
  321                              cmpw   \1,\2
  322                              pla
  323                             .endm
  324                     
  325                     _tstw   .macro
  326                              pha
  327                              tstw   \1
  328                              pla
  329                             .endm
  330                     
  331                     _incw   .macro
  332                              incw   \1
  333                             .endm
  334                     
  335                     _decw   .macro
  336                              pha
  337                              decw   \1
  338                              pla
  339                             .endm
  340                     
#[3]   standard.inc
#[4]   func.inc
    6                             .include        "func.inc"
    1                     ;
    2                     ; FUNC.INC  -  MagicKit Standard Functions
    3                     ;
    4                     ;
    5                     
    6                     ; ----
    7                     ; BATVAL - create a value for the BAT map
    8                     ;
    9                     ; parameters:
   10                     ; \1 = palette (0-15)
   11                     ; \2 = VRAM address of tile
   12                     
   13                     BATVAL   .func  (\1<<12)|(\2>>4)
   14                     
   15                     
   16                     ; ----
   17                     ; CHAR - create a BAT value for a character defined
   18                     ;        using '.defchar' (uses default palette)
   19                     ;
   20                     ; parameters:
   21                     ; \1 = name of character
   22                     ;
   23                     CHAR     .func  (PAL(\1)<<12|VRAM(\1)>>4)
   24                     
   25                     ; ----
   26                     ; SPR_VRAM - return shifted value of sprite-pattern VRAM address
   27                     ;
   28                     ; parameters:
   29                     ; \1 = VRAM address of sprite
   30                     ;
   31                     SPR_VRAM .func  (VRAM(\1)>>5)
   32                     
#[3]   standard.inc
#[4]   library.inc
    7                             .include        "library.inc"
    1                     ;
    2                     ; LIBRARY.INC  -  MagicKit include-interface to LIBRARY.ASM
    3                     ;
    4                     
    5                     ;
    6                     ; These MACROs are just simple one-line setups to the
    7                     ; back-end library subroutines.  They simply setup
    8                     ; calling parameters, and call the subroutine
    9                     ;
   10                     
   11                     
   12                     ; set video memory read and write address:
   13                     ;
   14                     ; setvraddr(addr)
   15                     ; ----
   16                     ; addr,  new address in VRAM to read at
   17                     ;
   18                             .macro setvraddr
   19                              stw  #\1,<_di
   20                              jsr  set_read
   21                             .endm
   22                     
   23                     ; setvwaddr(addr)
   24                     ; ----
   25                     ; addr,  new address in VRAM to write at
   26                     ;
   27                             .macro setvwaddr
   28                              stw  #\1,<_di
   29                              jsr  set_write
   30                             .endm
   31                     
   32                     ; set_bgpal(index, data [, nb])
   33                     ; ----
   34                     ; index, sub-palette index (0-15)
   35                     ; data,  color data memory address
   36                     ; nb,    number of sub-palette to load (optional, one by default)
   37                     
   38                             .macro set_bgpal
   39                              lda   \1
   40                              sta   <_al
   41                             .if (\?2 = ARG_LABEL)
   42                              stb   #BANK(\2),<_bl
   43                             .else
   44                              stb   #$FE,<_bl
   45                             .endif
   46                              stw   #\2,<_si
   47                             .if \?3
   48                              lda   \3
   49                             .else
   50                              lda   #1
   51                             .endif
   52                              sta   <_cl
   53                              jsr   load_palette
   54                             .endm
   55                     
   56                     ; set_sprpal(index, data [, nb])
   57                     ; ----
   58                     ; index, sub-palette index (0-15)
   59                     ; data,  palette data memory address
   60                     ; nb,    number of sub-palette to update (optional, one by default)
   61                     
   62                             .macro set_sprpal
   63                              lda   \1
   64                              add   #16
   65                              sta   <_al
   66                             .if (\?2 = ARG_LABEL)
   67                              stb   #BANK(\2),<_bl
   68                             .else
   69                              stb   #$FE,<_bl
   70                             .endif
   71                              stw   #\2,<_si
   72                             .if \?3
   73                              lda   \3
   74                             .else
   75                              lda   #1
   76                             .endif
   77                              sta   <_cl
   78                              jsr   load_palette
   79                             .endm
   80                     
   81                     ; setcolor(index, r, g, b)
   82                     ; ----
   83                     ; index, color index
   84                     ; r,     red   (0-7)
   85                     ; g,     green (0-7)
   86                     ; b,     blue  (0-7)
   87                     
   88                             .macro setcolor
   89                              stw   \1,color_reg
   90                              stw   #(((\3) << 6) + ((\2) << 3) + (\4)),color_data
   91                             .endm
   92                     
   93                     ; vload([vram,] data, size)
   94                     ; ----
   95                     ; vram, VRAM base address
   96                     ; data, video data memory address
   97                     ; size, number of words to copy
   98                     
   99                             .macro vload
  100                             .if (\# = 3)
  101                              stw   #\1,<_di
  102                             .if (\?2 = ARG_LABEL)
  103                              stb   #BANK(\2),<_bl
  104                             .else
  105                              stb   #$FE,<_bl
  106                             .endif
  107                              stw   #\2,<_si
  108                              stw    \3,<_cx
  109                             .else
  110                              stw   #VRAM(\1),<_di
  111                              stb   #BANK(\1),<_bl
  112                              stw   #\1,<_si
  113                              stw   #\2,<_cx
  114                             .endif
  115                              jsr   load_vram
  116                             .endm
  117                     
  118                     ; batcpy(vram, bat, w, h)
  119                     ; ----
  120                     ; vram,   VRAM base address
  121                     ; bat,    BAT address in memory
  122                     ; w,      nb of column to copy
  123                     ; h,      nb of row
  124                     
  125                             .macro batcpy
  126                             .if (\# = 5)
  127                              .fail "batcpy syntax has changed, update your code!"
  128                             .endif
  129                              stw    \1,<_di
  130                             .if (\?2 = ARG_LABEL)
  131                              stb   #BANK(\2),<_bl
  132                             .else
  133                              stb   #$FE,<_bl
  134                             .endif
  135                              stw   #\2,<_si
  136                              lda   \3
  137                              sta   <_cl
  138                              lda   \4
  139                              sta   <_ch
  140                              jsr   load_bat
  141                             .endm
  142                     
  143                     ; setmap(map, tile, ctable, w ,h)
  144                     ; ----
  145                     ; map,    map base address
  146                     ; tile,   tile vram address
  147                     ; ctable, tile palette table address
  148                     ; w,      map width
  149                     ; h,      map height
  150                     
  151                             .macro setmap
  152                              stw   #BANK(\1),mapbank
  153                              stw   #\1,mapaddr
  154                              stw   #(\2)>>4,maptilebase
  155                              stw   #\3,mapctable
  156                              stb   #BANK(\3),mapctablebank
  157                              stw   \4,mapwidth
  158                              stw   \5,mapheight
  159                             .endm
  160                     
  161                     ; mapcpy(vram, x, y, w, h)
  162                     ; ----
  163                     ; vram, VRAM base address
  164                     ; x,    x start coordinate in the map
  165                     ; y,    y start coordinate
  166                     ; w,    nb of column to copy
  167                     ; h,    nb of row
  168                     
  169                             .macro mapcpy
  170                              stw   #\1,<_di
  171                              lda   \2
  172                              sta   <_cl
  173                              lda   \3
  174                              sta   <_ch
  175                              lda   \4
  176                              sta   <_dl
  177                              lda   \5
  178                              sta   <_dh
  179                              jsr   load_map
  180                             .endm
  181                     
  182                     ; fntcpy(vram, font, color, bg, nb)
  183                     ; ----
  184                     ; vram,  VRAM base address
  185                     ; font,  font address in memory
  186                     ; color, character color
  187                     ; bg,    bg color
  188                     ; nb,    nb of char. to copy
  189                     
  190                             .macro fntcpy   
  191                              stw   #\1,<_di
  192                              stb   #BANK(\2),<_bl
  193                              stw   #\2,<_si
  194                              lda   \3
  195                              sta   <_al
  196                              lda   \4
  197                              sta   <_ah
  198                              lda   \4
  199                              sta   <_cl
  200                              jsr   load_font
  201                             .endm
  202                     
  203                     ; scroll(num, x, y, top, bottom, cr)
  204                     ; ----
  205                     ; num,    scroll number (0-3)
  206                     ; x,      BAT x position
  207                     ; y,      BAT y position
  208                     ; top,    screen window top
  209                     ; bottom, screen window bottom
  210                     ; cr,     screen window display control (bg/sp)
  211                     
  212                             .macro scroll
  213                              lda   \1
  214                              tax
  215                              lda   LOW_BYTE  \2
  216                              sta   scroll_xl,X
  217                              lda   HIGH_BYTE \2
  218                              sta   scroll_xh,X
  219                              lda   LOW_BYTE  \3
  220                              sta   scroll_yl,X
  221                              lda   HIGH_BYTE \3
  222                              sta   scroll_yh,X
  223                              lda   \4
  224                              sta   scroll_top,X
  225                              lda   \5
  226                              sta   scroll_bottom,X
  227                              lda   \6
  228                              ora   #$01
  229                              sta   scroll_cr,X
  230                             .endm
  231                     
  232                     ; scroll_disable(num)
  233                     ; ----
  234                     ; num,    scroll number (0-3)
  235                     
  236                             .macro scroll_disable
  237                              lda   \1
  238                              tax
  239                              lda   scroll_cr,X
  240                              and   #$fe
  241                              sta   scroll_cr,X
  242                             .endm
  243                     
  244                     ; setxres (xres)
  245                     ; ----
  246                     ; xres,    horizontal display resolution
  247                     
  248                             .macro setxres
  249                              stw   #\1,<_ax
  250                              jsr   set_xres
  251                             .endm
  252                     
#[3]   standard.inc
#[4]   sprites.inc
    8                             .include        "sprites.inc"
    1                     ;
    2                     ; SPRITES.INC  -  MagicKit sprite MACRO definitions
    3                     ;
    4                     
    5                     
    6                     ; load_sprites(vram_addr, spr_bank, #nb_group)
    7                     ; ----
    8                     ; vram_addr, destination address in VRAM
    9                     ; spr_bank,  sprite bank address
   10                     ; nb_group,  number of 32x64 patterns to copy
   11                     
   12                             .macro load_sprites
   13                     
   14                             ; put the VRAM address in _di
   15                     
   16                              stw   #\1,<_di
   17                     
   18                             ; put the sprite bank address in _si/_bl
   19                     
   20                              stw   #\2,<_si
   21                              stb   #BANK(\2),<_bl
   22                     
   23                             ; get the number of patterns to copy, multiply it by $200 -
   24                             ; the size in words of a 32x64 pattern (remember that
   25                             ; 'load_vram' need a size in words), and put it in _cx
   26                     
   27                              lda   \3
   28                              asl   A
   29                              stz   <_cx
   30                              sta   <_cx+1
   31                     
   32                             ; call the 'load_vram' function
   33                     
   34                              jsr load_vram
   35                             .endm
   36                     
   37                     
   38                     ; spr_set(#sprite, satb)
   39                     ; ----
   40                     ; sprite, the sprite number (0-63)
   41                     ; satb,   the address of the SATB in RAM
   42                     
   43                             .macro spr_set
   44                     
   45                             ; multiply the sprite number by 8 (the size of a SATB entry)
   46                             ; and put the result in _si
   47                     
   48                              stz   <_si+1
   49                              lda   \1
   50                              asl   A
   51                              asl   A
   52                              asl   A
   53                              rol   <_si+1
   54                              sta   <_si
   55                     
   56                             ; add the satb address to _si
   57                     
   58                              addw  #\2,<_si
   59                             .endm
   60                     
   61                     
   62                     ; spr_x(#x [,offset])
   63                     ; ----
   64                     ; x, the new x coordinate
   65                     
   66                             .macro spr_x
   67                              ldy   #2
   68                              .if (\# = 2)
   69                               lda   LOW_BYTE \1
   70                               clc
   71                               adc   LOW_BYTE \2
   72                               sta   [_si],Y
   73                               lda   HIGH_BYTE \1
   74                               adc   HIGH_BYTE \2
   75                              .else
   76                               lda   LOW_BYTE \1
   77                               sta   [_si],Y
   78                               lda   HIGH_BYTE \1
   79                              .endif
   80                              iny
   81                              sta   [_si],Y
   82                             .endm
   83                     
   84                     
   85                     ; spr_y(#y [,offset])
   86                     ; ----
   87                     ; y, the new y coordinate
   88                     
   89                             .macro spr_y
   90                              .if (\# = 2)
   91                               lda   LOW_BYTE \1
   92                               clc
   93                               adc   LOW_BYTE \2
   94                               sta   [_si]
   95                               lda   HIGH_BYTE \1
   96                               adc   HIGH_BYTE \2
   97                              .else
   98                               lda   LOW_BYTE \1
   99                               sta   [_si]
  100                               lda   HIGH_BYTE \1
  101                              .endif
  102                              ldy   #1
  103                              sta   [_si],Y
  104                             .endm
  105                     
  106                     
  107                     ; spr_pattern(#addr)
  108                     ; ----
  109                     ; addr, address of the sprite pattern in VRAM
  110                     
  111                             .macro spr_pattern
  112                              ldy   #4
  113                              .if (\?1 = ARG_IMMED)
  114                               lda   #LOW((\1) >> 5)
  115                               sta   [_si],Y
  116                               lda   #HIGH((\1) >> 5)
  117                              .else
  118                               lda   \1
  119                               sta   [_si],Y
  120                               lda   \1+1
  121                              .endif
  122                              iny
  123                              sta   [_si],Y
  124                             .endm
  125                     
  126                     
  127                     ; spr_ctrl(#mask, #flag)
  128                     ; ----
  129                     ; mask, mask of the bits to change
  130                     ; flag, new bit value
  131                     
  132                             .macro spr_ctrl
  133                              ldy   #7
  134                              lda   \1
  135                              eor   #$FF
  136                              and   [_si],Y
  137                              ora   \2
  138                              sta   [_si],Y
  139                             .endm
  140                     
  141                     
  142                     ; spr_pri(#flag)
  143                     ; ----
  144                     ; flag, new priority (1 = in foreground, 0 = in background)
  145                     
  146                             .macro spr_pri
  147                              ldy   #6
  148                              lda   [_si],Y
  149                              and   #$7F
  150                              ldx   \1
  151                              beq   .x\@
  152                              ora   #$80
  153                     .x\@:
  154                              sta [_si],Y
  155                             .endm
  156                     
  157                     
  158                     ; spr_pal(#index)
  159                     ; ----
  160                     ; index, palette index (0-15)
  161                     
  162                             .macro spr_pal
  163                              ldy   #6
  164                              lda   [_si],Y
  165                              and   #$F0
  166                              ora   \1
  167                              sta   [_si],Y
  168                             .endm
  169                     
  170                     
  171                     ; init_satb(addr)
  172                     ; ----
  173                     ; addr, the address of the local RAM SATB
  174                     
  175                             .macro init_satb
  176                              stz \1
  177                              tii \1,\1+1,511
  178                             .endm
  179                     
  180                     
  181                     ; update_satb(satb[, addr] [,nb_sprite])
  182                     ; ----
  183                     ; satb,      the address of the local RAM SATB
  184                     ; addr,      the address where to copy the SATB in VRAM ($7F00 by default)
  185                     ; nb_sprite, number of sprite entry to copy (64 by default)
  186                     
  187                             .macro update_satb
  188                              stw   #\1,<_si
  189                              stb   #BANK(\1),<_bl
  190                              .if (\?2)
  191                               stw   #\2,<_di
  192                              .else
  193                               stw   #$7F00,<_di
  194                              .endif
  195                              .if (\?3)
  196                               stw   #(\3)*4,<_cx
  197                              .else
  198                               stw   #$100,<_cx
  199                              .endif
  200                              jsr   load_vram
  201                             .endm
  202                     
  203                     
  204                     ; ----
  205           0008      FLIP_X_MASK .equ $08
  206           0080      FLIP_Y_MASK .equ $80
  207           0088      FLIP_MASK   .equ $88
  208           0031      SIZE_MASK   .equ $31
  209                     
  210           0000      NO_FLIP    .equ 0
  211           0000      NO_FLIP_X  .equ 0
  212           0000      NO_FLIP_Y  .equ 0
  213           0008      FLIP_X     .equ $08
  214           0080      FLIP_Y     .equ $80
  215           0000      SIZE_16x16 .equ 0
  216           0010      SIZE_16x32 .equ $10
  217           0030      SIZE_16x64 .equ $30
  218           0001      SIZE_32x16 .equ $01
  219           0011      SIZE_32x32 .equ $11
  220           0031      SIZE_32x64 .equ $31
  221                     
#[3]   standard.inc
#[4]   vdc.inc
    9                             .include        "vdc.inc"
    1                     ;
    2                     ; VDC.INC  -  MagicKit PC-Engine video MACRO definitions
    3                     ;
    4                     
    5                     
    6                     ;
    7                     ; VREG - set up video register to be read/written
    8                     ;
    9                     
   10                             .macro vreg
   11                              lda    \1
   12                              sta    <vdc_reg
   13                              .if (\?1 = ARG_IMMED)
   14                               st0   \1
   15                              .else
   16                               sta   video_reg
   17                              .endif
   18                             .endm
   19                     
   20                     ;
   21                     ; SETVINC - set VRAM auto-increment step
   22                     ;
   23                     
   24                             .macro setvinc
   25                              vreg  #5
   26                              .if (\?1 = ARG_IMMED)
   27                               st2   \1
   28                              .else
   29                               lda   \1
   30                               sta   video_data_h
   31                              .endif
   32                             .endm
   33                     
   34                             ; standard increment step
   35                     
   36           0000      VADDR_INC_1   = %00_000
   37           0008      VADDR_INC_32  = %01_000
   38           0010      VADDR_INC_64  = %10_000
   39           0018      VADDR_INC_128 = %11_000
   40                     
   41                     ;
   42                     ; SETBGMAP - set the bgmap virtual size
   43                     ;
   44                     
   45                             .macro setbgmap
   46                              lda   \1
   47                              jsr   set_bat_size
   48                             .endm
   49                     
   50                             ; standard bgmap size
   51                     
   52           0000      BGMAP_SIZE_32x32  = %000
   53           0001      BGMAP_SIZE_64x32  = %001
   54           0003      BGMAP_SIZE_128x32 = %011
   55           0004      BGMAP_SIZE_32x64  = %100
   56           0005      BGMAP_SIZE_64x64  = %101
   57           0007      BGMAP_SIZE_128x64 = %111
   58                     
   59                     ;
   60                     ; These values represent a bit in the VCE which
   61                     ; does color-correction to fix leading/trailing
   62                     ; edges of images
   63                     ;
   64                     ; Default to XRES_SOFT
   65                     ;
   66           0004      XRES_SOFT       = 4
   67           0000      XRES_SHARP      = 0
#[3]   standard.inc
#[4]   startup.inc
   10                             .include        "startup.inc"
    1                     ;
    2                     ; STARTUP.INC  -  MagicKit startup code equates and macros
    3                     ;
    4                     
    5                     ; ----
    6                     ; this block defines names for joypad
    7                     ; direction and button bits
    8                     
    9           0001      JOY_I           = $01
   10           0002      JOY_II          = $02
   11           0004      JOY_SEL         = $04
   12           0008      JOY_RUN         = $08
   13           0010      JOY_UP          = $10
   14           0020      JOY_RIGHT       = $20
   15           0040      JOY_DOWN        = $40
   16           0080      JOY_LEFT        = $80
   17                     
   18           0050      JOY_TYPE6       = $50
   19           0001      JOY_III         = $01
   20           0002      JOY_IV          = $02
   21           0004      JOY_V           = $04
   22           0008      JOY_VI          = $08
   23                     
   24           0000      JOY_BITI        = $0
   25           0001      JOY_BITII       = $1
   26           0002      JOY_BITSEL      = $2
   27           0003      JOY_BITRUN      = $3
   28           0004      JOY_BITUP       = $4
   29           0005      JOY_BITRT       = $5
   30           0006      JOY_BITDN       = $6
   31           0007      JOY_BITLT       = $7
   32                     
   33           0000      JOY_BITIII      = $0
   34           0001      JOY_BITIV       = $1
   35           0002      JOY_BITV        = $2
   36           0003      JOY_BITVI       = $3
   37                     
   38                     ; ----
   39                     ; this block defines names for interrupt
   40                     ; vectors
   41                     ;
   42           0000      IRQ2            = 0
   43           0001      IRQ1            = 1
   44           0002      TIMER           = 2
   45           0003      NMI             = 3
   46           0004      VSYNC           = 4
   47           0005      HSYNC           = 5
   48           0006      SOFT_RESET      = 6
   49                     
   50                     
   51                     ; ----
   52                     ; setvec(num, addr)
   53                     ; ----
   54                     ; num,  vector number (see defines above)
   55                     ; addr, address of the new routine
   56                     ; ----
   57                     
   58                     setvec  .macro
   59                              lda  \1
   60                              ldx  #LOW(\2)
   61                              ldy  #HIGH(\2)
   62                              jsr  set_intvec
   63                             .endm
   64                     
   65                     ; ----
   66                     ; vec_on(num)
   67                     ; ----
   68                     ; num, vector to enable
   69                     ; ----
   70                     
   71                     vec_on  .macro
   72                             .if (\1 = 5)
   73                              smb  #6,<irq_m
   74                             .else
   75                              smb  \1,<irq_m
   76                             .endif
   77                             .endm
   78                     
   79                     ; ----
   80                     ; vec_off(num)
   81                     ; ----
   82                     ; num, vector to disable
   83                     ; ----
   84                     
   85                     vec_off .macro
   86                             .if (\1 = 5)
   87                              rmb  #6,<irq_m
   88                             .else
   89                              rmb  \1,<irq_m
   90                             .endif
   91                             .endm
   92                     
   93                     ; ----
   94                     ; vsync([nb])
   95                     ; ----
   96                     ; nb, number of frames to be sync'ed on
   97                     ; ----
   98                     
   99                     vsync   .macro
  100                             .if (\# = 0)
  101                              lda #1
  102                             .else
  103                              lda \1
  104                             .endif
  105                              jsr  wait_vsync
  106                             .endm
  107                     
  108                     
#[3]   standard.inc
   11                     
#[2]   startup.asm
   17                     
   18                     
   19                     ; ----
   20                     ; setup flexible boundaries for startup code
   21                     ; and user program's "main".
   22                     ;
   23           0000      START_BANK      .equ    0
   24           0000      LIB1_BANK       .equ    START_BANK
   25           0001      LIB2_BANK       .equ    START_BANK+1
   26           0001                     .ifdef HUC
   27           0001      FONT_BANK       .equ    START_BANK+1
   28                     
   29           0000                      .if  (CDROM)
   32                                     .else
   33           0002      PSG_BANK         .equ   START_BANK+2
   34           0003      CONST_BANK       .equ   START_BANK+3
   35           0004      DATA_BANK        .equ   START_BANK+4
   36                                     .endif
   37                     
   38                                    .else
   42                                    .endif   ; HUC
   43                     
   44                     
   45                     ; ----
   46                     ; if FONT_VADDR is not specified, then specify it
   47                     ; (VRAM address to load font into)
   48                     ;
   49           0000              .ifndef FONT_VADDR
   51                             .endif
   52                     
   53                     ; ----
   54                     ; system variables
   55                     ;
   56           2012                      .zp
   57  --:2012            zp_ptr1:        .ds 2
   58                     
   59                     
   60           2200                      .bss
   61                     
   62           0000              .if  (CDROM)    ; CDROM def's in system.inc
   66                             .else           ; ie HuCard
   67                     
   68           2200                      .org    $2200
   69  --:2200            user_jmptbl:            ; user interrupt vectors
   70  --:2200            irq2_jmp:       .ds 2   ; IRQ2 (BRK instruction and external IRQ)
   71  --:2202            irq1_jmp:       .ds 2   ; IRQ1 (VDC interrupt)
   72  --:2204            timer_jmp:      .ds 2   ; TIMER
   73  --:2206            nmi_jmp:        .ds 2   ; NMI (unused)
   74  --:2208            vsync_hook:     .ds 2   ; VDC vertical sync routine
   75  --:220A            hsync_hook:     .ds 2   ; VDC horizontal sync rountine
   76                     
   77  --:220C            bg_x1:          .ds 2
   78  --:220E            bg_x2:          .ds 2
   79  --:2210            bg_y1:          .ds 2
   80  --:2212            bg_y2:          .ds 2
   81                     
   82                     
   83           2227                      .org    $2227
   84  --:2227            joyena:         .ds 1   ; soft reset enable (bit 0/pad 1, bit 1/pad2, etc.)
   85  --:2228            joy:            .ds 5   ; 'current' pad values (pad #1-5)
   86  --:222D            joytrg:         .ds 5   ; 'delta' pad values (new keys hit)
   87  --:2232            joyold:         .ds 5   ; 'previous' pad values
   88                     
   89           2241                      .org    $2241
   90  --:2241            irq_cnt:        .ds 1   ; VDC interrupt counter; increased 60 times per second
   91                                             ; reset to zero when vsync() function called
   92  --:2242            vdc_mwr:        .ds 1
   93  --:2243            vdc_dcr:        .ds 1
   94                     
   95                             .endif
   96                     
   97           2244                      .org    $2244
   98  --:2244            scr_mode:       .ds 1   ; screen mode and dimensions - set by <ex_scrmod>
   99  --:2245            scr_w:          .ds 1
  100  --:2246            scr_h:          .ds 1
  101                     
  102           2284                      .org    $2284
  103  --:2284            soft_reset:     .ds 2   ; soft reset jump loc (run+select)
  104                     
  105           0001              .if  !(CDROM)
#[3]   sound.inc
  106                                     .include  "sound.inc"
    1                     ;
    2                     ; PSG.INC  -  MagicKit PSG Player Equates
    3                     ;
    4                     ;
    5                     
    6                     ; --------
    7                     ; defines
    8                     ;
    9                     
   10           0080      PSG_INHIBIT =   $80
   11           0040      PSG_DDA =       $40
   12                     
   13           0080      PSG_MAINPAUSE = $80
   14           0040      PSG_SUBPAUSE =  $40
   15                     
   16                     ;PSG_NOISE =    $80
   17                     ;PSG_LFO_ON =   $80
   18                     
   19                     
   20                     ; --------
   21                     ; useful macros:
   22                     ;
   23                     
   24                     ENV_RLS .macro
   25                              .db $fb
   26                              .dw \1
   27                             .endm
   28                     
   29                     ENV_LEV .macro
   30                              .db $fc
   31                              .dw \1
   32                             .endm
   33                     
   34                     ENV_DLY .macro
   35                              .db \1
   36                              .dw \2
   37                             .endm
   38                     
   39                     ENV_END .macro
   40                              .db $ff
   41                             .endm
   42                     
   43                     
   44                     ; --------
   45                     ; This block defines standard system variables
   46                     ; in zero-page.
   47                     ;
   48                     
   49           20E6      psg_irqflag     =       $20e6
   50           20E7      psg_inhibit     =       $20e7
   51           20E8      psg_tmpptr      =       $20e8
   52           20EA      psg_tmpptr1     =       $20ea
   53                     
   54                     
   55                     
   56           22D0                      .org    $22d0
   57                     
   58                     ; --------
   59                     ; "global" data (common to all voices)
   60                     ;
   61  --:22D0            psg_tempo       .ds     1
   62  --:22D1            psg_trkhdr      .ds     2
   63  --:22D3            psg_wavehdr     .ds     2
   64  --:22D5            psg_envhdr      .ds     2
   65  --:22D7            psg_percusshdr  .ds     2
   66  --:22D9            psg_fmhdr       .ds     2
   67  --:22DB            psg_pehdr       .ds     2
   68  --:22DD            psg_trkctrl     .ds     1
   69                     
   70  --:22DE            psg_ch_value    .ds     1
   71  --:22DF            psg_currvoice   .ds     1
   72  --:22E0            psg_song        .ds     1
   73  --:22E1            psg_bank1       .ds     1
   74  --:22E2            psg_bank2       .ds     1
   75                     
   76                     
   77                     ; "local" data array (one item for each voice)
   78                     ;
   79  --:22E3            psg_voicectrl   .ds     12
   80  --:22EF            psg_trkptr_l    .ds     12
   81  --:22FB            psg_trkptr_h    .ds     12
   82  --:2307            psg_savepoint_l .ds     12
   83  --:2313            psg_savepoint_h .ds     12
   84  --:231F            psg_cntdown     .ds     12
   85  --:232B            psg_octave      .ds     12
   86  --:2337            psg_freq_l      .ds     12
   87  --:2343            psg_freq_h      .ds     12
   88  --:234F            psg_perchvol    .ds     12
   89  --:235B            psg_keyonratio  .ds     12
   90  --:2367            psg_keycntdown  .ds     12
   91  --:2373            psg_transpose   .ds     12
   92  --:237F            psg_duratnmult  .ds     12
   93  --:238B            psg_envptr_l    .ds     12
   94  --:2397            psg_envptr_h    .ds     12
   95  --:23A3            psg_envptr_off  .ds     12
   96  --:23AF            psg_envlevel_l  .ds     12
   97  --:23BB            psg_envlevel_h  .ds     12
   98  --:23C7            psg_envduratn_l .ds     12
   99  --:23D3            psg_envduratn_h .ds     12
  100  --:23DF            psg_envduratn   .ds     12
  101  --:23EB            psg_envrels_l   .ds     12
  102  --:23F7            psg_envrels_h   .ds     12
  103  --:2403            psg_fmptr_l     .ds     12
  104  --:240F            psg_fmptr_h     .ds     12
  105  --:241B            psg_fmptr_off   .ds     12
  106  --:2427            psg_fmcorrect   .ds     12
  107  --:2433            psg_fmdelay     .ds     12
  108  --:243F            psg_fmdelcntdn  .ds     12
  109  --:244B            psg_peptr_l     .ds     12
  110  --:2457            psg_peptr_h     .ds     12
  111  --:2463            psg_peptr_off   .ds     12
  112  --:246F            psg_pedelay     .ds     12
  113  --:247B            psg_pedelcntdn  .ds     12
  114  --:2487            psg_detune      .ds     12
  115  --:2493            psg_volchg      .ds     12
  116  --:249F            psg_volchgaccum .ds     12
  117  --:24AB            psg_panpotchg   .ds     12
  118  --:24B7            psg_panpotaccum .ds     12
  119  --:24C3            psg_sweep       .ds     12
  120  --:24CF            psg_sweepamt_l  .ds     12
  121  --:24DB            psg_sweepamt_h  .ds     12
  122  --:24E7            psg_swptime     .ds     12
  123  --:24F3            psg_swptmcntdn  .ds     12
  124  --:24FF            psg_percuss_l   .ds     12
  125  --:250B            psg_percuss_h   .ds     12
  126                     
  127  --:2517            psg_stack_0     .ds     11
  128  --:2522            psg_stack_1     .ds     11
  129  --:252D            psg_stack_2     .ds     11
  130  --:2538            psg_stack_3     .ds     11
  131  --:2543            psg_stack_4     .ds     11
  132  --:254E            psg_stack_5     .ds     11
  133  --:2559            psg_stack_6     .ds     10
  134  --:2563            psg_stack_7     .ds     10
  135  --:256D            psg_stack_8     .ds     10
  136  --:2577            psg_stack_9     .ds     10
  137  --:2581            psg_stack_10    .ds     10
  138  --:258B            psg_stack_11    .ds     10
  139                     
  140  --:2595            psg_mode        .ds     12
  141  --:25A1            psg_stkoff      .ds     12
  142  --:25AD            psg_tone_l      .ds     12
  143  --:25B9            psg_tone_h      .ds     12
  144  --:25C5            psg_volume      .ds     12
  145  --:25D1            psg_panpot      .ds     12
  146  --:25DD            psg_wavenum     .ds     12
  147  --:25E9            psg_noisefreq   .ds     12
  148  --:25F5            psg_strikephase .ds     12
  149  --:2601            psg_fadespeed   .ds     2
  150  --:2603            psg_fadecount   .ds     2
  151  --:2605            psg_fadevolcut  .ds     2
  152                     
#[2]   startup.asm
  107                             .endif
  108                     
  109           2680                      .org    $2680
  110  --:2680            vsync_cnt:      .ds 1   ; counter for 'wait_vsync' routine
  111                     
  112  --:2681            joybuf:         .ds 5   ; 'delta' pad values collector
  113  --:2686            joyhook:        .ds 2   ; 'read_joypad' routine hook
  114  --:2688            joycallback:    .ds 6   ; joypad enhanced callback support
  115  --:268E            disp_cr:        .ds 1   ; display control (1 = on, 0 = off)
  116  --:268F            clock_hh        .ds 1   ; system clock, hours since startup (0-255)
  117  --:2690            clock_mm        .ds 1   ; system clock, minutes since startup (0-59)
  118  --:2691            clock_ss        .ds 1   ; system clock, seconds since startup (0-59)
  119  --:2692            clock_tt        .ds 1   ; system clock, ticks (1/60th sec) since startup (0-59)
  120                     
  121  --:2693            joy6:           .ds 5   ; second byte for 6-button joysticks
  122  --:2698            joytrg6:        .ds 5
  123  --:269D            joyold6:        .ds 5
  124  --:26A2            joybuf6:        .ds 5
  125                     
  126  --:26A7            joytmp:         .ds 5
  127  --:26AC            joytmp6:        .ds 5
  128                     
  129           0000              .if (CDROM)
  136                             .endif  ; (CDROM)
  137                     
  138                     ;[ STARTUP CODE ]
  139                     
  140                     ; Let's prepare this secondary libray bank first, for use later.
  141                     ; The reason, as you will see, is because code for a given function
  142                     ; which sits together in a file, may have things in zero-page,
  143                     ; bss, LIB1_BANK (ie. START_BANK), and LIB2_BANK.
  144                     ;
  145                     ; The assembler must know beforehand what address etc. to use as a basis.
  146                     ;
  147           E000              .data
  148           0001              .bank LIB2_BANK,"Base Library 2/Font"
  149           6000              .org  $6000
#[3]   font.inc
  150                              .include "font.inc"
    1                     ; 8x8 monochrome font(s)
    2                     
    3  01:6000            font_1:
    4  01:6000  00 00 00          .db $00,$00,$00,$00,$00,$00,$00,$00     ;SPACE
       01:6003  00 00 00  
       01:6006  00 00     
    5  01:6008  CC CC CC          .db $cc,$cc,$cc,$88,$88,$00,$cc,$00     ;!
       01:600B  88 88 00  
       01:600E  CC 00     
    6  01:6010  6C 6C D8          .db $6c,$6c,$d8,$00,$00,$00,$00,$00     ;"
       01:6013  00 00 00  
       01:6016  00 00     
    7  01:6018  6C FE 6C          .db $6c,$fe,$6c,$6c,$6c,$fe,$6c,$00     ;#
       01:601B  6C 6C FE  
       01:601E  6C 00     
    8  01:6020  10 38 40          .db $10,$38,$40,$38,$04,$38,$10,$00     ;$
       01:6023  38 04 38  
       01:6026  10 00     
    9  01:6028  42 A4 48          .db $42,$a4,$48,$10,$24,$4a,$84,$00     ;%
       01:602B  10 24 4A  
       01:602E  84 00     
   10  01:6030  20 50 20          .db $20,$50,$20,$54,$88,$94,$62,$00     ;&
       01:6033  54 88 94  
       01:6036  62 00     
   11  01:6038  18 30 60          .db $18,$30,$60,$00,$00,$00,$00,$00     ;'
       01:603B  00 00 00  
       01:603E  00 00     
   12  01:6040  18 30 60          .db $18,$30,$60,$60,$60,$30,$18,$00     ;(
       01:6043  60 60 30  
       01:6046  18 00     
   13  01:6048  30 18 0C          .db $30,$18,$0c,$0c,$0c,$18,$30,$00     ;)
       01:604B  0C 0C 18  
       01:604E  30 00     
   14  01:6050  54 38 7C          .db $54,$38,$7c,$38,$54,$00,$00,$00     ;*
       01:6053  38 54 00  
       01:6056  00 00     
   15  01:6058  00 10 10          .db $00,$10,$10,$7c,$10,$10,$00,$00     ;+
       01:605B  7C 10 10  
       01:605E  00 00     
   16  01:6060  00 00 00          .db $00,$00,$00,$18,$18,$08,$10,$00     ;,
       01:6063  18 18 08  
       01:6066  10 00     
   17  01:6068  00 00 00          .db $00,$00,$00,$78,$00,$00,$00,$00     ;-
       01:606B  78 00 00  
       01:606E  00 00     
   18  01:6070  00 00 00          .db $00,$00,$00,$00,$60,$60,$00,$00     ;.
       01:6073  00 60 60  
       01:6076  00 00     
   19  01:6078  06 0C 18          .db $06,$0c,$18,$30,$60,$c0,$00,$00     ;/
       01:607B  30 60 C0  
       01:607E  00 00     
   20                     
   21  01:6080  38 4C C6          .db $38,$4c,$c6,$c6,$c6,$64,$38,$00     ;0
       01:6083  C6 C6 64  
       01:6086  38 00     
   22  01:6088  18 78 18          .db $18,$78,$18,$18,$18,$18,$7e,$00     ;1
       01:608B  18 18 18  
       01:608E  7E 00     
   23  01:6090  7C C6 0E          .db $7c,$c6,$0e,$3c,$78,$e0,$fe,$00     ;2
       01:6093  3C 78 E0  
       01:6096  FE 00     
   24  01:6098  FE 0C 18          .db $fe,$0c,$18,$7c,$06,$c6,$7c,$00     ;3
       01:609B  7C 06 C6  
       01:609E  7C 00     
   25  01:60A0  3C 6C CC          .db $3c,$6c,$cc,$cc,$cc,$fe,$0c,$00     ;4
       01:60A3  CC CC FE  
       01:60A6  0C 00     
   26  01:60A8  FE C0 FC          .db $fe,$c0,$fc,$06,$06,$c6,$7c,$00     ;5
       01:60AB  06 06 C6  
       01:60AE  7C 00     
   27  01:60B0  3C 60 C0          .db $3c,$60,$c0,$fc,$c6,$c6,$7c,$00     ;6
       01:60B3  FC C6 C6  
       01:60B6  7C 00     
   28  01:60B8  FE C6 0C          .db $fe,$c6,$0c,$18,$30,$30,$30,$00     ;7
       01:60BB  18 30 30  
       01:60BE  30 00     
   29  01:60C0  7C C6 C6          .db $7c,$c6,$c6,$7c,$c6,$c6,$7c,$00     ;8
       01:60C3  7C C6 C6  
       01:60C6  7C 00     
   30  01:60C8  7C C6 C6          .db $7c,$c6,$c6,$7e,$06,$0c,$78,$00     ;9
       01:60CB  7E 06 0C  
       01:60CE  78 00     
   31  01:60D0  00 18 18          .db $00,$18,$18,$00,$18,$18,$00,$00     ;:
       01:60D3  00 18 18  
       01:60D6  00 00     
   32  01:60D8  00 18 18          .db $00,$18,$18,$00,$18,$18,$30,$00     ;;
       01:60DB  00 18 18  
       01:60DE  30 00     
   33  01:60E0  0C 18 30          .db $0c,$18,$30,$60,$30,$18,$0c,$00     ;<
       01:60E3  60 30 18  
       01:60E6  0C 00     
   34  01:60E8  00 00 7C          .db $00,$00,$7c,$00,$7c,$00,$00,$00     ;=
       01:60EB  00 7C 00  
       01:60EE  00 00     
   35  01:60F0  60 30 18          .db $60,$30,$18,$0c,$18,$30,$60,$00     ;>
       01:60F3  0C 18 30  
       01:60F6  60 00     
   36  01:60F8  7C C6 9E          .db $7c,$c6,$9e,$38,$20,$00,$30,$00     ;?
       01:60FB  38 20 00  
       01:60FE  30 00     
   37                     
   38  01:6100  3C 42 9A          .db $3c,$42,$9a,$aa,$aa,$5c,$00,$00     ;@
       01:6103  AA AA 5C  
       01:6106  00 00     
   39  01:6108  38 6C C6          .db $38,$6c,$c6,$c6,$fe,$c6,$c6,$00     ;A
       01:610B  C6 FE C6  
       01:610E  C6 00     
   40  01:6110  FC C6 C6          .db $fc,$c6,$c6,$fc,$c6,$c6,$fc,$00     ;B
       01:6113  FC C6 C6  
       01:6116  FC 00     
   41  01:6118  3C 66 C0          .db $3c,$66,$c0,$c0,$c0,$66,$3c,$00     ;C
       01:611B  C0 C0 66  
       01:611E  3C 00     
   42  01:6120  F8 CC C6          .db $f8,$cc,$c6,$c6,$c6,$cc,$f8,$00     ;D
       01:6123  C6 C6 CC  
       01:6126  F8 00     
   43  01:6128  FE C0 C0          .db $fe,$c0,$c0,$fc,$c0,$c0,$fe,$00     ;E
       01:612B  FC C0 C0  
       01:612E  FE 00     
   44  01:6130  FE C0 C0          .db $fe,$c0,$c0,$fc,$c0,$c0,$c0,$00     ;F
       01:6133  FC C0 C0  
       01:6136  C0 00     
   45  01:6138  3C 66 C0          .db $3c,$66,$c0,$ce,$c6,$66,$3e,$00     ;G
       01:613B  CE C6 66  
       01:613E  3E 00     
   46  01:6140  C6 C6 C6          .db $c6,$c6,$c6,$fe,$c6,$c6,$c6,$00     ;H
       01:6143  FE C6 C6  
       01:6146  C6 00     
   47  01:6148  7E 18 18          .db $7e,$18,$18,$18,$18,$18,$7e,$00     ;I
       01:614B  18 18 18  
       01:614E  7E 00     
   48  01:6150  06 06 06          .db $06,$06,$06,$06,$06,$c6,$7c,$00     ;J
       01:6153  06 06 C6  
       01:6156  7C 00     
   49  01:6158  C6 CC D8          .db $c6,$cc,$d8,$f0,$d8,$cc,$c6,$00     ;K
       01:615B  F0 D8 CC  
       01:615E  C6 00     
   50  01:6160  C0 C0 C0          .db $c0,$c0,$c0,$c0,$c0,$c0,$fe,$00     ;L
       01:6163  C0 C0 C0  
       01:6166  FE 00     
   51  01:6168  82 C6 EE          .db $82,$c6,$ee,$fe,$d6,$c6,$c6,$00     ;M
       01:616B  FE D6 C6  
       01:616E  C6 00     
   52  01:6170  86 C6 E6          .db $86,$c6,$e6,$f6,$de,$ce,$c6,$00     ;N
       01:6173  F6 DE CE  
       01:6176  C6 00     
   53  01:6178  7C C6 C6          .db $7c,$c6,$c6,$c6,$c6,$c6,$7c,$00     ;O
       01:617B  C6 C6 C6  
       01:617E  7C 00     
   54                     
   55  01:6180  FC C6 C6          .db $fc,$c6,$c6,$c6,$fc,$c0,$c0,$00     ;P
       01:6183  C6 FC C0  
       01:6186  C0 00     
   56  01:6188  7C C6 C6          .db $7c,$c6,$c6,$c6,$de,$cc,$76,$00     ;Q
       01:618B  C6 DE CC  
       01:618E  76 00     
   57  01:6190  FC C6 C6          .db $fc,$c6,$c6,$fc,$d8,$cc,$c6,$00     ;R
       01:6193  FC D8 CC  
       01:6196  C6 00     
   58  01:6198  7C C6 F0          .db $7c,$c6,$f0,$7c,$1e,$c6,$7c,$00     ;S
       01:619B  7C 1E C6  
       01:619E  7C 00     
   59  01:61A0  7E 18 18          .db $7e,$18,$18,$18,$18,$18,$18,$00     ;T
       01:61A3  18 18 18  
       01:61A6  18 00     
   60  01:61A8  C6 C6 C6          .db $c6,$c6,$c6,$c6,$c6,$c6,$7c,$00     ;U
       01:61AB  C6 C6 C6  
       01:61AE  7C 00     
   61  01:61B0  C6 C6 C6          .db $c6,$c6,$c6,$c6,$c6,$6c,$38,$00     ;V
       01:61B3  C6 C6 6C  
       01:61B6  38 00     
   62  01:61B8  C6 C6 C6          .db $c6,$c6,$c6,$d6,$fe,$ee,$c6,$00     ;W
       01:61BB  D6 FE EE  
       01:61BE  C6 00     
   63  01:61C0  C6 EE 7C          .db $c6,$ee,$7c,$38,$7c,$ee,$c6,$00     ;X
       01:61C3  38 7C EE  
       01:61C6  C6 00     
   64  01:61C8  66 66 66          .db $66,$66,$66,$3c,$18,$18,$18,$00     ;Y
       01:61CB  3C 18 18  
       01:61CE  18 00     
   65  01:61D0  FE 0E 1C          .db $fe,$0e,$1c,$38,$70,$e0,$fe,$00     ;Z
       01:61D3  38 70 E0  
       01:61D6  FE 00     
   66  01:61D8  78 60 60          .db $78,$60,$60,$60,$60,$60,$78,$00     ;[
       01:61DB  60 60 60  
       01:61DE  78 00     
   67  01:61E0  C0 60 30          .db $c0,$60,$30,$18,$0c,$06,$00,$00     ;\
       01:61E3  18 0C 06  
       01:61E6  00 00     
   68  01:61E8  3C 0C 0C          .db $3c,$0c,$0c,$0c,$0c,$0c,$3c,$00     ;]
       01:61EB  0C 0C 0C  
       01:61EE  3C 00     
   69  01:61F0  10 28 44          .db $10,$28,$44,$00,$00,$00,$00,$00     ;^
       01:61F3  00 00 00  
       01:61F6  00 00     
   70  01:61F8  00 00 00          .db $00,$00,$00,$00,$00,$00,$fe,$00     ;_
       01:61FB  00 00 00  
       01:61FE  FE 00     
   71                     
   72  01:6200  00 00 00          .db $00,$00,$00,$00,$00,$00,$00,$00     ; 
       01:6203  00 00 00  
       01:6206  00 00     
   73  01:6208  00 00 3C          .db $00,$00,$3c,$06,$7e,$c6,$7e,$00     ;a
       01:620B  06 7E C6  
       01:620E  7E 00     
   74  01:6210  C0 C0 FC          .db $c0,$c0,$fc,$c6,$c6,$c6,$fc,$00     ;b
       01:6213  C6 C6 C6  
       01:6216  FC 00     
   75  01:6218  00 00 7C          .db $00,$00,$7c,$c6,$c0,$c6,$7c,$00     ;c
       01:621B  C6 C0 C6  
       01:621E  7C 00     
   76  01:6220  06 06 7E          .db $06,$06,$7e,$c6,$c6,$c6,$7e,$00     ;d
       01:6223  C6 C6 C6  
       01:6226  7E 00     
   77  01:6228  00 00 7C          .db $00,$00,$7c,$c6,$fc,$c0,$7e,$00     ;e
       01:622B  C6 FC C0  
       01:622E  7E 00     
   78  01:6230  3E 60 60          .db $3e,$60,$60,$f8,$60,$60,$60,$00     ;f
       01:6233  F8 60 60  
       01:6236  60 00     
   79  01:6238  00 00 7C          .db $00,$00,$7c,$c6,$c6,$7e,$06,$7c     ;g
       01:623B  C6 C6 7E  
       01:623E  06 7C     
   80  01:6240  C0 C0 FC          .db $c0,$c0,$fc,$c6,$c6,$c6,$c6,$00     ;h
       01:6243  C6 C6 C6  
       01:6246  C6 00     
   81  01:6248  18 00 18          .db $18,$00,$18,$18,$18,$18,$18,$00     ;i
       01:624B  18 18 18  
       01:624E  18 00     
   82  01:6250  0C 0C 00          .db $0c,$0c,$00,$0c,$0c,$0c,$0c,$78     ;j
       01:6253  0C 0C 0C  
       01:6256  0C 78     
   83  01:6258  C0 C0 D8          .db $c0,$c0,$d8,$f0,$e0,$f0,$d8,$00     ;k
       01:625B  F0 E0 F0  
       01:625E  D8 00     
   84  01:6260  70 30 30          .db $70,$30,$30,$30,$30,$30,$78,$00     ;l
       01:6263  30 30 30  
       01:6266  78 00     
   85  01:6268  00 00 7C          .db $00,$00,$7c,$d6,$d6,$d6,$d6,$00     ;m
       01:626B  D6 D6 D6  
       01:626E  D6 00     
   86  01:6270  00 00 7C          .db $00,$00,$7c,$66,$66,$66,$66,$00     ;n
       01:6273  66 66 66  
       01:6276  66 00     
   87  01:6278  00 00 3C          .db $00,$00,$3c,$66,$66,$66,$3c,$00     ;o
       01:627B  66 66 66  
       01:627E  3C 00     
   88                     
   89  01:6280  00 00 7C          .db $00,$00,$7c,$66,$66,$7c,$60,$60     ;p
       01:6283  66 66 7C  
       01:6286  60 60     
   90  01:6288  00 00 3E          .db $00,$00,$3e,$66,$66,$3e,$06,$06     ;q
       01:628B  66 66 3E  
       01:628E  06 06     
   91  01:6290  00 00 D8          .db $00,$00,$d8,$fc,$e0,$c0,$c0,$00     ;r
       01:6293  FC E0 C0  
       01:6296  C0 00     
   92  01:6298  00 00 3C          .db $00,$00,$3c,$60,$38,$0c,$78,$00     ;s
       01:629B  60 38 0C  
       01:629E  78 00     
   93  01:62A0  30 30 78          .db $30,$30,$78,$30,$30,$30,$1c,$00     ;t
       01:62A3  30 30 30  
       01:62A6  1C 00     
   94  01:62A8  00 00 66          .db $00,$00,$66,$66,$66,$66,$3e,$00     ;u
       01:62AB  66 66 66  
       01:62AE  3E 00     
   95  01:62B0  00 00 C6          .db $00,$00,$c6,$c6,$6c,$38,$10,$00     ;v
       01:62B3  C6 6C 38  
       01:62B6  10 00     
   96  01:62B8  00 00 C6          .db $00,$00,$c6,$d6,$d6,$d6,$6c,$00     ;w
       01:62BB  D6 D6 D6  
       01:62BE  6C 00     
   97  01:62C0  00 00 C6          .db $00,$00,$c6,$6c,$10,$6c,$c6,$00     ;x
       01:62C3  6C 10 6C  
       01:62C6  C6 00     
   98  01:62C8  00 00 66          .db $00,$00,$66,$66,$66,$3e,$06,$3c     ;y
       01:62CB  66 66 3E  
       01:62CE  06 3C     
   99  01:62D0  00 00 FE          .db $00,$00,$fe,$0c,$38,$60,$fe,$00     ;z
       01:62D3  0C 38 60  
       01:62D6  FE 00     
  100  01:62D8  00 00 00          .db $00,$00,$00,$00,$00,$00,$00,$00     ;
       01:62DB  00 00 00  
       01:62DE  00 00     
  101  01:62E0  00 00 00          .db $00,$00,$00,$00,$00,$00,$00,$00     ;
       01:62E3  00 00 00  
       01:62E6  00 00     
  102  01:62E8  00 00 00          .db $00,$00,$00,$00,$00,$00,$00,$00     ;
       01:62EB  00 00 00  
       01:62EE  00 00     
  103  01:62F0  00 00 00          .db $00,$00,$00,$00,$00,$00,$00,$00     ;
       01:62F3  00 00 00  
       01:62F6  00 00     
  104  01:62F8  00 00 00          .db $00,$00,$00,$00,$00,$00,$00,$00     ;
       01:62FB  00 00 00  
       01:62FE  00 00     
  105                     
  106  01:6300            font_2:
  107  01:6300  00 00 00          .db $00,$00,$00,$00,$00,$00,$00,$00     ;SPACE
       01:6303  00 00 00  
       01:6306  00 00     
  108  01:6308  04 0C 0C          .db $04,$0c,$0c,$08,$08,$00,$10,$00     ;!
       01:630B  08 08 00  
       01:630E  10 00     
  109  01:6310  36 12 24          .db $36,$12,$24,$00,$00,$00,$00,$00     ;"
       01:6313  00 00 00  
       01:6316  00 00     
  110  01:6318  12 3F 12          .db $12,$3f,$12,$22,$24,$7e,$24,$00     ;#
       01:631B  22 24 7E  
       01:631E  24 00     
  111  01:6320  00 00 00          .db $00,$00,$00,$00,$00,$00,$00,$00     ;$
       01:6323  00 00 00  
       01:6326  00 00     
  112  01:6328  00 31 32          .db $00,$31,$32,$04,$18,$26,$46,$00     ;%
       01:632B  04 18 26  
       01:632E  46 00     
  113  01:6330  08 14 14          .db $08,$14,$14,$38,$4a,$44,$3a,$00     ;&
       01:6333  38 4A 44  
       01:6336  3A 00     
  114  01:6338  18 08 10          .db $18,$08,$10,$00,$00,$00,$00,$00     ;'
       01:633B  00 00 00  
       01:633E  00 00     
  115  01:6340  0C 10 20          .db $0c,$10,$20,$20,$20,$10,$08,$00     ;(
       01:6343  20 20 10  
       01:6346  08 00     
  116  01:6348  10 08 04          .db $10,$08,$04,$04,$04,$08,$30,$00     ;)
       01:634B  04 04 08  
       01:634E  30 00     
  117  01:6350  00 08 2A          .db $00,$08,$2a,$1c,$1c,$2a,$08,$00     ;*
       01:6353  1C 1C 2A  
       01:6356  08 00     
  118  01:6358  00 08 08          .db $00,$08,$08,$3e,$08,$08,$00,$00     ;+
       01:635B  3E 08 08  
       01:635E  00 00     
  119  01:6360  00 00 00          .db $00,$00,$00,$00,$60,$60,$20,$40     ;,
       01:6363  00 60 60  
       01:6366  20 40     
  120  01:6368  00 00 00          .db $00,$00,$00,$1e,$00,$00,$00,$00     ;-
       01:636B  1E 00 00  
       01:636E  00 00     
  121  01:6370  00 00 00          .db $00,$00,$00,$00,$00,$60,$60,$00     ;.
       01:6373  00 00 60  
       01:6376  60 00     
  122  01:6378  00 02 04          .db $00,$02,$04,$08,$10,$20,$40,$00     ;/
       01:637B  08 10 20  
       01:637E  40 00     
  123                     
  124  01:6380  1C 22 22          .db $1c,$22,$22,$42,$42,$44,$38,$00     ;0
       01:6383  42 42 44  
       01:6386  38 00     
  125  01:6388  0C 1C 04          .db $0c,$1c,$04,$08,$08,$08,$3c,$00     ;1
       01:638B  08 08 08  
       01:638E  3C 00     
  126  01:6390  1C 22 02          .db $1c,$22,$02,$0c,$30,$40,$7c,$00     ;2
       01:6393  0C 30 40  
       01:6396  7C 00     
  127  01:6398  1C 22 02          .db $1c,$22,$02,$0c,$02,$44,$38,$00     ;3
       01:639B  0C 02 44  
       01:639E  38 00     
  128  01:63A0  0E 12 24          .db $0e,$12,$24,$44,$7f,$08,$08,$00     ;4
       01:63A3  44 7F 08  
       01:63A6  08 00     
  129  01:63A8  1F 10 20          .db $1f,$10,$20,$3c,$02,$42,$3c,$00     ;5
       01:63AB  3C 02 42  
       01:63AE  3C 00     
  130  01:63B0  1E 21 20          .db $1e,$21,$20,$7c,$42,$42,$3c,$00     ;6
       01:63B3  7C 42 42  
       01:63B6  3C 00     
  131  01:63B8  3E 22 44          .db $3e,$22,$44,$04,$08,$08,$10,$00     ;7
       01:63BB  04 08 08  
       01:63BE  10 00     
  132  01:63C0  1C 22 22          .db $1c,$22,$22,$3c,$42,$42,$3c,$00     ;8
       01:63C3  3C 42 42  
       01:63C6  3C 00     
  133  01:63C8  1C 22 22          .db $1c,$22,$22,$1e,$02,$44,$38,$00     ;9
       01:63CB  1E 02 44  
       01:63CE  38 00     
  134  01:63D0  00 00 08          .db $00,$00,$08,$00,$00,$00,$10,$00     ;:
       01:63D3  00 00 00  
       01:63D6  10 00     
  135  01:63D8  00 00 08          .db $00,$00,$08,$00,$00,$00,$10,$20     ;;
       01:63DB  00 00 00  
       01:63DE  10 20     
  136  01:63E0  00 04 08          .db $00,$04,$08,$10,$10,$08,$04,$00     ;<
       01:63E3  10 10 08  
       01:63E6  04 00     
  137  01:63E8  00 00 00          .db $00,$00,$00,$1e,$00,$1e,$00,$00     ;=
       01:63EB  1E 00 1E  
       01:63EE  00 00     
  138  01:63F0  00 10 08          .db $00,$10,$08,$04,$04,$08,$10,$00     ;>
       01:63F3  04 04 08  
       01:63F6  10 00     
  139  01:63F8  1C 22 02          .db $1c,$22,$02,$04,$08,$00,$10,$00     ;?
       01:63FB  04 08 00  
       01:63FE  10 00     
  140                     
  141  01:6400  00 00 00          .db $00,$00,$00,$00,$00,$00,$00,$00     ;@
       01:6403  00 00 00  
       01:6406  00 00     
  142  01:6408  0E 12 12          .db $0e,$12,$12,$22,$3e,$42,$42,$00     ;A
       01:640B  22 3E 42  
       01:640E  42 00     
  143  01:6410  1C 12 22          .db $1c,$12,$22,$3c,$22,$42,$7c,$00     ;B
       01:6413  3C 22 42  
       01:6416  7C 00     
  144  01:6418  1C 22 22          .db $1c,$22,$22,$40,$40,$44,$38,$00     ;C
       01:641B  40 40 44  
       01:641E  38 00     
  145  01:6420  18 14 22          .db $18,$14,$22,$22,$42,$44,$f8,$00     ;D
       01:6423  22 42 44  
       01:6426  F8 00     
  146  01:6428  1E 10 20          .db $1e,$10,$20,$3c,$20,$40,$7c,$00     ;E
       01:642B  3C 20 40  
       01:642E  7C 00     
  147  01:6430  1E 10 20          .db $1e,$10,$20,$3c,$20,$40,$40,$00     ;F
       01:6433  3C 20 40  
       01:6436  40 00     
  148  01:6438  1C 22 20          .db $1c,$22,$20,$40,$47,$44,$38,$00     ;G
       01:643B  40 47 44  
       01:643E  38 00     
  149  01:6440  11 11 22          .db $11,$11,$22,$3e,$22,$44,$44,$00     ;H
       01:6443  3E 22 44  
       01:6446  44 00     
  150  01:6448  1E 08 08          .db $1e,$08,$08,$10,$10,$20,$f0,$00     ;I
       01:644B  10 10 20  
       01:644E  F0 00     
  151  01:6450  1E 04 04          .db $1e,$04,$04,$08,$88,$90,$60,$00     ;J
       01:6453  08 88 90  
       01:6456  60 00     
  152  01:6458  10 12 24          .db $10,$12,$24,$38,$28,$44,$44,$00     ;K
       01:645B  38 28 44  
       01:645E  44 00     
  153  01:6460  10 10 20          .db $10,$10,$20,$20,$20,$40,$7c,$00     ;L
       01:6463  20 20 40  
       01:6466  7C 00     
  154  01:6468  21 27 5A          .db $21,$27,$5a,$52,$42,$84,$84,$00     ;M
       01:646B  52 42 84  
       01:646E  84 00     
  155  01:6470  21 21 52          .db $21,$21,$52,$52,$4a,$84,$84,$00     ;N
       01:6473  52 4A 84  
       01:6476  84 00     
  156  01:6478  1C 22 22          .db $1c,$22,$22,$42,$42,$44,$38,$00     ;O
       01:647B  42 42 44  
       01:647E  38 00     
  157                     
  158  01:6480  1C 12 22          .db $1c,$12,$22,$3c,$20,$40,$40,$00     ;P
       01:6483  3C 20 40  
       01:6486  40 00     
  159  01:6488  1C 22 22          .db $1c,$22,$22,$42,$4a,$44,$34,$02     ;Q
       01:648B  42 4A 44  
       01:648E  34 02     
  160  01:6490  1C 12 22          .db $1c,$12,$22,$3c,$28,$48,$46,$00     ;R
       01:6493  3C 28 48  
       01:6496  46 00     
  161  01:6498  1C 22 20          .db $1c,$22,$20,$18,$04,$44,$38,$00     ;S
       01:649B  18 04 44  
       01:649E  38 00     
  162  01:64A0  3E 08 10          .db $3e,$08,$10,$10,$10,$20,$20,$00     ;T
       01:64A3  10 10 20  
       01:64A6  20 00     
  163  01:64A8  22 22 42          .db $22,$22,$42,$44,$44,$44,$38,$00     ;U
       01:64AB  44 44 44  
       01:64AE  38 00     
  164  01:64B0  42 44 44          .db $42,$44,$44,$48,$50,$50,$60,$00     ;V
       01:64B3  48 50 50  
       01:64B6  60 00     
  165  01:64B8  41 41 42          .db $41,$41,$42,$52,$52,$6c,$44,$00     ;W
       01:64BB  52 52 6C  
       01:64BE  44 00     
  166  01:64C0  22 24 18          .db $22,$24,$18,$18,$28,$44,$44,$00     ;X
       01:64C3  18 28 44  
       01:64C6  44 00     
  167  01:64C8  42 42 24          .db $42,$42,$24,$18,$10,$20,$20,$00     ;Y
       01:64CB  18 10 20  
       01:64CE  20 00     
  168  01:64D0  3E 02 04          .db $3e,$02,$04,$18,$20,$40,$7c,$00     ;Z
       01:64D3  18 20 40  
       01:64D6  7C 00     
  169  01:64D8  00 00 00          .db $00,$00,$00,$00,$00,$00,$00,$00     ;[
       01:64DB  00 00 00  
       01:64DE  00 00     
  170  01:64E0  00 00 00          .db $00,$00,$00,$00,$00,$00,$00,$00     ;\
       01:64E3  00 00 00  
       01:64E6  00 00     
  171  01:64E8  00 00 00          .db $00,$00,$00,$00,$00,$00,$00,$00     ;]
       01:64EB  00 00 00  
       01:64EE  00 00     
  172  01:64F0  00 00 00          .db $00,$00,$00,$00,$00,$00,$00,$00     ;^
       01:64F3  00 00 00  
       01:64F6  00 00     
  173  01:64F8  00 00 00          .db $00,$00,$00,$00,$00,$00,$3e,$00     ;_
       01:64FB  00 00 00  
       01:64FE  3E 00     
  174                     
  175  01:6500  00 10 18          .db $00,$10,$18,$18,$00,$00,$00,$00     ; 
       01:6503  18 00 00  
       01:6506  00 00     
  176  01:6508  00 1C 02          .db $00,$1c,$02,$3c,$44,$48,$34,$00     ;a
       01:650B  3C 44 48  
       01:650E  34 00     
  177  01:6510  00 08 08          .db $00,$08,$08,$1c,$12,$22,$3c,$00     ;b
       01:6513  1C 12 22  
       01:6516  3C 00     
  178  01:6518  00 00 1C          .db $00,$00,$1c,$22,$40,$40,$38,$00     ;c
       01:651B  22 40 40  
       01:651E  38 00     
  179  01:6520  00 02 02          .db $00,$02,$02,$3c,$44,$48,$38,$00     ;d
       01:6523  3C 44 48  
       01:6526  38 00     
  180  01:6528  00 00 1C          .db $00,$00,$1c,$22,$7e,$40,$38,$00     ;e
       01:652B  22 7E 40  
       01:652E  38 00     
  181  01:6530  00 06 08          .db $00,$06,$08,$3c,$10,$20,$20,$00     ;f
       01:6533  3C 10 20  
       01:6536  20 00     
  182  01:6538  00 00 3A          .db $00,$00,$3a,$44,$44,$38,$08,$70     ;g
       01:653B  44 44 38  
       01:653E  08 70     
  183  01:6540  00 08 08          .db $00,$08,$08,$1c,$12,$22,$24,$00     ;h
       01:6543  1C 12 22  
       01:6546  24 00     
  184  01:6548  00 04 00          .db $00,$04,$00,$08,$08,$10,$10,$00     ;i
       01:654B  08 08 10  
       01:654E  10 00     
  185  01:6550  00 02 00          .db $00,$02,$00,$04,$44,$48,$38,$00     ;j
       01:6553  04 44 48  
       01:6556  38 00     
  186  01:6558  00 10 12          .db $00,$10,$12,$24,$38,$48,$46,$00     ;k
       01:655B  24 38 48  
       01:655E  46 00     
  187  01:6560  00 0C 04          .db $00,$0c,$04,$08,$08,$10,$10,$00     ;l
       01:6563  08 08 10  
       01:6566  10 00     
  188  01:6568  00 00 2A          .db $00,$00,$2a,$15,$25,$29,$4a,$00     ;m
       01:656B  15 25 29  
       01:656E  4A 00     
  189  01:6570  00 00 2C          .db $00,$00,$2c,$12,$12,$24,$26,$00     ;n
       01:6573  12 12 24  
       01:6576  26 00     
  190  01:6578  00 00 0C          .db $00,$00,$0c,$12,$22,$24,$18,$00     ;o
       01:657B  12 22 24  
       01:657E  18 00     
  191                     
  192  01:6580  00 0E 09          .db $00,$0e,$09,$11,$1e,$20,$20,$00     ;p
       01:6583  11 1E 20  
       01:6586  20 00     
  193  01:6588  00 1E 22          .db $00,$1e,$22,$24,$1c,$08,$08,$00     ;q
       01:658B  24 1C 08  
       01:658E  08 00     
  194  01:6590  00 00 2C          .db $00,$00,$2c,$12,$10,$20,$20,$00     ;r
       01:6593  12 10 20  
       01:6596  20 00     
  195  01:6598  00 00 1C          .db $00,$00,$1c,$22,$18,$44,$38,$00     ;s
       01:659B  22 18 44  
       01:659E  38 00     
  196  01:65A0  00 08 3C          .db $00,$08,$3c,$10,$20,$20,$18,$00     ;t
       01:65A3  10 20 20  
       01:65A6  18 00     
  197  01:65A8  00 00 22          .db $00,$00,$22,$42,$44,$48,$34,$00     ;u
       01:65AB  42 44 48  
       01:65AE  34 00     
  198  01:65B0  00 00 22          .db $00,$00,$22,$24,$28,$28,$10,$00     ;v
       01:65B3  24 28 28  
       01:65B6  10 00     
  199  01:65B8  00 00 21          .db $00,$00,$21,$41,$49,$5a,$2c,$00     ;w
       01:65BB  41 49 5A  
       01:65BE  2C 00     
  200  01:65C0  00 00 11          .db $00,$00,$11,$0a,$0c,$14,$22,$00     ;x
       01:65C3  0A 0C 14  
       01:65C6  22 00     
  201  01:65C8  00 00 11          .db $00,$00,$11,$21,$22,$1e,$04,$38     ;y
       01:65CB  21 22 1E  
       01:65CE  04 38     
  202  01:65D0  00 00 3E          .db $00,$00,$3e,$04,$18,$20,$7c,$00     ;z
       01:65D3  04 18 20  
       01:65D6  7C 00     
  203  01:65D8  00 00 00          .db $00,$00,$00,$00,$00,$00,$00,$00     ;
       01:65DB  00 00 00  
       01:65DE  00 00     
  204  01:65E0  00 00 00          .db $00,$00,$00,$00,$00,$00,$00,$00     ;
       01:65E3  00 00 00  
       01:65E6  00 00     
  205  01:65E8  00 00 00          .db $00,$00,$00,$00,$00,$00,$00,$00     ;
       01:65EB  00 00 00  
       01:65EE  00 00     
  206  01:65F0  00 00 00          .db $00,$00,$00,$00,$00,$00,$00,$00     ;
       01:65F3  00 00 00  
       01:65F6  00 00     
  207  01:65F8  00 00 00          .db $00,$00,$00,$00,$00,$00,$00,$00     ;
       01:65FB  00 00 00  
       01:65FE  00 00     
#[2]   startup.asm
  151           E000              .code
  152           0001              .bank LIB2_BANK
  153           A600              .org  $A600
  154                     
  155                     
  156           6600              .data
  157           0003              .bank CONST_BANK,"Constants"
  158                     
  159           0000              .data
  160           0004              .bank DATA_BANK,"User Program"
  161           6000              .org  $6000
  162                     ;
  163                     ; place overlay array here
  164                     ; 50 entries, each containing
  165                     ; 2 bytes for start sector,
  166                     ; 2 bytes for # sectors
  167                     ;
  168  04:6000            ovlarray:       .ds     200
  169                     
  170                     
  171           A600              .code
  172           0000              .bank START_BANK,"Base Library 1"
  173                     
  174                     ; A little introduction to the boot sequence:
  175                     ;
  176                     ; A HuCard has its origin at bank 0, and is mapped at $E000
  177                     ; It needs to grab the interrupt vectors at $FFF6 and implement
  178                     ; implement handlers for them
  179                     ;
  180                     ; A CDROM will load at bank $80 ($68 for SCD), and the initial
  181                     ; loader will be mapped at $4000.  The current MagicKit sequence
  182                     ; also maps $C000 to this same bank.  However, the initial boot
  183                     ; sequence will execute at $4070, proceeding to load additional
  184                     ; code and data, and then jump to a post-boot section called
  185                     ; 'init_go'.  This is the point at which the loader explicitly
  186                     ; relinquishes the $4000 segment.  It should be noted that there
  187                     ; are library subroutines loaded as part of this initial segment,
  188                     ; and those routines are located in the $C000 range as well.
  189                     ;
  190                     ; Sectors are loaded, up to and including the first "DATA_BANK",
  191                     ; where the overlay array is stored - so that the CDROM error
  192                     ; overlay can be located and executed in the event of a CDROM
  193                     ; system version mismatch (ie. playing SCD games on CDROM)
  194                     ;
  195                     ; A second entry point is defined for overlays that are not
  196                     ; being booted (ie. they are loaded and executed from another
  197                     ; overlay).  This entry point is at $4000, after the segments
  198                     ; have all found their natural loading spots (ie. segment $68
  199                     ; for Super CDROMs).  This entry point maps the necessary
  200                     ; segments and resets the stack, without clearing memory or
  201                     ; performing other setup chores, and then maps and executes
  202                     ; _main() to run the module.  The user has no choice regarding
  203                     ; this function, although he can pass values through the global
  204                     ; variables which main() can use to decide what to do next.
  205                     ;
  206                     ; An additional "Hook" area has now been defined at $4028,
  207                     ; which is used at initial load time, in case a SCD overlay
  208                     ; program is run on plain CDROM hardware, and the author
  209                     ; wishes to override the default text error message by
  210                     ; loading and executing a plain CDROM program instead
  211                     ;
  212                         ; ----
  213                         ; interrupt vectors
  214                     
  215           0001             .if !(CDROM)
  216           FFF6              .org  $FFF6
  217                     
  218  00:FFF6  23 E1             .dw _irq2
  219  00:FFF8  2A E1             .dw _irq1
  220  00:FFFA  C7 E2             .dw _timer
  221  00:FFFC  14 E3             .dw _nmi
  222  00:FFFE  10 E0             .dw _reset
  223                            .endif   ; !(CDROM)
  224                     
  225                         ; ----
  226                         ; develo startup code
  227                     
  228           0000             .if (DEVELO)
  238                            .endif   ; (DEVELO)
  239                     
  240                     
  241                     ; ----
  242                     ; reset
  243                     ; ----
  244                     ; things start here
  245                     ; ----
  246                     
  247                         ; ----
  248                         ; CDROM re-map library bank
  249                         ;
  250                     ;
  251                     ; overlay entry point
  252                     ;
  253                     ; assume MMR0, MMR1, MMR6, MMR7 are set.
  254                     ; set others & reset stack pointer
  255                     ;
  256           0000             .if (CDROM)
  357                            .else            ; (ie. if HuCard...)
  358                     
  359           E010              .org  $E010
  360  00:E010            _reset:
  361  00:E010  78                sei                     ; disable interrupts 
  362  00:E011  D4                csh                     ; select the 7.16 MHz clock
  363  00:E012  D8                cld                     ; clear the decimal flag 
  364  00:E013  A2 FF             ldx   #$FF              ; initialize the stack pointer
  365  00:E015  9A                txs 
  366  00:E016  A9 FF             lda   #$FF              ; map the I/O bank in the first page
  367  00:E018  53 01             tam   #0
  368  00:E01A  A9 F8             lda   #$F8              ; and the RAM bank in the second page
  369  00:E01C  53 02             tam   #1
  370  00:E01E  9C 00 20          stz   $2000             ; clear all the RAM
  371  00:E021  73 00 20          tii   $2000,$2001,$1FFF
       00:E024  01 20 FF  
       00:E027  1F        
  372                     
  373                            .endif   ; (CDROM)
  374                     
  375                         ; ----
  376                         ; initialize the hardware
  377                     
  378  00:E028            _init:
  379           0000             .if (CDROM)
  384                            .else
  385  00:E028  9C 01 0C          stz   timer_ctrl        ; init timer
  386                            .endif   ; (CDROM)
  387                     
  388  00:E02B  20 42 E5          jsr   init_psg          ; init sound
  389  00:E02E  20 4B E4          jsr   init_vdc          ; init video
  390  00:E031  A9 1F             lda   #$1F              ; init joypad
  391  00:E033  8D 27 22          sta   joyena
  392                     
  393                         ; ----
  394                         ; initialize interrupt vectors
  395                     
  396           0000             .if  (CDROM)
  400                            .else
  401                     
  402  00:E036  A2 04             ldx   #4                ; user vector table
  403  00:E038  C2                cly
  404  00:E039  A9 22     .l2:    lda   #LOW(_rti)
  405  00:E03B  99 00 22          sta   user_jmptbl,Y
  406  00:E03E  C8                iny
  407  00:E03F  A9 E1             lda   #HIGH(_rti)
  408  00:E041  99 00 22          sta   user_jmptbl,Y
  409  00:E044  C8                iny
  410  00:E045  CA                dex
  411  00:E046  D0 F1             bne   .l2
  412                     
  413                             stw   #_reset,soft_reset ; soft reset
       00:E048  A9 10              lda    LOW_BYTE #_reset
       00:E04A  8D 84 22           sta    LOW_BYTE soft_reset
       00:E04D  A9 E0              lda    HIGH_BYTE #_reset
       00:E04F  8D 85 22           sta    HIGH_BYTE soft_reset
  414                             stw   #_rts,vsync_hook   ; user vsync routine
       00:E052  A9 21              lda    LOW_BYTE #_rts
       00:E054  8D 08 22           sta    LOW_BYTE vsync_hook
       00:E057  A9 E1              lda    HIGH_BYTE #_rts
       00:E059  8D 09 22           sta    HIGH_BYTE vsync_hook
  415                             stw   #_rts,hsync_hook   ; user hsync routine
       00:E05C  A9 21              lda    LOW_BYTE #_rts
       00:E05E  8D 0A 22           sta    LOW_BYTE hsync_hook
       00:E061  A9 E1              lda    HIGH_BYTE #_rts
       00:E063  8D 0B 22           sta    HIGH_BYTE hsync_hook
  416                     
  417  00:E066  A9 01             lda   #$01               ; enable interrupts
  418  00:E068  8D 02 14          sta   irq_disable
  419  00:E06B  9C 03 14          stz   irq_status
  420  00:E06E  58                cli
  421                     
  422                         ; ----
  423                         ; enable display and VSYNC interrupt
  424                     
  425                             vreg  #5
       00:E06F  A9 05              lda    #5
       00:E071  85 F7              sta    <vdc_reg
                0001               .if (2 = ARG_IMMED)
       00:E073  03 05               st0   #5
                                   .else
                                   .endif
  426  00:E075  A9 C8             lda   #$C8
  427  00:E077  85 F3             sta  <vdc_crl
  428  00:E079  8D 02 00          sta   video_data_l
  429  00:E07C  23 00             st2   #$00
  430  00:E07E  A9 01             lda   #$01
  431  00:E080  8D 8E 26          sta   disp_cr
  432                     
  433                            .endif   ; (CDROM)
  434                     
  435                         ; ----
  436                         ; init TIA instruction in RAM (fast BLiTter to hardware)
  437                     
  438  00:E083  A9 E3             lda   #$E3              ; TIA instruction opcode
  439  00:E085  8D CC 26          sta   _ram_hdwr_tia
  440  00:E088  A9 60             lda   #$60              ; RTS instruction opcode
  441  00:E08A  8D D3 26          sta   _ram_hdwr_tia_rts
  442                     
  443                         ; ----
  444                         ; init random number generator
  445                     
  446  00:E08D  A9 01             lda   #1
  447  00:E08F  20 39 FC          jsr   wait_vsync        ; wait for one frame & randomize _rndseed
  448                             stw   #$03E7,<_cx       ; set random seed
       00:E092  A9 E7              lda    LOW_BYTE #$03E7
       00:E094  85 FC              sta    LOW_BYTE <_cx
       00:E096  A9 03              lda    HIGH_BYTE #$03E7
       00:E098  85 FD              sta    HIGH_BYTE <_cx
  449                             stw   _rndseed,<_dx
       00:E09A  AD 43 27           lda    LOW_BYTE _rndseed
       00:E09D  85 FE              sta    LOW_BYTE <_dx
       00:E09F  AD 44 27           lda    HIGH_BYTE _rndseed
       00:E0A2  85 FF              sta    HIGH_BYTE <_dx
  450  00:E0A4  20 7B E7          jsr   srand
  451                     
  452           0000             .if (CDROM)
  546                            .endif   ; (CDROM)
  547                     
  548                         ; ----
  549                         ; jump to main routine
  550                     
  551                         ; ----
  552                         ; load font
  553                     
  554           0001             .ifdef HUC
  555                             stw   #$4000,<__sp      ; init stack ptr first
       00:E0A7  A9 00              lda    LOW_BYTE #$4000
       00:E0A9  85 00              sta    LOW_BYTE <__sp
       00:E0AB  A9 40              lda    HIGH_BYTE #$4000
       00:E0AD  85 01              sta    HIGH_BYTE <__sp
  556                     
  557                             stw   #FONT_VADDR,<_di  ; Load Font @ VRAM addr
       00:E0AF  A9 00              lda    LOW_BYTE #FONT_VADDR
       00:E0B1  85 F0              sta    LOW_BYTE <_di
       00:E0B3  A9 08              lda    HIGH_BYTE #FONT_VADDR
       00:E0B5  85 F1              sta    HIGH_BYTE <_di
  558                     
  559                             ;
  560                             ; this section of font loading was stolen
  561                             ; from _load_default_font because the default
  562                             ; FONT segment number is not yet guaranteed
  563                             ; if the SCD is being run on a plain CDROM system
  564                             ; so we need to trick the segment pointer
  565                             ; with a reliable one
  566                             ;
  567                           __ldw   <_di      ; stolen from _load_default_font
                0000              .if (1 = 2)
                                  .else
       00:E0B7  A6 F0              ldx    <_di
       00:E0B9  A5 F1              lda    <_di+1
                                  .endif
  568                                             ; because segment# default not reliable
  569                     
  570  00:E0BB  20 12 ED          jsr   _set_font_addr            ; set VRAM
  571                     
  572           0000             .if  (CDROM)
  575                            .else
  576                             stb   #FONT_BANK+_bank_base,<_bl
       00:E0BE  A9 01              lda    #FONT_BANK+_bank_base
       00:E0C0  85 FA              sta    <_bl
  577                            .endif
  578                     
  579                             stb   #96,<_cl
       00:E0C2  A9 60              lda    #96
       00:E0C4  85 FC              sta    <_cl
  580                             stb   _font_color+1,<_ah
       00:E0C6  AD 72 27           lda    _font_color+1
       00:E0C9  85 F9              sta    <_ah
  581  00:E0CB  AD 71 27          lda   _font_color
  582  00:E0CE  D0 01             bne   .fntld
  583  00:E0D0  1A                inc   A
  584  00:E0D1  85 F8     .fntld: sta   <_al
  585  00:E0D3  82                clx
  586  00:E0D4  BD 1B E3          lda   font_table,X
  587  00:E0D7  85 EE             sta   <_si
  588  00:E0D9  E8                inx
  589  00:E0DA  BD 1B E3          lda   font_table,X
  590  00:E0DD  85 EF             sta   <_si+1
  591                     
  592                     
  593                             ; Now, load the font
  594                             ;
  595                             ;   Note for CDROM/Super CDROM:
  596                             ;
  597                             ; The 'REAL' mapping for the lib2_load_font function
  598                             ; maybe doesn't exist yet (we are executing from bank $80,
  599                             ; not from $68 if it's a Super CDROM)
  600                             ;
  601                             ; So we must map the version at bank ($80 + LIB2_BANK)
  602                             ; before executing it.  We remap the bank after completion,
  603                             ; 'just in case'
  604                     
  605           0000             .if  (CDROM)
  613                            .else
  614  00:E0DF  20 B2 E3          jsr   load_font
  615                            .endif
  616                     
  617                             ;
  618                             ; END stolen font-load
  619                             ;
  620                     
  621  00:E0E2  20 C6 EC          jsr   _cls
  622                     
  623  00:E0E5  9C 02 04          stz  color_reg  ; set color #0 = 0/0/0 rgb
  624  00:E0E8  9C 03 04          stz  color_reg+1
  625  00:E0EB  9C 04 04          stz  color_data
  626  00:E0EE  9C 05 04          stz  color_data+1
  627                     
  628  00:E0F1  A9 01             lda  #1         ; set color #1 = 7/7/7 rgb
  629  00:E0F3  8D 02 04          sta  color_reg
  630  00:E0F6  9C 03 04          stz  color_reg+1
  631  00:E0F9  A2 FF             ldx  #$ff
  632  00:E0FB  8E 04 04          stx  color_data
  633  00:E0FE  8D 05 04          sta  color_data+1
  634                     
  635                         ; ----
  636                         ; Super CDROM error message
  637                         ; ----
  638                     
  639           0000              .if (CDROM)
  687                             .endif          ; (CDROM)
  688                            .endif           ; (HUC)
  689                     
  690                     
  691           0001             .ifdef SUPPORT_MOUSE
  692  00:E101  20 A0 FB          jsr  mousinit           ; check existence of mouse
  693                            .endif   ; SUPPORT_MOUSE
  694                     
  695           0000             .if  (CDROM)
  717                            .endif   ; (CDROM)
  718                     
  719           0001             .ifdef HUC
  720                         ; ----
  721                         ; Map the final stuff before executing main()
  722                         ; ----
  723                     
  724  00:E104  A9 03             lda   #CONST_BANK+_bank_base    ; map string constants bank
  725  00:E106  53 04             tam   #2                ; (ie. $4000-$5FFF)
  726  00:E108  A9 06             lda   #_call_bank       ; map call bank
  727  00:E10A  53 10             tam   #4                ; (ie. $8000-$9FFF)
  728                             ; ---
  729           0000              .if   (CDROM)
  732                             .endif
  733                             ; ---
  734  00:E10C  9C 8F 26          stz   clock_hh          ; clear clock
  735  00:E10F  9C 90 26          stz   clock_mm
  736  00:E112  9C 91 26          stz   clock_ss
  737  00:E115  9C 92 26          stz   clock_tt
  738                     
  739                             map   _main
       00:E118  A9 05              lda   #bank(_main)        ; addressable memory
       00:E11A  53 20              tam   #page(_main)
  740  00:E11C  20 00 A0          jsr   _main             ; go!
  741  00:E11F  80 FE             bra   *
  742                            .else
  745                            .endif   ; HUC
  746                     
  747                     
  748                     ; ----
  749                     ; system
  750                     ; ----
  751                     ; give back control to the Develo system
  752                     ; ----
  753                     
  754           0000             .if (DEVELO)
  790                            .endif   ; (DEVELO)
  791                     
  792                     ;[ INTERRUPT CODE ]
  793                     
  794  00:E121            _rts:
  795  00:E121  60                rts
  796  00:E122            _rti:
  797  00:E122  40                rti
  798                     
  799                     ; ----
  800                     ; irq2
  801                     ; ----
  802                     ; IRQ2 interrupt handler
  803                     ; ----
  804                     
  805           0001             .if !(CDROM)
  806  00:E123            _irq2:
  807  00:E123  8F F5 01          bbs0 <irq_m,.user
  808  00:E126  40                rti
  809  00:E127            .user:
  810  00:E127  6C 00 22          jmp   [irq2_jmp]
  811                            .endif   ; !(CDROM)
  812                     
  813                     ; ----
  814                     ; irq1
  815                     ; ----
  816                     ; VDC interrupt handler
  817                     ; ----
  818                     
  819           0001             .if !(CDROM)
  820                     
  821  00:E12A            _irq1:
  822  00:E12A  9F F5 39          bbs1 <irq_m,user_irq1   ; jump to the user irq1 vector if bit set
  823                             ; --
  824  00:E12D  48                pha                     ; save registers
  825  00:E12E  DA                phx
  826  00:E12F  5A                phy
  827                             ; --
  828  00:E130  AD 00 00          lda   video_reg         ; get VDC status register
  829  00:E133  85 F6             sta  <vdc_sr            ; save a copy
  830                     
  831                         ; ----
  832                         ; vsync interrupt
  833                         ;
  834  00:E135            .vsync:
  835  00:E135  5F F6 16          bbr5 <vdc_sr,.hsync
  836                             ; --
  837  00:E138  EE 41 22          inc   irq_cnt           ; increment IRQ counter
  838                             ; --
  839  00:E13B  03 05             st0   #5                ; update display control (bg/sp)
  840  00:E13D  A5 F3             lda  <vdc_crl
  841  00:E13F  8D 02 00          sta   video_data_l
  842                             ; --
  843  00:E142  DF F5 03          bbs5 <irq_m,.l3
  844                             ; --
  845  00:E145  20 6F E1          jsr  _vsync_hndl
  846                             ; --
  847  00:E148  4F F5 03  .l3:    bbr4 <irq_m,.l4
  848  00:E14B  20 6C E1          jsr  user_vsync         ; call user vsync routine
  849  00:E14E            .l4:
  850                         ; ----
  851                         ; hsync interrupt
  852                         ;
  853  00:E14E            .hsync:
  854  00:E14E  2F F6 0C          bbr2 <vdc_sr,.exit
  855  00:E151  FF F5 03          bbs7 <irq_m,.l5
  856                             ; --
  857  00:E154  20 D1 E1          jsr  _hsync_hndl
  858                             ; --
  859  00:E157  6F F5 03  .l5:    bbr6 <irq_m,.exit
  860  00:E15A  20 69 E1          jsr  user_hsync         ; call user handler
  861                     
  862                         ; ----
  863                         ; exit interrupt
  864                         ;
  865  00:E15D            .exit:
  866  00:E15D  A5 F7             lda  <vdc_reg           ; restore VDC register index
  867  00:E15F  8D 00 00          sta   video_reg
  868                             ; --
  869  00:E162  7A                ply
  870  00:E163  FA                plx
  871  00:E164  68                pla
  872  00:E165  40                rti
  873                     
  874                         ; ----
  875                         ; user routine hooks
  876                         ;
  877  00:E166            user_irq1:
  878  00:E166  6C 02 22          jmp   [irq1_jmp]
  879  00:E169            user_hsync:
  880  00:E169  6C 0A 22          jmp   [hsync_hook]
  881  00:E16C            user_vsync:
  882  00:E16C  6C 08 22          jmp   [vsync_hook]
  883                     
  884                            .endif   ; !(CDROM)
  885                     
  886                     
  887                     ; ----
  888                     ; _vsync_hndl
  889                     ; ----
  890                     ; Handle VSYNC interrupts
  891                     ; ----
  892  00:E16F            _vsync_hndl:
  893           0001             .if  !(CDROM)
  894  00:E16F  AE 8E 26          ldx   disp_cr           ; check display state (on/off)
  895  00:E172  D0 09             bne  .l1
  896  00:E174  29 3F             and   #$3F              ; disable display
  897  00:E176  03 05             st0   #5                ; update display control (bg/sp)
  898  00:E178  8D 02 00          sta   video_data_l
  899  00:E17B  80 03             bra  .l2
  900                             ; --    
  901                            .endif
  902  00:E17D  20 22 E2  .l1:    jsr   rcr_init          ; init display list
  903                     
  904  00:E180  03 07     .l2:    st0   #7                ; scrolling
  905                             stw   bg_x1,video_data
       00:E182  AD 0C 22           lda    LOW_BYTE bg_x1
       00:E185  8D 02 00           sta    LOW_BYTE video_data
       00:E188  AD 0D 22           lda    HIGH_BYTE bg_x1
       00:E18B  8D 03 00           sta    HIGH_BYTE video_data
  906  00:E18E  03 08             st0   #8
  907                             stw   bg_y1,video_data
       00:E190  AD 10 22           lda    LOW_BYTE bg_y1
       00:E193  8D 02 00           sta    LOW_BYTE video_data
       00:E196  AD 11 22           lda    HIGH_BYTE bg_y1
       00:E199  8D 03 00           sta    HIGH_BYTE video_data
  908                     
  909                             ; --
  910  00:E19C  AD 92 26          lda   clock_tt          ; keep track of time
  911  00:E19F  1A                inc   A
  912  00:E1A0  C9 3C             cmp   #60
  913  00:E1A2  D0 1C             bne   .lcltt
  914  00:E1A4  AD 91 26          lda   clock_ss
  915  00:E1A7  1A                inc   A
  916  00:E1A8  C9 3C             cmp   #60
  917  00:E1AA  D0 10             bne   .lclss
  918  00:E1AC  AD 90 26          lda   clock_mm
  919  00:E1AF  1A                inc   A
  920  00:E1B0  C9 3C             cmp   #60
  921  00:E1B2  D0 04             bne   .lclmm
  922  00:E1B4  EE 8F 26          inc   clock_hh
  923  00:E1B7  62                cla
  924  00:E1B8  8D 90 26  .lclmm: sta   clock_mm
  925  00:E1BB  62                cla
  926  00:E1BC  8D 91 26  .lclss: sta   clock_ss
  927  00:E1BF  62                cla
  928  00:E1C0  8D 92 26  .lcltt: sta   clock_tt
  929                             ; --
  930                     
  931           0000             .if  (CDROM)
  940                            .endif
  941                     
  942           0001             .ifdef SUPPORT_MOUSE
  943  00:E1C3  AD 84 29          lda   msflag            ; if mouse supported, and exists
  944  00:E1C6  F0 05             beq  .l3                ; then read mouse instead of pad
  945  00:E1C8  20 B2 FB          jsr   mousread
  946  00:E1CB  80 03             bra  .out
  947                            .endif   ; SUPPORT_MOUSE
  948                     
  949  00:E1CD  20 AC FC  .l3:    jsr   read_joypad       ; else read joypad
  950  00:E1D0  60        .out:   rts
  951                     
  952                     
  953                     ; ----
  954                     ; _hsync_hndl
  955                     ; ----
  956                     ; Handle HSYNC interrupts
  957                     ; ----
  958                         ; ----
  959                         ; hsync scrolling handler
  960                         ;
  961  00:E1D1            _hsync_hndl:
  962  00:E1D1  AC FC 26          ldy   s_idx
  963  00:E1D4  10 13             bpl  .r1
  964                             ; --
  965  00:E1D6  A5 F3             lda  <vdc_crl
  966  00:E1D8  29 3F             and   #$3F
  967  00:E1DA  85 F3             sta  <vdc_crl
  968  00:E1DC  9C FC 26          stz   s_idx
  969  00:E1DF  AE 36 27          ldx   s_list
  970  00:E1E2  BD 25 27          lda   s_top,X
  971  00:E1E5  20 8A E2          jsr   rcr5
  972  00:E1E8  60                rts
  973                             ; --
  974  00:E1E9  BE 36 27  .r1:    ldx   s_list,Y
  975  00:E1EC  A5 F3             lda  <vdc_crl
  976  00:E1EE  29 3F             and   #$3F
  977  00:E1F0  1D 1D 27          ora   s_cr,X
  978  00:E1F3  85 F3             sta  <vdc_crl
  979                             ; --
  980  00:E1F5  20 64 E2          jsr   rcr_set
  981                             ; --
  982  00:E1F8  BD 25 27          lda   s_top,X
  983  00:E1FB  C9 FF             cmp   #$FF
  984  00:E1FD  F0 22             beq  .out
  985                             ; --
  986  00:E1FF  03 07             st0   #7
  987  00:E201  BD FD 26          lda   s_xl,X
  988  00:E204  BC 05 27          ldy   s_xh,X
  989  00:E207  8D 02 00          sta   video_data_l
  990  00:E20A  8C 03 00          sty   video_data_h
  991  00:E20D  03 08             st0   #8
  992  00:E20F  BD 0D 27          lda   s_yl,X
  993  00:E212  BC 15 27          ldy   s_yh,X
  994                             sub   #1
                0000              .if (1 = 2)            ; from register A (handle
                                  .else
       00:E215  38                 sec
       00:E216  E9 01              sbc    #1
                                  .endif
  995  00:E218  B0 01             bcs  .r2
  996  00:E21A  88                dey
  997  00:E21B  8D 02 00  .r2:    sta   video_data_l
  998  00:E21E  8C 03 00          sty   video_data_h
  999  00:E221  60        .out:   rts
 1000                     
 1001                         ; ----
 1002                         ; init display list
 1003                         ;
 1004  00:E222            rcr_init:
 1005                             maplibfunc   build_disp_list
       00:E222  A8                 tay
       00:E223  43 20              tma  #page(build_disp_list)
       00:E225  48                 pha
       00:E226  A9 01              lda  #bank(build_disp_list)
       00:E228  53 20              tam  #page(build_disp_list)
       00:E22A  98                 tya
       00:E22B  20 5E AA           jsr  build_disp_list
       00:E22E  A8                 tay
       00:E22F  68                 pla
       00:E230  53 20              tam  #page(build_disp_list)
       00:E232  98                 tya
 1006  00:E233  B0 01             bcs  .r3
 1007  00:E235  60                rts
 1008                             ; --
 1009  00:E236  F7 F3     .r3:    smb   #7,<vdc_crl
 1010  00:E238  A9 FF             lda   #$FF
 1011  00:E23A  8D FC 26          sta   s_idx
 1012  00:E23D  AE 36 27          ldx   s_list
 1013  00:E240  BC 25 27          ldy   s_top,X
 1014  00:E243  C0 FF             cpy   #$FF
 1015  00:E245  D0 43             bne   rcr5
 1016                             ; --
 1017  00:E247  BC FD 26          ldy   s_xl,X
 1018  00:E24A  8C 0C 22          sty   bg_x1
 1019  00:E24D  BC 05 27          ldy   s_xh,X
 1020  00:E250  8C 0D 22          sty   bg_x1+1
 1021  00:E253  BC 0D 27          ldy   s_yl,X
 1022  00:E256  8C 10 22          sty   bg_y1
 1023  00:E259  BC 15 27          ldy   s_yh,X
 1024  00:E25C  8C 11 22          sty   bg_y1+1
 1025  00:E25F  9C FC 26          stz   s_idx
 1026  00:E262  80 26             bra   rcr5
 1027                     
 1028                         ; ----
 1029                         ; program scanline interrupt
 1030                         ;
 1031  00:E264            rcr_set:
 1032  00:E264  C8                iny
 1033  00:E265  8C FC 26          sty   s_idx
 1034  00:E268  B9 36 27          lda   s_list,Y
 1035  00:E26B  A8                tay
 1036  00:E26C  B9 25 27          lda   s_top,Y
 1037  00:E26F  CD DA 26          cmp   scr_height
 1038                             bhs   rcr6
       00:E272  B0 26              bcs    rcr6
 1039  00:E274  DD 2E 27          cmp   s_bottom,X
 1040                             blo   rcr5
       00:E277  90 11              bcc    rcr5
 1041                             ; --
 1042  00:E279  BD 2E 27          lda   s_bottom,X
 1043  00:E27C  3A        rcr4:   dec   A
 1044  00:E27D  48                pha
 1045  00:E27E  A9 F0             lda   #$F0
 1046  00:E280  9D 2E 27          sta   s_bottom,X
 1047  00:E283  9E 1D 27          stz   s_cr,X
 1048  00:E286  CE FC 26          dec   s_idx
 1049  00:E289  68                pla
 1050                             ; --
 1051  00:E28A  03 06     rcr5:   st0   #6                ; set scanline counter
 1052                             add   #64
                0000              .if (1 = 2)            ; register A (handle carry
                                  .else
       00:E28C  18                 clc
       00:E28D  69 40              adc    #64
                                  .endif
 1053  00:E28F  8D 02 00          sta   video_data_l
 1054  00:E292  62                cla
 1055  00:E293  69 00             adc   #0
 1056  00:E295  8D 03 00          sta   video_data_h
 1057  00:E298  80 0E             bra   __rcr_on
 1058                             ;--
 1059  00:E29A  BD 2E 27  rcr6:   lda   s_bottom,X
 1060  00:E29D  CD DA 26          cmp   scr_height
 1061                             blo   rcr4
       00:E2A0  90 DA              bcc    rcr4
 1062  00:E2A2  80 14             bra   __rcr_off
 1063                     
 1064                     ; ----
 1065                     ; rcr_on
 1066                     ; ----
 1067                     ; enable scanline interrupt
 1068                     ; ----
 1069                     
 1070  00:E2A4              rcr_on:
 1071  00:E2A4             _rcr_on:
 1072  00:E2A4  A9 05             lda   #5
 1073  00:E2A6  85 F7             sta  <vdc_reg
 1074  00:E2A8            __rcr_on:
 1075  00:E2A8  03 05             st0   #5
 1076  00:E2AA  A5 F3             lda  <vdc_crl
 1077  00:E2AC  09 04             ora   #$04
 1078  00:E2AE  85 F3             sta  <vdc_crl
 1079  00:E2B0  8D 02 00          sta   video_data_l
 1080  00:E2B3  60                rts
 1081                     
 1082                     ; ----
 1083                     ; rcr_off
 1084                     ; ----
 1085                     ; disable scanline interrupt
 1086                     ; ----
 1087                     
 1088  00:E2B4              rcr_off:
 1089  00:E2B4             _rcr_off:
 1090  00:E2B4  A9 05             lda   #5
 1091  00:E2B6  85 F7             sta  <vdc_reg
 1092  00:E2B8            __rcr_off:
 1093  00:E2B8  03 05             st0   #5
 1094  00:E2BA  A5 F3             lda  <vdc_crl
 1095  00:E2BC  29 FB             and   #$FB
 1096  00:E2BE  85 F3             sta  <vdc_crl
 1097  00:E2C0  8D 02 00          sta   video_data_l
 1098  00:E2C3  60                rts
 1099                     
 1100                     
 1101                     
 1102                     ; ----
 1103                     ; timer
 1104                     ; ----
 1105                     ; timer interrupt handler
 1106                     ; ----
 1107                     
 1108           0001             .if  !(CDROM)
 1109  00:E2C4            _timer_user:
 1110  00:E2C4  6C 04 22          jmp   [timer_jmp]
 1111  00:E2C7            _timer:
 1112  00:E2C7  AF F5 FA          bbs2 <irq_m,_timer_user
 1113  00:E2CA  48                pha
 1114  00:E2CB  DA                phx
 1115  00:E2CC  5A                phy
 1116                     
 1117  00:E2CD  8D 03 14          sta   irq_status        ; acknowledge interrupt
 1118                     
 1119  00:E2D0  A5 E6             lda   <psg_irqflag      ; is IRQ being serviced ?
 1120  00:E2D2  D0 0B             bne   .exit
 1121                     
 1122  00:E2D4  E6 E6             inc   <psg_irqflag      ; IRQ being serviced
 1123  00:E2D6  58                cli                     ; but allow other interrupts to be processed
 1124                     
 1125  00:E2D7  A5 E7             lda   <psg_inhibit      ; if sound off, don't bother
 1126  00:E2D9  D0 02             bne   .exit2
 1127                     
 1128  00:E2DB  44 06             bsr   psg_driver        ; do all sound-related stuff
 1129                     
 1130  00:E2DD  64 E6     .exit2: stz   <psg_irqflag      ; allow IRQ processing again
 1131  00:E2DF  7A        .exit:  ply
 1132  00:E2E0  FA                plx
 1133  00:E2E1  68                pla
 1134  00:E2E2  40                rti
 1135                     
 1136  00:E2E3            psg_driver:
 1137  00:E2E3  43 40             tma   #page(psg_drive)  ; map out the code segment
 1138  00:E2E5  48                pha
 1139  00:E2E6  A9 02             lda   #bank(psg_drive)
 1140  00:E2E8  53 40             tam   #page(psg_drive)
 1141                     
 1142  00:E2EA  43 10             tma   #4                ; save data banks
 1143  00:E2EC  48                pha
 1144  00:E2ED  43 08             tma   #3
 1145  00:E2EF  48                pha
 1146                     
 1147  00:E2F0  AD E1 22          lda   psg_bank1         ; map PSG data banks
 1148  00:E2F3  53 08             tam   #3
 1149  00:E2F5  AD E2 22          lda   psg_bank2
 1150  00:E2F8  53 10             tam   #4
 1151                     
 1152  00:E2FA  20 0B C2          jsr   psg_drive
 1153                     
 1154  00:E2FD  AD D0 22          lda   psg_tempo
 1155  00:E300  30 08             bmi   .noreset
 1156                     
 1157  00:E302  8D 00 0C          sta   timer_cnt
 1158  00:E305  09 80             ora   #$80
 1159  00:E307  8D D0 22          sta   psg_tempo
 1160                     
 1161  00:E30A            .noreset:
 1162  00:E30A  68                pla                     ; restore data banks
 1163  00:E30B  53 08             tam   #3
 1164  00:E30D  68                pla
 1165  00:E30E  53 10             tam   #4
 1166                     
 1167  00:E310  68                pla
 1168  00:E311  53 40             tam   #page(psg_drive)  ; restore code bank
 1169  00:E313  60                rts
 1170                     
 1171                            .endif   ; !(CDROM)
 1172                     
 1173                     ; ----
 1174                     ; nmi
 1175                     ; ----
 1176                     ; NMI interrupt handler
 1177                     ; ----
 1178                     
 1179           0001             .if  !(CDROM)
 1180  00:E314            _nmi:
 1181  00:E314  BF F5 01          bbs3 <irq_m,.user
 1182  00:E317  40                rti
 1183  00:E318            .user:
 1184  00:E318  6C 06 22          jmp   [nmi_jmp]
 1185                     
 1186                            .endif   ; !(CDROM)
 1187                     
 1188                     
 1189                     ;[ DATA ]
 1190                     
 1191                     ; ----
 1192                     ; font
 1193                     ; ----
 1194                     
 1195           0001              .ifdef HUC
 1196  00:E31B            font_table:
 1197  00:E31B  00 60              .dw font_1
 1198  00:E31D  00 63              .dw font_2
 1199  00:E31F  00 60              .dw font_1
 1200  00:E321  00 60              .dw font_1
 1201                     
 1202                             .endif  ; HUC
 1203                     
 1204                     
 1205                     ;[ LIBRARY ]
 1206                     
 1207                     ; ----
 1208                     ; standard library
 1209                     ; ----
 1210                     
#[3]   library.asm
 1211                             .include "library.asm"
    1                     ;
    2                     ; LIBRARY.ASM  -  MagicKit Standard Library
    3                     ;
    4                     ;
    5                     
    6                     ; IMPORTANT NOTE:
    7                     ; ----
    8                     ; almost all the library functions have been changed to automaticaly
    9                     ; handle bank mapping (you don't have to map data yourself anymore),
   10                     ; the change will be transparent to you if you were using only library
   11                     ; macros to call functions, but you will have to update your code
   12                     ; in case you were directly calling those functions!
   13                     
   14                     
   15                     ; ----
   16                     ; map_data
   17                     ; ----
   18                     ; map data in page 3-4 ($6000-$9FFF)
   19                     ; ----
   20                     ; IN :  _BL = data bank
   21                     ;       _SI = data address
   22                     ; ----
   23                     ; OUT:  _BX = old banks
   24                     ;       _SI = remapped data address
   25                     ; ----
   26                     
   27  00:E323            map_data:
   28  00:E323  A6 FA             ldx   <_bl
   29                     
   30                         ; ----
   31                         ; save current bank mapping
   32                         ;
   33  00:E325  43 08             tma   #3
   34  00:E327  85 FA             sta   <_bl
   35  00:E329  43 10             tma   #4
   36  00:E32B  85 FB             sta   <_bh
   37                             ; --
   38  00:E32D  E0 FE             cpx   #$FE
   39  00:E32F  D0 03             bne   .l1
   40                             ; --
   41  00:E331  86 EC             stx   <_bp
   42  00:E333  60                rts
   43                     
   44                         ; ----
   45                         ; map new bank
   46                         ;
   47  00:E334  64 EC     .l1:    stz   <_bp
   48                             ; --
   49  00:E336  8A                txa
   50  00:E337  53 08             tam   #3
   51  00:E339  1A                inc   A
   52  00:E33A  53 10             tam   #4
   53                     
   54                         ; ----
   55                         ; remap data address to page 3
   56                         ;
   57  00:E33C  A5 EF             lda   <_si+1
   58  00:E33E  29 1F             and   #$1F
   59  00:E340  09 60             ora   #$60
   60  00:E342  85 EF             sta   <_si+1
   61  00:E344  60                rts
   62                     
   63                     
   64                     ; ----
   65                     ; unmap_data
   66                     ; ----
   67                     ; IN :  _BX = old banks
   68                     ; ----
   69                     
   70  00:E345            unmap_data:
   71                     
   72  00:E345  A5 FA             lda     <_bl
   73  00:E347  53 08             tam     #3
   74  00:E349  A5 FB             lda     <_bh
   75  00:E34B  53 10             tam     #4
   76  00:E34D  60                rts
   77                     
   78                     ; ----
   79                     ; remap_data
   80                     ; ----
   81                     
   82  00:E34E            remap_data:
   83  00:E34E  A5 EC             lda   <_bp
   84  00:E350  D0 10             bne   .l1
   85  00:E352  A5 EF             lda   <_si+1
   86  00:E354  10 0C             bpl   .l1
   87                             sub   #$20
                0000              .if (1 = 2)            ; from register A (handle
                                  .else
       00:E356  38                 sec
       00:E357  E9 20              sbc    #$20
                                  .endif
   88  00:E359  85 EF             sta   <_si+1
   89  00:E35B  43 10             tma   #4
   90  00:E35D  53 08             tam   #3
   91  00:E35F  1A                inc   A
   92  00:E360  53 10             tam   #4
   93  00:E362            .l1:
   94  00:E362  60                rts
   95                     
   96                     
   97                     ; ----
   98                     ; load_palette
   99                     ; ----
  100                     ; initialize one or more sub-palette
  101                     ; ----
  102                     ; IN :  _AL = index of the first sub-palette (0-31)
  103                     ;       _BL = data bank
  104                     ;       _SI = address of data
  105                     ;       _CL = number of sub-palette to copy
  106                     ; ----
  107                     
  108           0001              .ifdef HUC
  109  00:E363            _load_palette.3:
  110                             .endif
  111  00:E363             load_palette:
  112                             maplibfunc      lib2_load_palette
       00:E363  A8                 tay
       00:E364  43 20              tma  #page(lib2_load_palette)
       00:E366  48                 pha
       00:E367  A9 01              lda  #bank(lib2_load_palette)
       00:E369  53 20              tam  #page(lib2_load_palette)
       00:E36B  98                 tya
       00:E36C  20 00 A6           jsr  lib2_load_palette
       00:E36F  A8                 tay
       00:E370  68                 pla
       00:E371  53 20              tam  #page(lib2_load_palette)
       00:E373  98                 tya
  113  00:E374  60                rts
  114                     
  115           0001              .bank   LIB2_BANK
  116  01:A600            lib2_load_palette:
  117                     
  118                         ; ----
  119                         ; map data
  120                         ;
  121  01:A600  20 23 E3          jsr   map_data
  122                     
  123                         ; ----
  124                         ; multiply the sub-palette index by 16
  125                         ; and set the VCE color index register
  126                         ;
  127  01:A603  A5 F8             lda   <_al
  128  01:A605  64 F9             stz   <_ah
  129  01:A607  0A                asl   A
  130  01:A608  0A                asl   A
  131  01:A609  0A                asl   A
  132  01:A60A  0A                asl   A
  133  01:A60B  26 F9             rol   <_ah
  134  01:A60D  8D 02 04          sta   color_reg_l
  135  01:A610  A5 F9             lda   <_ah
  136  01:A612  8D 03 04          sta   color_reg_h
  137                     
  138                         ; ----
  139                         ; load new colors
  140                         ;
  141                     
  142                     ; Use TIA, but BLiT 16 words at a time (32 bytes)
  143                     ; Because interrupt must not be deferred too much
  144                     ;
  145                             stw   #32, _ram_hdwr_tia_size
       01:A615  A9 20              lda    LOW_BYTE #32
       01:A617  8D D1 26           sta    LOW_BYTE _ram_hdwr_tia_size
       01:A61A  A9 00              lda    HIGH_BYTE #32
       01:A61C  8D D2 26           sta    HIGH_BYTE _ram_hdwr_tia_size
  146                             stw   #color_data, _ram_hdwr_tia_dest
       01:A61F  A9 04              lda    LOW_BYTE #color_data
       01:A621  8D CF 26           sta    LOW_BYTE _ram_hdwr_tia_dest
       01:A624  A9 04              lda    HIGH_BYTE #color_data
       01:A626  8D D0 26           sta    HIGH_BYTE _ram_hdwr_tia_dest
  147                     
  148  01:A629            .loop_a:
  149                             stw   <_si, _ram_hdwr_tia_src
       01:A629  A5 EE              lda    LOW_BYTE <_si
       01:A62B  8D CD 26           sta    LOW_BYTE _ram_hdwr_tia_src
       01:A62E  A5 EF              lda    HIGH_BYTE <_si
       01:A630  8D CE 26           sta    HIGH_BYTE _ram_hdwr_tia_src
  150  01:A633  20 CC 26          jsr   _ram_hdwr_tia
  151                             addw  #32, <_si
                0000              .if     (2 = 3)
                                  .else
                                   ; 2-arg mode
                                   ;
       01:A636  18                 clc
       01:A637  A5 EE              lda    LOW_BYTE <_si
       01:A639  69 20              adc    LOW_BYTE #32
       01:A63B  85 EE              sta    LOW_BYTE <_si
       01:A63D  A5 EF              lda    HIGH_BYTE <_si
       01:A63F  69 00              adc    HIGH_BYTE #32
       01:A641  85 EF              sta    HIGH_BYTE <_si
                                  .endif
  152  01:A643  C6 FC             dec   <_cl
  153  01:A645  D0 E2             bne   .loop_a
  154                     
  155                         ; ----
  156                         ; unmap data
  157                         ;
  158  01:A647  4C 45 E3          jmp   unmap_data
  159                     
  160           0000              .bank   LIB1_BANK
  161                     
  162                     
  163                     ; ----
  164                     ; load_bat
  165                     ; ----
  166                     ; transfer a BAT in VRAM
  167                     ; ----
  168                     ; IN :  _DI = VRAM base address
  169                     ;       _BL = BAT bank
  170                     ;       _SI = BAT memory location
  171                     ;       _CL = nb of column to copy
  172                     ;       _CH = nb of row
  173                     ; ----
  174                     
  175           0001              .ifdef HUC
  176  00:E375            _load_bat.4:
  177                             .endif
  178  00:E375             load_bat:
  179                             maplibfunc      lib2_load_bat
       00:E375  A8                 tay
       00:E376  43 20              tma  #page(lib2_load_bat)
       00:E378  48                 pha
       00:E379  A9 01              lda  #bank(lib2_load_bat)
       00:E37B  53 20              tam  #page(lib2_load_bat)
       00:E37D  98                 tya
       00:E37E  20 4A A6           jsr  lib2_load_bat
       00:E381  A8                 tay
       00:E382  68                 pla
       00:E383  53 20              tam  #page(lib2_load_bat)
       00:E385  98                 tya
  180  00:E386  60                rts
  181                     
  182           0001              .bank   LIB2_BANK
  183                     
  184  01:A64A            lib2_load_bat:
  185                     
  186                         ; ----
  187                         ; map data
  188                         ;
  189  01:A64A  20 23 E3          jsr   map_data
  190                     
  191                         ; ----
  192                         ; copy BAT
  193                         ;
  194  01:A64D  C2                cly
  195                             ; --
  196  01:A64E  20 09 E4  .l1:    jsr   set_write
  197  01:A651  A6 FC             ldx   <_cl
  198                             ; --
  199  01:A653  B1 EE     .l2:    lda   [_si],Y
  200  01:A655  8D 02 00          sta   video_data_l
  201  01:A658  C8                iny
  202  01:A659  B1 EE             lda   [_si],Y
  203  01:A65B  8D 03 00          sta   video_data_h
  204  01:A65E  C8                iny
  205  01:A65F  D0 02             bne   .l3
  206  01:A661  E6 EF             inc   <_si+1
  207  01:A663  CA        .l3:    dex
  208  01:A664  D0 ED             bne   .l2
  209                             ; --
  210  01:A666  20 4E E3          jsr   remap_data
  211                             ; --
  212                             addw  bat_width,<_di
                0000              .if     (2 = 3)
                                  .else
                                   ; 2-arg mode
                                   ;
       01:A669  18                 clc
       01:A66A  A5 F0              lda    LOW_BYTE <_di
       01:A66C  6D D4 26           adc    LOW_BYTE bat_width
       01:A66F  85 F0              sta    LOW_BYTE <_di
       01:A671  A5 F1              lda    HIGH_BYTE <_di
       01:A673  6D D5 26           adc    HIGH_BYTE bat_width
       01:A676  85 F1              sta    HIGH_BYTE <_di
                                  .endif
  213  01:A678  C6 FD             dec   <_ch
  214  01:A67A  D0 D2             bne   .l1
  215                     
  216                         ; ----
  217                         ; unmap data
  218                         ;
  219  01:A67C  4C 45 E3          jmp   unmap_data
  220                     
  221           0000              .bank   LIB1_BANK
  222                     
  223                     ; ----
  224                     ; load_map_8/16
  225                     ; ----
  226                     ; transfer a tiled map in VRAM
  227                     ; ----
  228                     ; IN :  _AL = x screen coordinate (tile unit)
  229                     ;       _AH = y screen coordinate
  230                     ;       _CL = x start coordinate in the map
  231                     ;       _CH = y start coordinate
  232                     ;       _DL = nb of column to copy
  233                     ;       _DH = nb of row
  234                     ; ----
  235                     
  236           26B1                      .bss
  237  --:26B1            mapbank         .ds 1
  238  --:26B2            mapaddr         .ds 2
  239  --:26B4            mapwidth        .ds 2
  240  --:26B6            mapheight       .ds 2
  241  --:26B8            maptiletype     .ds 1
  242  --:26B9            maptilebank     .ds 1
  243  --:26BA            maptileaddr     .ds 2
  244  --:26BC            maptilebase     .ds 2
  245  --:26BE            mapnbtile       .ds 2
  246  --:26C0            mapctablebank   .ds 1
  247  --:26C1            mapctable       .ds 2
  248  --:26C3            mapwrap         .ds 1
  249  --:26C4            mapbat_ptr      .ds 2
  250  --:26C6            mapbat_top_base .ds 2
  251  --:26C8            mapbat_top      .ds 1
  252  --:26C9            mapbat_bottom   .ds 1
  253  --:26CA            mapbat_x        .ds 2
  254           E387                      .code
  255  00:E387            load_map:
  256  00:E387  AD B8 26          lda   maptiletype
  257  00:E38A  C9 08             cmp   #8
  258  00:E38C  F0 12             beq   .l1
  259                             ; --
  260                             maplibfunc      lib2_load_map_16
       00:E38E  A8                 tay
       00:E38F  43 20              tma  #page(lib2_load_map_16)
       00:E391  48                 pha
       00:E392  A9 01              lda  #bank(lib2_load_map_16)
       00:E394  53 20              tam  #page(lib2_load_map_16)
       00:E396  98                 tya
       00:E397  20 7F A6           jsr  lib2_load_map_16
       00:E39A  A8                 tay
       00:E39B  68                 pla
       00:E39C  53 20              tam  #page(lib2_load_map_16)
       00:E39E  98                 tya
  261  00:E39F  60                rts
  262                     .l1:    maplibfunc      lib2_load_map_8
       00:E3A0  A8                 tay
       00:E3A1  43 20              tma  #page(lib2_load_map_8)
       00:E3A3  48                 pha
       00:E3A4  A9 01              lda  #bank(lib2_load_map_8)
       00:E3A6  53 20              tam  #page(lib2_load_map_8)
       00:E3A8  98                 tya
       00:E3A9  20 80 A7           jsr  lib2_load_map_8
       00:E3AC  A8                 tay
       00:E3AD  68                 pla
       00:E3AE  53 20              tam  #page(lib2_load_map_8)
       00:E3B0  98                 tya
  263  00:E3B1  60                rts
  264                     
  265           0001              .bank   LIB2_BANK
  266                     
  267  01:A67F            lib2_load_map_16:
  268                     
  269                         ; ----
  270                         ; save bank mapping
  271                         ;
  272  01:A67F  43 04             tma   #2
  273  01:A681  48                pha
  274  01:A682  43 08             tma   #3
  275  01:A684  48                pha
  276  01:A685  43 10             tma   #4
  277  01:A687  48                pha
  278                     
  279                         ; ----
  280                         ; init
  281                         ;
  282  01:A688  20 13 A8          jsr   load_map_init
  283  01:A68B  A5 FD             lda   <_ch
  284  01:A68D  8D CB 26          sta   mapbat_x+1
  285                     
  286                         ; ----
  287                         ; vertical loop
  288                         ;
  289  01:A690  A4 F9     .l1:    ldy   <_ah
  290  01:A692  A5 FE             lda   <_dl
  291  01:A694  85 F8             sta   <_al
  292  01:A696  AD CB 26          lda   mapbat_x+1
  293  01:A699  8D CA 26          sta   mapbat_x
  294  01:A69C  80 43             bra   .l5
  295                     
  296                         ; ----
  297                         ; horizontal loop
  298                         ;
  299  01:A69E  AD CA 26  .l2:    lda   mapbat_x          ; bat wrapping
  300                             add   #2
                0000              .if (1 = 2)            ; register A (handle carry
                                  .else
       01:A6A1  18                 clc
       01:A6A2  69 02              adc    #2
                                  .endif
  301  01:A6A4  2D D7 26          and   bat_hmask
  302  01:A6A7  8D CA 26          sta   mapbat_x
  303  01:A6AA  D0 0B             bne   .l3
  304                             ; --
  305  01:A6AC  AD D7 26          lda   bat_hmask
  306  01:A6AF  49 FF             eor   #$ff
  307  01:A6B1  25 F0             and   <_di
  308  01:A6B3  85 F0             sta   <_di
  309  01:A6B5  80 0C             bra   .l4
  310  01:A6B7            .l3:
  311                             incw  <_di
       01:A6B7  E6 F0              inc    <_di              ; value at stated memory
       01:A6B9  D0 02              bne    .x_00033           ; location
       01:A6BB  E6 F1              inc    <_di+1
       01:A6BD            .x_00033:
  312                             incw  <_di
       01:A6BD  E6 F0              inc    <_di              ; value at stated memory
       01:A6BF  D0 02              bne    .x_00034           ; location
       01:A6C1  E6 F1              inc    <_di+1
       01:A6C3            .x_00034:
  313  01:A6C3            .l4:
  314  01:A6C3  C8                iny
  315                             ; --
  316  01:A6C4  CC B4 26          cpy   mapwidth          ; horizontal map wrapping
  317  01:A6C7  D0 18             bne   .l5
  318  01:A6C9  C2                cly
  319  01:A6CA  AE C3 26          ldx   mapwrap
  320  01:A6CD  D0 12             bne   .l5
  321  01:A6CF  AC B4 26          ldy   mapwidth
  322  01:A6D2  AD BC 26          lda   maptilebase
  323  01:A6D5  85 FC             sta   <_cl
  324  01:A6D7  AD BD 26          lda   maptilebase+1
  325  01:A6DA  12 EC             ora   [_bp]
  326  01:A6DC  85 FD             sta   <_ch
  327  01:A6DE  88                dey
  328  01:A6DF  80 1C             bra   .l6
  329  01:A6E1            .l5:
  330  01:A6E1  B1 EE             lda   [_si],Y           ; get tile index
  331  01:A6E3  AA                tax                     ; calculate BAT value (tile + palette)
  332  01:A6E4  02                sxy
  333  01:A6E5  64 FD             stz   <_ch
  334  01:A6E7  0A                asl   A
  335  01:A6E8  26 FD             rol   <_ch
  336  01:A6EA  0A                asl   A
  337  01:A6EB  26 FD             rol   <_ch
  338                             add   maptilebase
                0000              .if (1 = 2)            ; register A (handle carry
                                  .else
       01:A6ED  18                 clc
       01:A6EE  6D BC 26           adc    maptilebase
                                  .endif
  339  01:A6F1  85 FC             sta   <_cl
  340  01:A6F3  A5 FD             lda   <_ch
  341  01:A6F5  6D BD 26          adc   maptilebase+1
  342  01:A6F8  71 EC             adc   [_bp],Y
  343  01:A6FA  85 FD             sta   <_ch
  344  01:A6FC  02                sxy
  345  01:A6FD            .l6:
  346                             vreg  #0                ; copy tile
       01:A6FD  A9 00              lda    #0
       01:A6FF  85 F7              sta    <vdc_reg
                0001               .if (2 = ARG_IMMED)
       01:A701  03 00               st0   #0
                                   .else
                                   .endif
  347                             stw   <_di,video_data
       01:A703  A5 F0              lda    LOW_BYTE <_di
       01:A705  8D 02 00           sta    LOW_BYTE video_data
       01:A708  A5 F1              lda    HIGH_BYTE <_di
       01:A70A  8D 03 00           sta    HIGH_BYTE video_data
  348                             vreg  #2
       01:A70D  A9 02              lda    #2
       01:A70F  85 F7              sta    <vdc_reg
                0001               .if (2 = ARG_IMMED)
       01:A711  03 02               st0   #2
                                   .else
                                   .endif
  349                             stw   <_cx,video_data
       01:A713  A5 FC              lda    LOW_BYTE <_cx
       01:A715  8D 02 00           sta    LOW_BYTE video_data
       01:A718  A5 FD              lda    HIGH_BYTE <_cx
       01:A71A  8D 03 00           sta    HIGH_BYTE video_data
  350                             incw  <_cx
       01:A71D  E6 FC              inc    <_cx              ; value at stated memory
       01:A71F  D0 02              bne    .x_00040           ; location
       01:A721  E6 FD              inc    <_cx+1
       01:A723            .x_00040:
  351                             stw   <_cx,video_data
       01:A723  A5 FC              lda    LOW_BYTE <_cx
       01:A725  8D 02 00           sta    LOW_BYTE video_data
       01:A728  A5 FD              lda    HIGH_BYTE <_cx
       01:A72A  8D 03 00           sta    HIGH_BYTE video_data
  352                             incw  <_cx
       01:A72D  E6 FC              inc    <_cx              ; value at stated memory
       01:A72F  D0 02              bne    .x_00042           ; location
       01:A731  E6 FD              inc    <_cx+1
       01:A733            .x_00042:
  353                             vreg  #0
       01:A733  A9 00              lda    #0
       01:A735  85 F7              sta    <vdc_reg
                0001               .if (2 = ARG_IMMED)
       01:A737  03 00               st0   #0
                                   .else
                                   .endif
  354                             addw  bat_width,<_di,video_data
                0001              .if     (3 = 3)
                                   ; 3-arg mode
                                   ;
       01:A739  18                 clc
       01:A73A  A5 F0              lda    LOW_BYTE <_di
       01:A73C  6D D4 26           adc    LOW_BYTE bat_width
       01:A73F  8D 02 00           sta    LOW_BYTE video_data
       01:A742  A5 F1              lda    HIGH_BYTE <_di
       01:A744  6D D5 26           adc    HIGH_BYTE bat_width
       01:A747  8D 03 00           sta    HIGH_BYTE video_data
                                  .else
                                  .endif
  355                             vreg  #2
       01:A74A  A9 02              lda    #2
       01:A74C  85 F7              sta    <vdc_reg
                0001               .if (2 = ARG_IMMED)
       01:A74E  03 02               st0   #2
                                   .else
                                   .endif
  356                             stw   <_cx,video_data
       01:A750  A5 FC              lda    LOW_BYTE <_cx
       01:A752  8D 02 00           sta    LOW_BYTE video_data
       01:A755  A5 FD              lda    HIGH_BYTE <_cx
       01:A757  8D 03 00           sta    HIGH_BYTE video_data
  357                             incw  <_cx
       01:A75A  E6 FC              inc    <_cx              ; value at stated memory
       01:A75C  D0 02              bne    .x_00047           ; location
       01:A75E  E6 FD              inc    <_cx+1
       01:A760            .x_00047:
  358                             stw   <_cx,video_data
       01:A760  A5 FC              lda    LOW_BYTE <_cx
       01:A762  8D 02 00           sta    LOW_BYTE video_data
       01:A765  A5 FD              lda    HIGH_BYTE <_cx
       01:A767  8D 03 00           sta    HIGH_BYTE video_data
  359                     
  360  01:A76A  C6 F8             dec   <_al              ; next tile
  361                             lbne  .l2
       01:A76C  F0 03              beq    .x_00049
       01:A76E  4C 9E A6           jmp    .l2
       01:A771            .x_00049
  362                     
  363                         ; ----
  364                         ; next line
  365                         ;
  366  01:A771  A2 02             ldx   #2
  367  01:A773  20 A0 A8          jsr   load_map_next_line
  368  01:A776  C6 FF             dec   <_dh
  369                             lbne  .l1
       01:A778  F0 03              beq    .x_00050
       01:A77A  4C 90 A6           jmp    .l1
       01:A77D            .x_00050
  370                     
  371                         ; ----
  372                         ; restore bank mapping
  373                         ;
  374  01:A77D  4C 09 A8          jmp   load_map_exit
  375                     
  376  01:A780            lib2_load_map_8:
  377                     
  378                         ; ----
  379                         ; save bank mapping
  380                         ;
  381  01:A780  43 04             tma   #2
  382  01:A782  48                pha
  383  01:A783  43 08             tma   #3
  384  01:A785  48                pha
  385  01:A786  43 10             tma   #4
  386  01:A788  48                pha
  387                     
  388                         ; ----
  389                         ; init
  390                         ;
  391  01:A789  20 13 A8          jsr   load_map_init
  392  01:A78C  80 05             bra   .l2
  393                     
  394                         ; ----
  395                         ; vertical loop
  396                         ;
  397  01:A78E  A2 01     .l1:    ldx   #1
  398  01:A790  20 A0 A8          jsr   load_map_next_line
  399                             ; --
  400  01:A793  A4 F9     .l2:    ldy   <_ah
  401  01:A795  A5 FE             lda   <_dl
  402  01:A797  85 F8             sta   <_al
  403  01:A799  A5 FD             lda   <_ch
  404  01:A79B  85 FC             sta   <_cl
  405                             vreg  #0                ; set vram write ptr
       01:A79D  A9 00              lda    #0
       01:A79F  85 F7              sta    <vdc_reg
                0001               .if (2 = ARG_IMMED)
       01:A7A1  03 00               st0   #0
                                   .else
                                   .endif
  406                             stw   <_di,video_data
       01:A7A3  A5 F0              lda    LOW_BYTE <_di
       01:A7A5  8D 02 00           sta    LOW_BYTE video_data
       01:A7A8  A5 F1              lda    HIGH_BYTE <_di
       01:A7AA  8D 03 00           sta    HIGH_BYTE video_data
  407                             vreg  #2
       01:A7AD  A9 02              lda    #2
       01:A7AF  85 F7              sta    <vdc_reg
                0001               .if (2 = ARG_IMMED)
       01:A7B1  03 02               st0   #2
                                   .else
                                   .endif
  408  01:A7B3  80 38             bra   .l5
  409                     
  410                         ; ----
  411                         ; horizontal loop
  412                         ;
  413  01:A7B5  A5 FC     .l3:    lda   <_cl              ; bat wrapping
  414  01:A7B7  1A                inc   A
  415  01:A7B8  2D D7 26          and   bat_hmask
  416  01:A7BB  85 FC             sta   <_cl
  417  01:A7BD  D0 1B             bne   .l4
  418                             ; --
  419                             vreg  #0
       01:A7BF  A9 00              lda    #0
       01:A7C1  85 F7              sta    <vdc_reg
                0001               .if (2 = ARG_IMMED)
       01:A7C3  03 00               st0   #0
                                   .else
                                   .endif
  420  01:A7C5  AD D7 26          lda   bat_hmask
  421  01:A7C8  49 FF             eor   #$ff
  422  01:A7CA  25 F0             and   <_di
  423  01:A7CC  8D 02 00          sta   video_data_l
  424  01:A7CF  A5 F1             lda   <_di+1
  425  01:A7D1  8D 03 00          sta   video_data_h
  426                             vreg  #2
       01:A7D4  A9 02              lda    #2
       01:A7D6  85 F7              sta    <vdc_reg
                0001               .if (2 = ARG_IMMED)
       01:A7D8  03 02               st0   #2
                                   .else
                                   .endif
  427  01:A7DA            .l4:
  428  01:A7DA  C8                iny                     ; next tile
  429                             ; --
  430  01:A7DB  CC B4 26          cpy   mapwidth          ; map wrapping
  431  01:A7DE  D0 0D             bne   .l5
  432                             ; --
  433  01:A7E0  C2                cly
  434  01:A7E1  AD C3 26          lda   mapwrap
  435  01:A7E4  D0 07             bne   .l5
  436  01:A7E6  AC B4 26          ldy   mapwidth
  437  01:A7E9  88                dey
  438  01:A7EA  62                cla
  439  01:A7EB  80 02             bra   .l6
  440  01:A7ED            .l5:
  441  01:A7ED  B1 EE             lda   [_si],Y           ; get tile index
  442  01:A7EF  AA        .l6:    tax                     ; calculate BAT value (tile + palette)
  443  01:A7F0  02                sxy
  444                             add   maptilebase
                0000              .if (1 = 2)            ; register A (handle carry
                                  .else
       01:A7F1  18                 clc
       01:A7F2  6D BC 26           adc    maptilebase
                                  .endif
  445  01:A7F5  8D 02 00          sta   video_data_l
  446  01:A7F8  AD BD 26          lda   maptilebase+1
  447  01:A7FB  71 EC             adc   [_bp],Y
  448  01:A7FD  8D 03 00          sta   video_data_h
  449  01:A800  02                sxy
  450                     
  451  01:A801  C6 F8             dec   <_al
  452  01:A803  D0 B0             bne   .l3
  453                     
  454                         ; ----
  455                         ; next line
  456                         ;
  457  01:A805  C6 FF             dec   <_dh
  458  01:A807  D0 85             bne   .l1
  459                     
  460                         ; ----
  461                         ; restore bank mapping
  462                         ;
  463  01:A809            load_map_exit:
  464  01:A809  68                pla
  465  01:A80A  53 10             tam   #4
  466  01:A80C  68                pla
  467  01:A80D  53 08             tam   #3
  468  01:A80F  68                pla
  469  01:A810  53 04             tam   #2
  470  01:A812  60                rts
  471                     
  472                     
  473                     ; ----
  474                     ; load_map_init
  475                     ; ----
  476                     ; load_map sub routine
  477                     ; ----
  478                     ; OUT:  _DI = BAT address
  479                     ;       _SI = map address
  480                     ;       _BP = palette index table ptr
  481                     ;       _AH = map X pos
  482                     ;       _BH = map Y pos
  483                     ;       _CH = BAT X pos
  484                     ;       _BL = BAT Y pos
  485                     ; ----
  486                     
  487  01:A813            load_map_init:
  488                     
  489                         ; ----
  490                         ; calculate vram address
  491                         ;
  492  01:A813  A6 F8             ldx   <_al
  493  01:A815  A5 F9             lda   <_ah
  494  01:A817  AC B8 26          ldy   maptiletype
  495  01:A81A  C0 08             cpy   #8
  496  01:A81C  F0 04             beq   .l1
  497  01:A81E  0A                asl   A
  498  01:A81F  22                sax
  499  01:A820  0A                asl   A
  500  01:A821  22                sax
  501  01:A822  DA        .l1:    phx
  502  01:A823  48                pha
  503  01:A824  20 26 E4          jsr   calc_vram_addr
  504                             stw   <_di,mapbat_ptr
       01:A827  A5 F0              lda    LOW_BYTE <_di
       01:A829  8D C4 26           sta    LOW_BYTE mapbat_ptr
       01:A82C  A5 F1              lda    HIGH_BYTE <_di
       01:A82E  8D C5 26           sta    HIGH_BYTE mapbat_ptr
  505                     
  506                         ; ----
  507                         ; calculate map address
  508                         ;
  509                             stb   mapaddr,<_si
       01:A831  AD B2 26           lda    mapaddr
       01:A834  85 EE              sta    <_si
  510  01:A836  AD B3 26          lda   mapaddr+1
  511  01:A839  29 1F             and   #$1F
  512  01:A83B  85 EF             sta   <_si+1
  513                             ; --
  514  01:A83D  A6 FC             ldx   <_cl
  515  01:A83F  86 F9             stx   <_ah
  516  01:A841  A4 FD             ldy   <_ch
  517  01:A843  84 FB             sty   <_bh
  518                             ; --
  519  01:A845  AD B5 26          lda   mapwidth+1
  520  01:A848  F0 08             beq   .l2
  521  01:A84A  98                tya
  522                             add   <_si+1
                0000              .if (1 = 2)            ; register A (handle carry
                                  .else
       01:A84B  18                 clc
       01:A84C  65 EF              adc    <_si+1
                                  .endif
  523  01:A84E  85 EF             sta   <_si+1
  524  01:A850  80 17             bra   .l3
  525                             ; --
  526  01:A852  84 F8     .l2:    sty   <_al
  527  01:A854  AD B4 26          lda   mapwidth
  528  01:A857  85 FA             sta   <_bl
  529  01:A859  20 DB E6          jsr   mulu8
  530                             addw  <_cx,<_si
                0000              .if     (2 = 3)
                                  .else
                                   ; 2-arg mode
                                   ;
       01:A85C  18                 clc
       01:A85D  A5 EE              lda    LOW_BYTE <_si
       01:A85F  65 FC              adc    LOW_BYTE <_cx
       01:A861  85 EE              sta    LOW_BYTE <_si
       01:A863  A5 EF              lda    HIGH_BYTE <_si
       01:A865  65 FD              adc    HIGH_BYTE <_cx
       01:A867  85 EF              sta    HIGH_BYTE <_si
                                  .endif
  531                     
  532                         ; ----
  533                         ; calculate map bank
  534                         ;
  535  01:A869  2A        .l3:    rol   A
  536  01:A86A  2A                rol   A
  537  01:A86B  2A                rol   A
  538  01:A86C  2A                rol   A
  539  01:A86D  29 0F             and   #$0F
  540                             add   mapbank
                0000              .if (1 = 2)            ; register A (handle carry
                                  .else
       01:A86F  18                 clc
       01:A870  6D B1 26           adc    mapbank
                                  .endif
  541                     
  542                         ; ----
  543                         ; map data
  544                         ;
  545  01:A873  53 08             tam   #3
  546  01:A875  1A                inc   A
  547  01:A876  53 10             tam   #4
  548  01:A878  AD C0 26          lda   mapctablebank
  549  01:A87B  53 04             tam   #2
  550                     
  551                         ; ----
  552                         ; adjust data addresses
  553                         ;
  554  01:A87D  A5 EF             lda   <_si+1            ; tile ptr
  555  01:A87F  29 1F             and   #$1F
  556  01:A881  09 60             ora   #$60
  557  01:A883  85 EF             sta   <_si+1
  558                             ; --
  559                             stb   mapctable,<_bp    ; color table ptr
       01:A885  AD C1 26           lda    mapctable
       01:A888  85 EC              sta    <_bp
  560  01:A88A  AD C2 26          lda   mapctable+1
  561  01:A88D  29 1F             and   #$1F
  562  01:A88F  09 40             ora   #$40
  563  01:A891  85 ED             sta   <_bp+1
  564                     
  565                         ; ----
  566                         ; bat pos
  567                         ;
  568  01:A893  68                pla
  569  01:A894  2D D8 26          and   bat_vmask
  570  01:A897  85 FA             sta   <_bl
  571  01:A899  68                pla
  572  01:A89A  2D D7 26          and   bat_hmask
  573  01:A89D  85 FD             sta   <_ch
  574  01:A89F  60                rts
  575                     
  576                     
  577                     ; ----
  578                     ; load_map_next_line
  579                     ; ----
  580                     ; load_map sub routine
  581                     ; ----
  582                     ; IN :    X = BAT line inc value (1-2)
  583                     ; ----
  584                     ; OUT:  _DI = BAT address
  585                     ;       _SI = map address
  586                     ; ----
  587                     ; USE:  _BL = BAT Y pos
  588                     ;       _BH = map Y pos
  589                     ;       _SI = map address
  590                     ; ----
  591                     
  592  01:A8A0            load_map_next_line:
  593                     
  594                         ; ----
  595                         ; incremente vram address
  596                         ;
  597  01:A8A0  8A                txa
  598                             add   <_bl
                0000              .if (1 = 2)            ; register A (handle carry
                                  .else
       01:A8A1  18                 clc
       01:A8A2  65 FA              adc    <_bl
                                  .endif
  599  01:A8A4  CD C9 26          cmp   mapbat_bottom
  600                             blo   .l1
       01:A8A7  90 22              bcc    .l1
  601                             ; --
  602                             sub   mapbat_bottom     ; 1/ vram wrapping
                0000              .if (1 = 2)            ; from register A (handle
                                  .else
       01:A8A9  38                 sec
       01:A8AA  ED C9 26           sbc    mapbat_bottom
                                  .endif
  603  01:A8AD  AA                tax
  604  01:A8AE  E8                inx
  605                             add   mapbat_top
                0000              .if (1 = 2)            ; register A (handle carry
                                  .else
       01:A8AF  18                 clc
       01:A8B0  6D C8 26           adc    mapbat_top
                                  .endif
  606  01:A8B3  85 FA             sta   <_bl
  607  01:A8B5  AD C4 26          lda   mapbat_ptr
  608  01:A8B8  2D D7 26          and   bat_hmask
  609                             add   mapbat_top_base
                0000              .if (1 = 2)            ; register A (handle carry
                                  .else
       01:A8BB  18                 clc
       01:A8BC  6D C6 26           adc    mapbat_top_base
                                  .endif
  610  01:A8BF  8D C4 26          sta   mapbat_ptr
  611  01:A8C2  62                cla
  612  01:A8C3  6D C7 26          adc   mapbat_top_base+1
  613  01:A8C6  8D C5 26          sta   mapbat_ptr+1
  614  01:A8C9  80 13             bra   .l3
  615                             ; -- 
  616  01:A8CB  85 FA     .l1:    sta   <_bl              ; 2/ vram inc
  617  01:A8CD  AD D4 26  .l2:    lda   bat_width
  618                             add   mapbat_ptr
                0000              .if (1 = 2)            ; register A (handle carry
                                  .else
       01:A8D0  18                 clc
       01:A8D1  6D C4 26           adc    mapbat_ptr
                                  .endif
  619  01:A8D4  8D C4 26          sta   mapbat_ptr
  620  01:A8D7  62                cla
  621  01:A8D8  6D C5 26          adc   mapbat_ptr+1
  622  01:A8DB  8D C5 26          sta   mapbat_ptr+1
  623                             ; --
  624  01:A8DE  CA        .l3:    dex
  625  01:A8DF  D0 EC             bne   .l2
  626                             ; --
  627                             stw   mapbat_ptr,<_di
       01:A8E1  AD C4 26           lda    LOW_BYTE mapbat_ptr
       01:A8E4  85 F0              sta    LOW_BYTE <_di
       01:A8E6  AD C5 26           lda    HIGH_BYTE mapbat_ptr
       01:A8E9  85 F1              sta    HIGH_BYTE <_di
  628                     
  629                         ; ----
  630                         ; incremente map address
  631                         ;
  632  01:A8EB  E6 FB             inc   <_bh
  633  01:A8ED  A5 FB             lda   <_bh
  634  01:A8EF  CD B6 26          cmp   mapheight
  635  01:A8F2  D0 1A             bne   .l4
  636                             ; --
  637  01:A8F4  AD B1 26          lda   mapbank           ; 1/ map wrapping
  638  01:A8F7  53 08             tam   #3
  639  01:A8F9  1A                inc   A
  640  01:A8FA  53 10             tam   #4
  641                             stb   mapaddr,<_si
       01:A8FC  AD B2 26           lda    mapaddr
       01:A8FF  85 EE              sta    <_si
  642  01:A901  AD B3 26          lda   mapaddr+1
  643  01:A904  29 1F             and   #$1F
  644  01:A906  09 60             ora   #$60
  645  01:A908  85 EF             sta   <_si+1
  646  01:A90A  64 FB             stz   <_bh
  647  01:A90C  80 1F             bra   .l5
  648                             ; --
  649                     .l4:    addw  mapwidth,<_si     ; 2/ map inc
                0000              .if     (2 = 3)
                                  .else
                                   ; 2-arg mode
                                   ;
       01:A90E  18                 clc
       01:A90F  A5 EE              lda    LOW_BYTE <_si
       01:A911  6D B4 26           adc    LOW_BYTE mapwidth
       01:A914  85 EE              sta    LOW_BYTE <_si
       01:A916  A5 EF              lda    HIGH_BYTE <_si
       01:A918  6D B5 26           adc    HIGH_BYTE mapwidth
       01:A91B  85 EF              sta    HIGH_BYTE <_si
                                  .endif
  650  01:A91D  C9 80             cmp   #$80
  651                             blo   .l5
       01:A91F  90 0C              bcc    .l5
  652                             sub   #$20
                0000              .if (1 = 2)            ; from register A (handle
                                  .else
       01:A921  38                 sec
       01:A922  E9 20              sbc    #$20
                                  .endif
  653  01:A924  85 EF             sta   <_si+1
  654  01:A926  43 10             tma   #4
  655  01:A928  53 08             tam   #3
  656  01:A92A  1A                inc   A
  657  01:A92B  53 10             tam   #4
  658  01:A92D            .l5:
  659  01:A92D  60                rts
  660                     
  661                     
  662           0000              .bank   LIB1_BANK
  663                     
  664                     ; ----
  665                     ; load_font
  666                     ; ----
  667                     ; transfer a 8x8 monochrome font into VRAM, slow but can be useful
  668                     ; ----
  669                     ; IN :  _DI = VRAM base address
  670                     ;       _BL = font bank
  671                     ;       _SI = font memory location
  672                     ;       _AL = font color (0-15)
  673                     ;       _AH = bg color (0-15)
  674                     ;       _CL = number of characters to copy
  675                     ; ----
  676                     
  677  00:E3B2            load_font:
  678                             maplibfunc      lib2_load_font
       00:E3B2  A8                 tay
       00:E3B3  43 20              tma  #page(lib2_load_font)
       00:E3B5  48                 pha
       00:E3B6  A9 01              lda  #bank(lib2_load_font)
       00:E3B8  53 20              tam  #page(lib2_load_font)
       00:E3BA  98                 tya
       00:E3BB  20 2E A9           jsr  lib2_load_font
       00:E3BE  A8                 tay
       00:E3BF  68                 pla
       00:E3C0  53 20              tam  #page(lib2_load_font)
       00:E3C2  98                 tya
  679  00:E3C3  60                rts
  680                     
  681           0001              .bank   LIB2_BANK
  682                     
  683                         ; ----
  684                         ; map data
  685                         ;
  686  01:A92E            lib2_load_font:
  687  01:A92E  20 23 E3          jsr   map_data
  688  01:A931  20 09 E4          jsr   set_write
  689                     
  690                         ; ----
  691                         ; init bg color
  692                         ;
  693  01:A934  A5 FC             lda   <_cl
  694  01:A936  48                pha
  695                             ; --
  696  01:A937  A2 03             ldx   #3
  697  01:A939  62        .l1:    cla
  698  01:A93A  46 F9             lsr   <_ah
  699  01:A93C  90 02             bcc   .l2
  700  01:A93E  A9 FF             lda   #$FF
  701  01:A940  95 FC     .l2:    sta   <_cl,X
  702  01:A942  CA                dex
  703  01:A943  10 F4             bpl   .l1
  704                     
  705                         ; ----
  706                         ; character loop
  707                         ;
  708  01:A945  FA                plx
  709  01:A946            .copy:
  710                     
  711                         ; ----
  712                         ; plane 1
  713                         ;
  714  01:A946  C2                cly
  715  01:A947  8F F8 08  .p1:    bbs0  <_al,.p2
  716  01:A94A  B1 EE             lda   [_si],Y
  717  01:A94C  49 FF             eor   #$FF
  718  01:A94E  25 FF             and   <_dh
  719  01:A950  80 04             bra   .p3
  720                             ; --
  721  01:A952  A5 FF     .p2:    lda   <_dh
  722  01:A954  11 EE             ora   [_si],Y
  723  01:A956  8D 02 00  .p3:    sta   video_data_l
  724                     
  725                         ; ----
  726                         ; plane 2
  727                         ;
  728  01:A959  9F F8 08          bbs1  <_al,.p4
  729  01:A95C  B1 EE             lda   [_si],Y
  730  01:A95E  49 FF             eor   #$FF
  731  01:A960  25 FE             and   <_dl
  732  01:A962  80 04             bra   .p5
  733                             ; --
  734  01:A964  A5 FE     .p4:    lda   <_dl
  735  01:A966  11 EE             ora   [_si],Y
  736  01:A968  8D 03 00  .p5:    sta   video_data_h
  737                             ; --
  738  01:A96B  C8                iny
  739  01:A96C  C0 08             cpy   #8
  740  01:A96E  D0 D7             bne   .p1
  741                     
  742                         ; ----
  743                         ; plane 3
  744                         ;
  745  01:A970  C2                cly
  746  01:A971  AF F8 08  .t1:    bbs2  <_al,.t2
  747  01:A974  B1 EE             lda   [_si],Y
  748  01:A976  49 FF             eor   #$FF
  749  01:A978  25 FD             and   <_ch
  750  01:A97A  80 04             bra   .t3
  751                             ; --
  752  01:A97C  A5 FD     .t2:    lda   <_ch
  753  01:A97E  11 EE             ora   [_si],Y
  754  01:A980  8D 02 00  .t3:    sta   video_data_l
  755                     
  756                         ; ----
  757                         ; plane 4
  758                         ;
  759  01:A983  BF F8 08          bbs3  <_al,.t4
  760  01:A986  B1 EE             lda   [_si],Y
  761  01:A988  49 FF             eor   #$FF
  762  01:A98A  25 FC             and   <_cl
  763  01:A98C  80 04             bra   .t5
  764                             ; --
  765  01:A98E  A5 FC     .t4:    lda   <_cl
  766  01:A990  11 EE             ora   [_si],Y
  767  01:A992  8D 03 00  .t5:    sta   video_data_h
  768                             ; --
  769  01:A995  C8                iny
  770  01:A996  C0 08             cpy   #8
  771  01:A998  D0 D7             bne   .t1
  772                     
  773                         ; ----
  774                         ; next character
  775                         ;
  776                             addw  #8,<_si
                0000              .if     (2 = 3)
                                  .else
                                   ; 2-arg mode
                                   ;
       01:A99A  18                 clc
       01:A99B  A5 EE              lda    LOW_BYTE <_si
       01:A99D  69 08              adc    LOW_BYTE #8
       01:A99F  85 EE              sta    LOW_BYTE <_si
       01:A9A1  A5 EF              lda    HIGH_BYTE <_si
       01:A9A3  69 00              adc    HIGH_BYTE #8
       01:A9A5  85 EF              sta    HIGH_BYTE <_si
                                  .endif
  777                             ; --
  778  01:A9A7  CA                dex
  779  01:A9A8  D0 9C             bne   .copy
  780                     
  781                         ; ----
  782                         ; unmap data
  783                         ;
  784  01:A9AA  4C 45 E3          jmp   unmap_data
  785                     
  786                         ; ----
  787                         ; restore bank mapping
  788                         ;
  789           0000              .bank   LIB1_BANK
  790                     
  791                     
  792                     ; ----
  793                     ; load_vram
  794                     ; ----
  795                     ; copy a block of memory to VRAM
  796                     ; ----
  797                     ; IN :  _DI = VRAM location
  798                     ;       _BL = data bank
  799                     ;       _SI = data memory location
  800                     ;       _CX = number of words to copy
  801                     ; ----
  802           26CC              .bss
  803                     
  804                     ; This actually places a 'TIA' command
  805                     ; into RAM, from which to execute
  806                     ; for BLiT to VRAM for SATB transfer
  807                     ; and other VRAM load functions
  808                     
  809  --:26CC            _ram_hdwr_tia           .ds     1
  810  --:26CD            _ram_hdwr_tia_src       .ds     2
  811  --:26CF            _ram_hdwr_tia_dest      .ds     2
  812  --:26D1            _ram_hdwr_tia_size      .ds     2
  813  --:26D3            _ram_hdwr_tia_rts       .ds     1
  814                     
  815           E3C4              .code
  816                     
  817           0001              .ifdef HUC
  818  00:E3C4            _load_vram.3:
  819                             .endif
  820  00:E3C4             load_vram:
  821                     
  822                         ; ----
  823                         ; map data
  824                         ;
  825  00:E3C4  20 23 E3          jsr   map_data
  826                     
  827                     ;    ; ----
  828                     ;    ; setup call to TIA operation (fastest transfer)
  829                     ;    ;
  830                     ;    ; (instruction setup done during bootup...)
  831                     ;
  832                     ;       stw   #video_data, _ram_hdwr_tia_dest
  833                     ;       stw   <_si, _ram_hdwr_tia_src
  834                     ;
  835                     ;        asl   <_cl             ; change from words to bytes (# to xfer)
  836                     ;       rol   <_ch
  837                     
  838                         ; ----
  839                         ; set vram address
  840                         ;
  841  00:E3C7  20 09 E4          jsr   set_write
  842                     
  843                         ; ----
  844                         ; copy data
  845                         ;
  846  00:E3CA  C2                cly
  847  00:E3CB  A6 FC             ldx   <_cl
  848  00:E3CD  F0 16             beq   .l3
  849                             ; --
  850  00:E3CF  B1 EE     .l1:    lda   [_si],Y
  851  00:E3D1  8D 02 00          sta   video_data_l
  852  00:E3D4  C8                iny
  853  00:E3D5  B1 EE             lda   [_si],Y
  854  00:E3D7  8D 03 00          sta   video_data_h
  855  00:E3DA  C8                iny
  856  00:E3DB  D0 02             bne   .l2
  857  00:E3DD  E6 EF             inc   <_si+1
  858                             ; --
  859  00:E3DF  CA        .l2:    dex
  860  00:E3E0  D0 ED             bne   .l1
  861                             ; --
  862  00:E3E2  20 4E E3          jsr   remap_data
  863                             ; --
  864  00:E3E5  C6 FD     .l3:    dec   <_ch
  865  00:E3E7  10 E6             bpl   .l1
  866                     
  867                     ;.l1:   lda   <_ch              ; if zero-transfer, exit
  868                     ;       ora   <_cl
  869                     ;       beq   .out
  870                     ;
  871                     ;       lda   <_ch
  872                     ;       cmp   #$20              ; if more than $2000, repeat xfers of $2000
  873                     ;        blo   .l2              ; while adjusting banks
  874                     ;       sub   #$20              ; reduce remaining transfer amount
  875                     ;       sta   <_ch
  876                     ;
  877                     ;       stw   #$2000, _ram_hdwr_tia_size
  878                     ;       jsr   _ram_hdwr_tia
  879                     ;
  880                     ;       lda   <_si+1            ; force bank adjust
  881                     ;       add   #$20              ; and next move starts at same location
  882                     ;       sta   <_si+1
  883                     ;
  884                     ;       jsr   remap_data        ; adjust banks
  885                     ;       bra   .l1
  886                     ;
  887                     ;.l2:   sta   HIGH_BYTE _ram_hdwr_tia_size      ; 'remainder' transfer of < $2000
  888                     ;       lda   <_cl
  889                     ;       sta   LOW_BYTE  _ram_hdwr_tia_size
  890                     ;       jsr   _ram_hdwr_tia
  891                     
  892                         ; ----
  893                         ; unmap data
  894                         ;
  895                     
  896  00:E3E9  4C 45 E3  .out:   jmp   unmap_data
  897                     
  898                     
  899                     
  900                     ; ----
  901                     ; set_read
  902                     ; ----
  903                     ; set the VDC VRAM read pointer
  904                     ; ----
  905                     ; IN :  _DI = VRAM location
  906                     ; ----
  907                     
  908  00:E3EC            set_read:
  909                             vreg  #$01
       00:E3EC  A9 01              lda    #$01
       00:E3EE  85 F7              sta    <vdc_reg
                0001               .if (2 = ARG_IMMED)
       00:E3F0  03 01               st0   #$01
                                   .else
                                   .endif
  910  00:E3F2  A5 F0             lda   <_di 
  911  00:E3F4  8D 02 00          sta   video_data_l
  912           0001              .ifdef HUC
  913  00:E3F7  8D 49 27           sta   _vdc+2
  914                             .endif
  915  00:E3FA  A5 F1             lda   <_di+1
  916  00:E3FC  8D 03 00          sta   video_data_h
  917           0001              .ifdef HUC
  918  00:E3FF  8D 4A 27           sta   _vdc+3
  919                             .endif
  920                             vreg  #$02
       00:E402  A9 02              lda    #$02
       00:E404  85 F7              sta    <vdc_reg
                0001               .if (2 = ARG_IMMED)
       00:E406  03 02               st0   #$02
                                   .else
                                   .endif
  921  00:E408  60                rts 
  922                     
  923                     
  924                     ; ----
  925                     ; set_write
  926                     ; ----
  927                     ; set the VDC VRAM write pointer
  928                     ; ----
  929                     ; IN :  _DI = VRAM location
  930                     ; ----
  931                     
  932  00:E409            set_write:
  933                             vreg  #$00
       00:E409  A9 00              lda    #$00
       00:E40B  85 F7              sta    <vdc_reg
                0001               .if (2 = ARG_IMMED)
       00:E40D  03 00               st0   #$00
                                   .else
                                   .endif
  934  00:E40F  A5 F0             lda   <_di 
  935  00:E411  8D 02 00          sta   video_data_l
  936           0001              .ifdef HUC
  937  00:E414  8D 47 27           sta   _vdc
  938                             .endif
  939  00:E417  A5 F1             lda   <_di+1
  940  00:E419  8D 03 00          sta   video_data_h
  941           0001              .ifdef HUC
  942  00:E41C  8D 48 27           sta   _vdc+1
  943                             .endif
  944                             vreg  #$02
       00:E41F  A9 02              lda    #$02
       00:E421  85 F7              sta    <vdc_reg
                0001               .if (2 = ARG_IMMED)
       00:E423  03 02               st0   #$02
                                   .else
                                   .endif
  945  00:E425  60                rts 
  946                     
  947                     
  948                     ; ----
  949                     ; calc_vram_addr
  950                     ; ----
  951                     ; calculate VRAM address
  952                     ; ----
  953                     ; IN :    X = x coordinates
  954                     ;         A = y     "
  955                     ; ----
  956                     ; OUT:  _DI = VRAM location
  957                     ; ----
  958                     
  959  00:E426            calc_vram_addr:
  960  00:E426  DA                phx
  961  00:E427  2D D8 26          and   bat_vmask
  962  00:E42A  64 F0             stz   <_di
  963  00:E42C  AE D4 26          ldx   bat_width
  964  00:E42F  E0 40             cpx   #64
  965  00:E431  F0 07             beq   .s64
  966  00:E433  E0 80             cpx   #128
  967  00:E435  F0 06             beq   .s128
  968                             ; --
  969  00:E437  4A        .s32:   lsr   A
  970  00:E438  66 F0             ror   <_di
  971                             ; --
  972  00:E43A  4A        .s64:   lsr   A
  973  00:E43B  66 F0             ror   <_di
  974                             ; --
  975  00:E43D  4A        .s128:  lsr   A
  976  00:E43E  66 F0             ror   <_di
  977  00:E440  85 F1             sta   <_di+1
  978                             ; --
  979  00:E442  68                pla
  980  00:E443  2D D7 26          and   bat_hmask
  981  00:E446  05 F0             ora   <_di
  982  00:E448  85 F0             sta   <_di
  983  00:E44A  60                rts
  984                     
  985                     ; ----
  986                     ; HSR(xres)
  987                     ; ----
  988                     ; macros to calculate the value of the HSR VDC register
  989                     ; ----
  990                     ; IN :  xres, horizontal screen resolution
  991                     ; ----
  992                     
  993                     HSR     .macro
  994                              .if (\1 < 268)
  995                               ; low res
  996                               .db $02
  997                               .db (18 - (\1 / 16))
  998                              .else
  999                               .if (\1 < 356)
 1000                                ; high res
 1001                                .db $03
 1002                                .db (25 - (\1 / 16))
 1003                               .else
 1004                                ; very high res
 1005                                .db $05
 1006                                .db (42 - (\1 / 16))
 1007                               .endif
 1008                              .endif
 1009                             .endm
 1010                     
 1011                     
 1012                     ; ----
 1013                     ; HDR(xres)
 1014                     ; ----
 1015                     ; macros to calculate the value of the HDR VDC register
 1016                     ; ----
 1017                     ; IN :  xres, horizontal screen resolution
 1018                     ; ----
 1019                     
 1020                     HDR     .macro
 1021                              .db ((\1 / 8) - 1)
 1022                              .if (\1 < 268)
 1023                               ; low res
 1024                               .db (38 - ((18 - (\1 / 16)) + (\1 / 8)))
 1025                              .else
 1026                               .if (\1 < 356)
 1027                                ; high res
 1028                                .db (51 - ((25 - (\1 / 16)) + (\1 / 8)))
 1029                               .else
 1030                                ; high res
 1031                                .db (82 - ((42 - (\1 / 16)) + (\1 / 8)))
 1032                               .endif
 1033                              .endif
 1034                             .endm
 1035                     
 1036                     
 1037                     ; ----
 1038                     ; init_vdc
 1039                     ; ----
 1040                     ; initialize the video controller
 1041                     ;  - 256x224 screen mode
 1042                     ;  - 64x32 virtual bgmap size
 1043                     ;  - display and sprites off
 1044                     ;  - interrupts disabled
 1045                     ;  - SATB at $7F00
 1046                     ;  - VRAM cleared
 1047                     ; ----
 1048                     
 1049           26D4                 .bss
 1050  --:26D4            bat_width  .ds 2
 1051  --:26D6            bat_height .ds 1
 1052  --:26D7            bat_hmask  .ds 1
 1053  --:26D8            bat_vmask  .ds 1
 1054  --:26D9            scr_width  .ds 1
 1055  --:26DA            scr_height .ds 1
 1056           E44B                 .code
 1057                     
 1058  00:E44B            init_vdc:
 1059                         ; ----
 1060                         ; default screen resolution
 1061                         ;
 1062           0000             .ifndef _xres
 1064                            .endif
 1065                     
 1066                         ; ----
 1067                         ; initialize the VDC registers
 1068                         ;
 1069                             stw   #.table,<_si      ; register table address in '_si'
       00:E44B  A9 C3              lda    LOW_BYTE #.table
       00:E44D  85 EE              sta    LOW_BYTE <_si
       00:E44F  A9 E4              lda    HIGH_BYTE #.table
       00:E451  85 EF              sta    HIGH_BYTE <_si
 1070  00:E453  C2                cly 
 1071  00:E454  B1 EE     .l1:    lda   [_si],Y           ; select the VDC register
 1072  00:E456  C8                iny
 1073  00:E457  85 F7             sta   <vdc_reg
 1074  00:E459  8D 00 00          sta   video_reg
 1075           0001              .ifdef HUC
 1076  00:E45C  0A                 asl   A
 1077  00:E45D  AA                 tax
 1078                             .endif
 1079  00:E45E  B1 EE             lda   [_si],Y           ; send the 16-bit data
 1080  00:E460  C8                iny 
 1081  00:E461  8D 02 00          sta   video_data_l
 1082           0001              .ifdef HUC
 1083  00:E464  9D 47 27           sta   _vdc,X
 1084                             .endif
 1085  00:E467  B1 EE             lda   [_si],Y
 1086  00:E469  C8                iny 
 1087  00:E46A  8D 03 00          sta   video_data_h
 1088           0001              .ifdef HUC
 1089  00:E46D  9D 48 27           sta   _vdc+1,X
 1090                             .endif
 1091  00:E470  C0 24             cpy   #36               ; loop if not at the end of the
 1092  00:E472  D0 E0             bne   .l1               ; table
 1093                     
 1094                         ; ----
 1095                         ; set the screen mode
 1096                         ;
 1097           0001              .if (_xres < 268)
 1098  00:E474  A9 04              lda  #(0 | XRES_SOFT)
 1099                             .else
 1105                             .endif
 1106                     
 1107                     ; This stuff alters display position from HuCard position
 1108                     
 1109                     ;        .if (CDROM)
 1110                     ;
 1111                     ;        ldx  #_xres/8
 1112                     ;        ldy  #30
 1113                     ;        jsr  ex_scrmod
 1114                     ;        lda  #$01
 1115                     ;        jsr  ex_scrsiz
 1116                     ;        lda  #0
 1117                     ;        jsr  ex_imode
 1118                     ;
 1119                     ;        .else
 1120                     
 1121                              ; pixel clock frequency
 1122  00:E476  8D 00 04           sta  color_ctrl
 1123                     ;
 1124                     ;        .endif
 1125                     
 1126                     
 1127                         ; ----
 1128                         ; set the background & border colors to black
 1129                         ;
 1130                             stw   #256,color_reg
       00:E479  A9 00              lda    LOW_BYTE #256
       00:E47B  8D 02 04           sta    LOW_BYTE color_reg
       00:E47E  A9 01              lda    HIGH_BYTE #256
       00:E480  8D 03 04           sta    HIGH_BYTE color_reg
 1131                             stwz  color_data
       00:E483  9C 04 04           stz    LOW_BYTE color_data
       00:E486  9C 05 04           stz    HIGH_BYTE color_data
 1132                             stwz  color_reg
       00:E489  9C 02 04           stz    LOW_BYTE color_reg
       00:E48C  9C 03 04           stz    HIGH_BYTE color_reg
 1133                             stwz  color_data
       00:E48F  9C 04 04           stz    LOW_BYTE color_data
       00:E492  9C 05 04           stz    HIGH_BYTE color_data
 1134                     
 1135           0000             .if (CDROM)
 1155                            .endif   ; (CDROM)
 1156                     
 1157                         ; ----
 1158                         ; clear the video RAM
 1159                         ;
 1160  00:E495  03 00             st0   #0
 1161  00:E497  13 00             st1   #0
 1162  00:E499  23 00             st2   #0
 1163  00:E49B  03 02             st0   #2
 1164                     
 1165  00:E49D  A2 80             ldx   #128
 1166  00:E49F  C2        .l2:    cly
 1167  00:E4A0  13 00     .l3:    st1   #0
 1168  00:E4A2  23 00             st2   #0
 1169  00:E4A4  88                dey
 1170  00:E4A5  D0 F9             bne   .l3
 1171  00:E4A7  CA                dex
 1172  00:E4A8  D0 F5             bne   .l2
 1173                     
 1174                         ; ----
 1175                         ; save screen infos
 1176                         ;
 1177                             stw   #_xres,scr_width  ; resolution
       00:E4AA  A9 00              lda    LOW_BYTE #_xres
       00:E4AC  8D D9 26           sta    LOW_BYTE scr_width
       00:E4AF  A9 01              lda    HIGH_BYTE #_xres
       00:E4B1  8D DA 26           sta    HIGH_BYTE scr_width
 1178                             stw   #224,scr_height
       00:E4B4  A9 E0              lda    LOW_BYTE #224
       00:E4B6  8D DA 26           sta    LOW_BYTE scr_height
       00:E4B9  A9 00              lda    HIGH_BYTE #224
       00:E4BB  8D DB 26           sta    HIGH_BYTE scr_height
 1179                             ; --
 1180  00:E4BE  A9 01             lda   #BGMAP_SIZE_64x32 ; virtual size
 1181  00:E4C0  4C F9 E4          jmp   set_bat_size
 1182                     
 1183                         ; ----
 1184                         ; VDC register table
 1185                         ;
 1186  00:E4C3  05 00 00  .table: .db $05,$00,$00         ; CR    control register
 1187  00:E4C6  06 00 00          .db $06,$00,$00         ; RCR   scanline interrupt counter
 1188  00:E4C9  07 00 00          .db $07,$00,$00         ; BXR   background horizontal scroll offset
 1189  00:E4CC  08 00 00          .db $08,$00,$00         ; BYR        "     vertical     "      "
 1190  00:E4CF  09 10 00          .db $09,$10,$00         ; MWR   size of the virtual screen
 1191  00:E4D2  0A                .db $0A                 ; HSR +
 1192                              HSR _xres              ;     |                 [$02,$02]
                0001               .if (_xres < 268)
                                    ; low res
       00:E4D3  02                  .db $02
       00:E4D4  02                  .db (18 - (_xres / 16))
                                   .else
                                   .endif
 1193  00:E4D5  0B                .db $0B                 ; HDR | display size
 1194                              HDR _xres              ;     | and synchro     [$1F,$04]
       00:E4D6  1F                 .db ((_xres / 8) - 1)
                0001               .if (_xres < 268)
                                    ; low res
       00:E4D7  04                  .db (38 - ((18 - (_xres / 16)) + (_xres / 8)))
                                   .else
                                   .endif
 1195  00:E4D8  0C 02 17          .db $0C,$02,$17         ; VPR |
 1196  00:E4DB  0D DF 00          .db $0D,$DF,$00         ; VDW |
 1197  00:E4DE  0E 0C 00          .db $0E,$0C,$00         ; VCR +
 1198  00:E4E1  0F 10 00          .db $0F,$10,$00         ; DCR   DMA control register
 1199  00:E4E4  13 00 7F          .db $13,$00,$7F         ; SATB  address of the SATB
 1200                     
 1201                     
 1202                     ; ----
 1203                     ; set_xres
 1204                     ; ----
 1205                     ; set horizontal display resolution
 1206                     ; ----
 1207                     ; IN  : _AX = new x resolution (ie. 320)
 1208                     ;       _CL = 'blur bit' for color register
 1209                     ; USES: _BX
 1210                     ; ----
 1211                     
 1212  00:E4E7            set_xres:
 1213                             maplibfunc      lib2_set_xres
       00:E4E7  A8                 tay
       00:E4E8  43 20              tma  #page(lib2_set_xres)
       00:E4EA  48                 pha
       00:E4EB  A9 01              lda  #bank(lib2_set_xres)
       00:E4ED  53 20              tam  #page(lib2_set_xres)
       00:E4EF  98                 tya
       00:E4F0  20 AD A9           jsr  lib2_set_xres
       00:E4F3  A8                 tay
       00:E4F4  68                 pla
       00:E4F5  53 20              tam  #page(lib2_set_xres)
       00:E4F7  98                 tya
 1214  00:E4F8  60                rts
 1215                     
 1216                     
 1217           0001              .bank   LIB2_BANK
 1218                     
 1219           26DB              .bss
 1220  --:26DB            vdc_blur  .ds 1         ; blur bit
 1221  --:26DC            hsw       .ds 1         ; temporary parameters for calculating video registers
 1222  --:26DD            hds       .ds 1
 1223  --:26DE            hdw       .ds 1
 1224  --:26DF            hde       .ds 1
 1225           A9AD              .code
 1226                     
 1227  01:A9AD            lib2_set_xres:
 1228  01:A9AD  A9 20             lda     #$20            ; reset resource-usage flag
 1229  01:A9AF  04 F5             tsb     <irq_m          ; to skip joystick read portion of vsync
 1230                                                     ; (temporarily disable VSYNC processing)
 1231  01:A9B1  A5 F9             lda     <_ah
 1232  01:A9B3  85 FB             sta     <_bh
 1233  01:A9B5  A5 F8             lda     <_al
 1234  01:A9B7  85 FA             sta     <_bl            ; bx now has x-res
 1235                     
 1236  01:A9B9  46 FB             lsr     <_bh
 1237  01:A9BB  66 FA             ror     <_bl
 1238  01:A9BD  46 FB             lsr     <_bh
 1239  01:A9BF  66 FA             ror     <_bl
 1240  01:A9C1  46 FA             lsr     <_bl            ; bl now has x/8
 1241                     
 1242  01:A9C3  C2                cly                     ; offset into numeric tables
 1243                                                     ; 0=low-res, 1=mid-res, 2=high-res
 1244                     
 1245  01:A9C4  A5 F9             lda     <_ah
 1246  01:A9C6  F0 1E             beq    .xres_calc       ; < 256
 1247  01:A9C8  C9 03             cmp     #3
 1248                             bhs   .xres_calc
       01:A9CA  B0 1A              bcs    .xres_calc
 1249                     
 1250                             cmpw    #$10C,<_ax
       01:A9CC  A5 F9              lda    HIGH_BYTE <_ax
       01:A9CE  C9 01              cmp    HIGH_BYTE #$10C
       01:A9D0  D0 04              bne    .x_00091
       01:A9D2  A5 F8              lda    LOW_BYTE <_ax
       01:A9D4  C9 0C              cmp    LOW_BYTE #$10C
       01:A9D6            .x_00091:
 1251                             blo    .xres_calc       ; < 268
       01:A9D6  90 0E              bcc    .xres_calc
 1252                     
 1253  01:A9D8  C8                iny
 1254                             cmpw    #$164,<_ax
       01:A9D9  A5 F9              lda    HIGH_BYTE <_ax
       01:A9DB  C9 01              cmp    HIGH_BYTE #$164
       01:A9DD  D0 04              bne    .x_00093
       01:A9DF  A5 F8              lda    LOW_BYTE <_ax
       01:A9E1  C9 64              cmp    LOW_BYTE #$164
       01:A9E3            .x_00093:
 1255                             blo    .xres_calc       ; < 356
       01:A9E3  90 01              bcc    .xres_calc
 1256                     
 1257  01:A9E5  C8                iny                     ; 356 < x < 512
 1258                     
 1259  01:A9E6            .xres_calc:
 1260  01:A9E6  B9 52 AA          lda     .vce_tab,Y
 1261  01:A9E9  05 FC             ora     <_cl
 1262  01:A9EB  8D 00 04          sta     color_ctrl      ; dot-clock (x-resolution)
 1263                     
 1264  01:A9EE  B9 55 AA          lda     .hsw_tab,Y      ; example calc's (using "low-res" numbers)
 1265  01:A9F1  8D DC 26          sta     hsw             ; hsw = $2
 1266  01:A9F4  A5 FA             lda     <_bl
 1267  01:A9F6  8D DD 26          sta     hds             ; hds = (x/8) temporarily
 1268  01:A9F9  3A                dec     A
 1269  01:A9FA  8D DE 26          sta     hdw             ; hdw = (x/8)-1
 1270  01:A9FD  4E DD 26          lsr     hds             ; hds = (x/16) temporarily
 1271                     
 1272  01:AA00  B9 58 AA          lda     .hds_tab,Y
 1273                             sub     hds
                0000              .if (1 = 2)            ; from register A (handle
                                  .else
       01:AA03  38                 sec
       01:AA04  ED DD 26           sbc    hds
                                  .endif
 1274  01:AA07  8D DD 26          sta     hds             ; hds = 18 - (x/16)
 1275                     
 1276  01:AA0A  B9 5B AA          lda     .hde_tab,Y
 1277                             sub     hds
                0000              .if (1 = 2)            ; from register A (handle
                                  .else
       01:AA0D  38                 sec
       01:AA0E  ED DD 26           sbc    hds
                                  .endif
 1278                             sub     <_bl            ; hde = (38 - ( (18-(x/16)) + (x/8) ))
                0000              .if (1 = 2)            ; from register A (handle
                                  .else
       01:AA11  38                 sec
       01:AA12  E5 FA              sbc    <_bl
                                  .endif
 1279  01:AA14  8D DF 26          sta     hde
 1280                     
 1281  01:AA17            .xres_putit:
 1282  01:AA17  A9 0A             lda     #$0a
 1283  01:AA19  85 F7             sta     <vdc_reg
 1284  01:AA1B  8D 00 00          sta     video_reg
 1285           0001              .ifdef HUC
 1286  01:AA1E  0A                 asl    A
 1287  01:AA1F  22                 sax
 1288                             .endif
 1289  01:AA20  AD DC 26          lda     hsw
 1290  01:AA23  8D 02 00          sta     video_data_l
 1291           0001              .ifdef HUC
 1292  01:AA26  9D 47 27           sta    _vdc,X
 1293                             .endif
 1294  01:AA29  AD DD 26          lda     hds
 1295  01:AA2C  8D 03 00          sta     video_data_h
 1296           0001              .ifdef HUC
 1297  01:AA2F  9D 48 27           sta    _vdc+1,X
 1298                             .endif
 1299                     
 1300  01:AA32  A9 0B             lda     #$0b
 1301  01:AA34  85 F7             sta     <vdc_reg
 1302  01:AA36  8D 00 00          sta     video_reg
 1303           0001              .ifdef HUC
 1304  01:AA39  0A                 asl    A
 1305  01:AA3A  22                 sax
 1306                             .endif
 1307  01:AA3B  AD DE 26          lda     hdw
 1308  01:AA3E  8D 02 00          sta     video_data_l
 1309           0001              .ifdef HUC
 1310  01:AA41  9D 47 27           sta    _vdc,X
 1311                             .endif
 1312  01:AA44  AD DF 26          lda     hde
 1313  01:AA47  8D 03 00          sta     video_data_h
 1314           0001              .ifdef HUC
 1315  01:AA4A  9D 48 27           sta    _vdc+1,X
 1316                             .endif
 1317                     
 1318  01:AA4D            .xres_err:
 1319  01:AA4D  A9 20             lda     #$20
 1320  01:AA4F  14 F5             trb     <irq_m          ; re-enable VSYNC processing
 1321  01:AA51  60                rts
 1322                     
 1323  01:AA52  00 01 02  .vce_tab:       .db      0, 1, 2
 1324  01:AA55  02 03 05  .hsw_tab:       .db      2, 3, 5
 1325  01:AA58  12 19 2A  .hds_tab:       .db     18,25,42
 1326  01:AA5B  26 33 52  .hde_tab:       .db     38,51,82
 1327                     
 1328           0000              .bank   LIB1_BANK       ; restore bank context
 1329                     
 1330                     ; ----
 1331                     ; set_bat_size
 1332                     ; ----
 1333                     ; set bg map virtual size
 1334                     ; ----
 1335                     ; IN : A = new size (0-7)
 1336                     ; ----
 1337                     
 1338  00:E4F9            set_bat_size:
 1339  00:E4F9  29 07             and   #$07
 1340  00:E4FB  48                pha
 1341                             ; --
 1342           0000              .if (CDROM)
 1345                             .else
 1346                              vreg  #9
       00:E4FC  A9 09              lda    #9
       00:E4FE  85 F7              sta    <vdc_reg
                0001               .if (2 = ARG_IMMED)
       00:E500  03 09               st0   #9
                                   .else
                                   .endif
 1347  00:E502  68                 pla
 1348  00:E503  AA                 tax
 1349  00:E504  0A                 asl   A
 1350  00:E505  0A                 asl   A
 1351  00:E506  0A                 asl   A
 1352  00:E507  0A                 asl   A
 1353           0001               .ifdef HUC
 1354  00:E508  8D 59 27            sta   _vdc+18
 1355                              .endif
 1356  00:E50B  8D 02 00           sta   video_data_l
 1357                             .endif
 1358                             ; --
 1359  00:E50E  BD 32 E5          lda  .width,X
 1360  00:E511  8D D4 26          sta   bat_width
 1361  00:E514  9C D5 26          stz   bat_width+1
 1362  00:E517  3A                dec   A
 1363  00:E518  8D D7 26          sta   bat_hmask
 1364                             ; --
 1365  00:E51B  BD 3A E5          lda  .height,X
 1366  00:E51E  8D D6 26          sta   bat_height
 1367  00:E521  8D C9 26          sta   mapbat_bottom
 1368  00:E524  9C C8 26          stz   mapbat_top
 1369  00:E527  9C C6 26          stz   mapbat_top_base
 1370  00:E52A  9C C7 26          stz   mapbat_top_base+1
 1371  00:E52D  3A                dec   A
 1372  00:E52E  8D D8 26          sta   bat_vmask
 1373  00:E531  60                rts
 1374                     
 1375  00:E532  20 40 80  .width:  .db $20,$40,$80,$80,$20,$40,$80,$80
       00:E535  80 20 40  
       00:E538  80 80     
 1376  00:E53A  20 20 20  .height: .db $20,$20,$20,$20,$40,$40,$40,$40
       00:E53D  20 40 40  
       00:E540  40 40     
 1377                     
 1378                     
 1379                     ; ----
 1380                     ; init_psg
 1381                     ; ----
 1382                     ; initialize the sound generator.
 1383                     ; ----
 1384                     
 1385  00:E542            init_psg:
 1386           0001             .if !(CDROM)
 1387  00:E542  64 E6             stz   <psg_irqflag      ; IRQ not running
 1388  00:E544  A9 01             lda   #1
 1389  00:E546  85 E7             sta   <psg_inhibit      ; inhibit PSG playing
 1390                            .endif
 1391                     
 1392  00:E548  9C 01 08          stz   psg_mainvol       ; main volume to zero
 1393  00:E54B  9C 09 08          stz   psg_lfoctrl       ; disable the LFO
 1394                             
 1395  00:E54E  A9 05             lda   #5                ; set volume to zero for each channel
 1396  00:E550  8D 00 08  .clear: sta   psg_ch            ; and disable them
 1397  00:E553  9C 04 08          stz   psg_ctrl
 1398  00:E556  9C 05 08          stz   psg_pan
 1399  00:E559  3A                dec   A
 1400  00:E55A  10 F4             bpl   .clear
 1401                     
 1402  00:E55C  A9 04             lda   #4                ; disable noise for channel 5 & 6
 1403  00:E55E  8D 00 08          sta   psg_ch
 1404  00:E561  9C 07 08          stz   psg_noise
 1405  00:E564  A9 05             lda   #5
 1406  00:E566  8D 00 08          sta   psg_ch
 1407  00:E569  9C 07 08          stz   psg_noise
 1408  00:E56C  60                rts
 1409                     
 1410                     
 1411                     ; ----------------------------------
 1412                     ; Some simple copy/compare functions
 1413                     ; ----------------------------------
 1414                     
 1415                     ; ----
 1416                     ; _strcpy(char *dest [di], char *src [si])
 1417                     ; _strcat(char *dest [di], char *src [si])
 1418                     ; ----
 1419                     ; Copy/Concatenate a string to another string
 1420                     ; ----
 1421                     ;
 1422  00:E56D            _strcat.2:
 1423  00:E56D  B2 F0     .endlp:   lda   [_di]           ; same as strcpy, but find end
 1424  00:E56F  F0 08               beq   _strcpy.2       ; of dest string first
 1425                               incw  <_di
       00:E571  E6 F0              inc    <_di              ; value at stated memory
       00:E573  D0 02              bne    .x_00099           ; location
       00:E575  E6 F1              inc    <_di+1
       00:E577            .x_00099:
 1426  00:E577  80 F4               bra   .endlp
 1427                     
 1428  00:E579            _strcpy.2:
 1429  00:E579  B2 EE     .cpylp:   lda   [_si]
 1430  00:E57B  92 F0               sta   [_di]
 1431  00:E57D  F0 0E               beq   .out
 1432                               incw  <_di
       00:E57F  E6 F0              inc    <_di              ; value at stated memory
       00:E581  D0 02              bne    .x_00100           ; location
       00:E583  E6 F1              inc    <_di+1
       00:E585            .x_00100:
 1433                               incw  <_si
       00:E585  E6 EE              inc    <_si              ; value at stated memory
       00:E587  D0 02              bne    .x_00101           ; location
       00:E589  E6 EF              inc    <_si+1
       00:E58B            .x_00101:
 1434  00:E58B  80 EC               bra   .cpylp
 1435  00:E58D  60        .out:     rts
 1436                     
 1437                     
 1438                     ; ----
 1439                     ; _strncpy(char *dest [di], char *src [si], int count [acc])
 1440                     ; _strncat(char *dest [di], char *src [si], int count [acc])
 1441                     ; ----
 1442                     ; Copy/Concatenate a string to another string
 1443                     ; ----
 1444                     ;
 1445                     
 1446  00:E58E            _strncat.3:
 1447                             __stw   <_ax
       00:E58E  86 F8              stx    <_ax
       00:E590  85 F9              sta    <_ax+1
 1448  00:E592  B2 F0     .endlp:   lda   [_di]
 1449  00:E594  F0 08               beq   .cpylp
 1450                               incw  <_di
       00:E596  E6 F0              inc    <_di              ; value at stated memory
       00:E598  D0 02              bne    .x_00103           ; location
       00:E59A  E6 F1              inc    <_di+1
       00:E59C            .x_00103:
 1451  00:E59C  80 F4               bra   .endlp
 1452  00:E59E            .cpylp:
 1453  00:E59E  B2 EE               lda   [_si]
 1454  00:E5A0  92 F0               sta   [_di]
 1455  00:E5A2  F0 22               beq   .out
 1456                               incw  <_di
       00:E5A4  E6 F0              inc    <_di              ; value at stated memory
       00:E5A6  D0 02              bne    .x_00104           ; location
       00:E5A8  E6 F1              inc    <_di+1
       00:E5AA            .x_00104:
 1457                               incw  <_si
       00:E5AA  E6 EE              inc    <_si              ; value at stated memory
       00:E5AC  D0 02              bne    .x_00105           ; location
       00:E5AE  E6 EF              inc    <_si+1
       00:E5B0            .x_00105:
 1458                               decw  <_ax
       00:E5B0  38                 sec                    ; value at stated memory
       00:E5B1  A5 F8              lda    <_ax              ; location
       00:E5B3  E9 01              sbc    #1
       00:E5B5  85 F8              sta    <_ax
       00:E5B7  A5 F9              lda    <_ax+1
       00:E5B9  E9 00              sbc    #0
       00:E5BB  85 F9              sta    <_ax+1
 1459                               tstw  <_ax
       00:E5BD  A5 F8              lda   <_ax               ; value at stated memory
       00:E5BF  05 F9              ora   <_ax+1             ; location is zero
 1460  00:E5C1  D0 DB               bne   .cpylp
 1461  00:E5C3  62                  cla
 1462  00:E5C4  92 F0               sta   [_di]
 1463  00:E5C6  60        .out:     rts
 1464                     
 1465                     
 1466  00:E5C7            _strncpy.3:
 1467                             __stw   <_ax
       00:E5C7  86 F8              stx    <_ax
       00:E5C9  85 F9              sta    <_ax+1
 1468  00:E5CB            .lp:
 1469  00:E5CB  B2 EE               lda   [_si]
 1470  00:E5CD  92 F0               sta   [_di]
 1471  00:E5CF  F0 21               beq   .out
 1472                               incw  <_di
       00:E5D1  E6 F0              inc    <_di              ; value at stated memory
       00:E5D3  D0 02              bne    .x_00109           ; location
       00:E5D5  E6 F1              inc    <_di+1
       00:E5D7            .x_00109:
 1473                               incw  <_si
       00:E5D7  E6 EE              inc    <_si              ; value at stated memory
       00:E5D9  D0 02              bne    .x_00110           ; location
       00:E5DB  E6 EF              inc    <_si+1
       00:E5DD            .x_00110:
 1474                               decw  <_ax
       00:E5DD  38                 sec                    ; value at stated memory
       00:E5DE  A5 F8              lda    <_ax              ; location
       00:E5E0  E9 01              sbc    #1
       00:E5E2  85 F8              sta    <_ax
       00:E5E4  A5 F9              lda    <_ax+1
       00:E5E6  E9 00              sbc    #0
       00:E5E8  85 F9              sta    <_ax+1
 1475                               tstw  <_ax
       00:E5EA  A5 F8              lda   <_ax               ; value at stated memory
       00:E5EC  05 F9              ora   <_ax+1             ; location is zero
 1476  00:E5EE  F0 02               beq   .out
 1477  00:E5F0  80 D9               bra   .lp
 1478  00:E5F2  60        .out:     rts
 1479                     
 1480                     
 1481                     ; ----
 1482                     ; _memcpy(char *dest [di], char *src [si], int count [acc])
 1483                     ; ----
 1484                     ; Copy memory
 1485                     ; ----
 1486                     ;
 1487  00:E5F3            _memcpy.3:
 1488                             __stw   <_ax
       00:E5F3  86 F8              stx    <_ax
       00:E5F5  85 F9              sta    <_ax+1
 1489  00:E5F7  B2 EE     .cpylp:   lda   [_si]
 1490  00:E5F9  92 F0               sta   [_di]
 1491                               incw  <_si
       00:E5FB  E6 EE              inc    <_si              ; value at stated memory
       00:E5FD  D0 02              bne    .x_00114           ; location
       00:E5FF  E6 EF              inc    <_si+1
       00:E601            .x_00114:
 1492                               incw  <_di
       00:E601  E6 F0              inc    <_di              ; value at stated memory
       00:E603  D0 02              bne    .x_00115           ; location
       00:E605  E6 F1              inc    <_di+1
       00:E607            .x_00115:
 1493                               decw  <_ax
       00:E607  38                 sec                    ; value at stated memory
       00:E608  A5 F8              lda    <_ax              ; location
       00:E60A  E9 01              sbc    #1
       00:E60C  85 F8              sta    <_ax
       00:E60E  A5 F9              lda    <_ax+1
       00:E610  E9 00              sbc    #0
       00:E612  85 F9              sta    <_ax+1
 1494                               tstw  <_ax
       00:E614  A5 F8              lda   <_ax               ; value at stated memory
       00:E616  05 F9              ora   <_ax+1             ; location is zero
 1495  00:E618  D0 DD               bne   .cpylp
 1496  00:E61A  60                  rts
 1497                     
 1498                     ; ----
 1499                     ; _memcmp(char *dest [di], char *src [si], int count [acc])
 1500                     ; ----
 1501                     ; Compare memory
 1502                     ; ----
 1503                     ;
 1504  00:E61B            _memcmp.3:
 1505                             __stw   <_ax
       00:E61B  86 F8              stx    <_ax
       00:E61D  85 F9              sta    <_ax+1
 1506  00:E61F  B2 F0     .cmplp:   lda   [_di]
 1507                               sub   [_si]
                0000              .if (1 = 2)            ; from register A (handle
                                  .else
       00:E621  38                 sec
       00:E622  F2 EE              sbc    [_si]
                                  .endif
 1508  00:E624  30 05               bmi   .minus
 1509  00:E626  F0 07               beq   .cont
 1510  00:E628  AA        .plus:    tax
 1511  00:E629  62                  cla
 1512  00:E62A  60                  rts
 1513  00:E62B  AA        .minus:   tax
 1514  00:E62C  A9 FF               lda   #$ff
 1515  00:E62E  60                  rts
 1516                     .cont:    incw  <_di
       00:E62F  E6 F0              inc    <_di              ; value at stated memory
       00:E631  D0 02              bne    .x_00120           ; location
       00:E633  E6 F1              inc    <_di+1
       00:E635            .x_00120:
 1517                               incw  <_si
       00:E635  E6 EE              inc    <_si              ; value at stated memory
       00:E637  D0 02              bne    .x_00121           ; location
       00:E639  E6 EF              inc    <_si+1
       00:E63B            .x_00121:
 1518                               decw  <_ax
       00:E63B  38                 sec                    ; value at stated memory
       00:E63C  A5 F8              lda    <_ax              ; location
       00:E63E  E9 01              sbc    #1
       00:E640  85 F8              sta    <_ax
       00:E642  A5 F9              lda    <_ax+1
       00:E644  E9 00              sbc    #0
       00:E646  85 F9              sta    <_ax+1
 1519                               tstw  <_ax
       00:E648  A5 F8              lda   <_ax               ; value at stated memory
       00:E64A  05 F9              ora   <_ax+1             ; location is zero
 1520  00:E64C  D0 D1               bne   .cmplp
 1521  00:E64E  82                  clx
 1522  00:E64F  60                  rts
 1523                     
 1524                     ; ----
 1525                     ; _strcmp(char *dest [di], char *src [si])
 1526                     ; ----
 1527                     ; Compare strings
 1528                     ; ----
 1529                     ;
 1530  00:E650            _strcmp.2:
 1531  00:E650  B2 F0     .cmplp:   lda   [_di]
 1532                               sub   [_si]
                0000              .if (1 = 2)            ; from register A (handle
                                  .else
       00:E652  38                 sec
       00:E653  F2 EE              sbc    [_si]
                                  .endif
 1533  00:E655  30 05               bmi   .minus
 1534  00:E657  F0 07               beq   .cont
 1535  00:E659  AA        .plus:    tax
 1536  00:E65A  62                  cla
 1537  00:E65B  60                  rts
 1538  00:E65C  AA        .minus:   tax
 1539  00:E65D  A9 FF               lda   #$ff
 1540  00:E65F  60                  rts
 1541  00:E660  B2 F0     .cont:    lda   [_di]
 1542  00:E662  F0 0E               beq   .out
 1543                               incw  <_di
       00:E664  E6 F0              inc    <_di              ; value at stated memory
       00:E666  D0 02              bne    .x_00125           ; location
       00:E668  E6 F1              inc    <_di+1
       00:E66A            .x_00125:
 1544                               incw  <_si
       00:E66A  E6 EE              inc    <_si              ; value at stated memory
       00:E66C  D0 02              bne    .x_00126           ; location
       00:E66E  E6 EF              inc    <_si+1
       00:E670            .x_00126:
 1545  00:E670  80 DE               bra   .cmplp
 1546  00:E672  82        .out:     clx
 1547  00:E673  60                  rts
 1548                     
 1549                     ; ----
 1550                     ; _strncmp(char *dest [di], char *src [si], int count [acc])
 1551                     ; ----
 1552                     ; Compare strings
 1553                     ; ----
 1554                     ;
 1555  00:E674            _strncmp.3:
 1556                             __stw   <_ax
       00:E674  86 F8              stx    <_ax
       00:E676  85 F9              sta    <_ax+1
 1557  00:E678  B2 F0     .cmplp:   lda   [_di]
 1558                               sub   [_si]
                0000              .if (1 = 2)            ; from register A (handle
                                  .else
       00:E67A  38                 sec
       00:E67B  F2 EE              sbc    [_si]
                                  .endif
 1559  00:E67D  30 05               bmi   .minus
 1560  00:E67F  F0 07               beq   .cont
 1561  00:E681  AA        .plus:    tax
 1562  00:E682  62                  cla
 1563  00:E683  60                  rts
 1564  00:E684  AA        .minus:   tax
 1565  00:E685  A9 FF               lda   #$ff
 1566  00:E687  60                  rts
 1567  00:E688  B2 F0     .cont:    lda   [_di]
 1568  00:E68A  F0 1F               beq   .out
 1569                               incw  <_di
       00:E68C  E6 F0              inc    <_di              ; value at stated memory
       00:E68E  D0 02              bne    .x_00129           ; location
       00:E690  E6 F1              inc    <_di+1
       00:E692            .x_00129:
 1570                               incw  <_si
       00:E692  E6 EE              inc    <_si              ; value at stated memory
       00:E694  D0 02              bne    .x_00130           ; location
       00:E696  E6 EF              inc    <_si+1
       00:E698            .x_00130:
 1571                               decw  <_ax
       00:E698  38                 sec                    ; value at stated memory
       00:E699  A5 F8              lda    <_ax              ; location
       00:E69B  E9 01              sbc    #1
       00:E69D  85 F8              sta    <_ax
       00:E69F  A5 F9              lda    <_ax+1
       00:E6A1  E9 00              sbc    #0
       00:E6A3  85 F9              sta    <_ax+1
 1572                               tstw  <_ax
       00:E6A5  A5 F8              lda   <_ax               ; value at stated memory
       00:E6A7  05 F9              ora   <_ax+1             ; location is zero
 1573  00:E6A9  D0 CD               bne   .cmplp
 1574  00:E6AB  82        .out      clx
 1575  00:E6AC  62                  cla
 1576  00:E6AD  60                  rts
 1577                     
#[2]   startup.asm
#[3]   scroll.asm
 1212                             .include "scroll.asm"
    1                     ;
    2                     ; SCROLL.ASM  -  MagicKit Scrolling Library
    3                     ;
    4                     ;
    5                     
    6                     ; [ 28] user scrolling vars
    7           26E0                      .bss
    8  --:26E0            scroll_xl:      .ds 4   ; x       |
    9  --:26E4            scroll_xh:      .ds 4   ;         |
   10  --:26E8            scroll_yl:      .ds 4   ; y       |
   11  --:26EC            scroll_yh:      .ds 4   ;         | scrolling table
   12  --:26F0            scroll_top:     .ds 4   ; top     |
   13  --:26F4            scroll_bottom:  .ds 4   ; bottom  |
   14  --:26F8            scroll_cr:      .ds 4   ; control |
   15                     
   16                     ; [ 69] display list
   17           26FC                      .bss
   18  --:26FC            s_idx           .ds 1
   19  --:26FD            s_xl            .ds 8
   20  --:2705            s_xh            .ds 8
   21  --:270D            s_yl            .ds 8
   22  --:2715            s_yh            .ds 8
   23  --:271D            s_cr            .ds 8
   24  --:2725            s_top           .ds 9
   25  --:272E            s_bottom        .ds 8
   26  --:2736            s_list          .ds 8
   27  --:273E            s_work          .ds 3
   28                     
   29           E6AE                      .code
   30           0001                      .bank   LIB2_BANK
   31                     ; ----
   32                     ; build_display_list
   33                     ; ----
   34                     
   35  01:AA5E            build_disp_list:
   36                     
   37                         ; ----
   38                         ; quick test
   39                         ;
   40  01:AA5E  AD F8 26          lda   scroll_cr
   41  01:AA61  0D F9 26          ora   scroll_cr+1
   42  01:AA64  0D FA 26          ora   scroll_cr+2
   43  01:AA67  0D FB 26          ora   scroll_cr+3
   44  01:AA6A  29 01             and   #$01
   45  01:AA6C  D0 02             bne   .l0
   46                             ; --
   47  01:AA6E  18                clc
   48  01:AA6F  60                rts
   49                     
   50                         ; ----
   51                         ; parse user scroll list
   52                         ;
   53  01:AA70  82        .l0:    clx
   54  01:AA71  C2                cly
   55                             ; --
   56  01:AA72  B9 F8 26  .l1:    lda   scroll_cr,Y
   57  01:AA75  29 01             and   #$01
   58  01:AA77  F0 38             beq   .l2
   59  01:AA79  B9 F0 26          lda   scroll_top,Y
   60  01:AA7C  CD DA 26          cmp   scr_height
   61                             bhs   .l2
       01:AA7F  B0 30              bcs    .l2
   62  01:AA81  3A                dec   A
   63  01:AA82  20 18 AB          jsr   .check_list
   64  01:AA85  B0 2A             bcs   .l2
   65                             ; -- copy scanline
   66  01:AA87  9D 25 27          sta   s_top,X
   67  01:AA8A  B9 F4 26          lda   scroll_bottom,Y
   68  01:AA8D  9D 2E 27          sta   s_bottom,X
   69                             ; -- copy display control bits
   70  01:AA90  B9 F8 26          lda   scroll_cr,Y
   71  01:AA93  29 C0             and   #$C0
   72  01:AA95  9D 1D 27          sta   s_cr,X
   73                             ; -- copy bat coordinates
   74  01:AA98  B9 E0 26          lda   scroll_xl,Y
   75  01:AA9B  9D FD 26          sta   s_xl,X
   76  01:AA9E  B9 E4 26          lda   scroll_xh,Y
   77  01:AAA1  9D 05 27          sta   s_xh,X
   78  01:AAA4  B9 E8 26          lda   scroll_yl,Y
   79  01:AAA7  9D 0D 27          sta   s_yl,X
   80  01:AAAA  B9 EC 26          lda   scroll_yh,Y
   81  01:AAAD  9D 15 27          sta   s_yh,X
   82  01:AAB0  E8                inx
   83  01:AAB1            .l2:
   84  01:AAB1  C8                iny
   85  01:AAB2  C0 04             cpy   #4
   86                             blo   .l1
       01:AAB4  90 BC              bcc    .l1
   87                     
   88                         ; ----
   89                         ; init display list
   90                         ;
   91  01:AAB6  A9 F0             lda   #$F0
   92  01:AAB8  9D 25 27          sta   s_top,X
   93  01:AABB  9D 2E 27          sta   s_bottom,X
   94  01:AABE  E8                inx
   95  01:AABF  8E FC 26          stx   s_idx
   96                             ; --
   97  01:AAC2  C2                cly
   98  01:AAC3  62                cla
   99  01:AAC4  99 36 27  .l3:    sta   s_list,Y
  100  01:AAC7  1A                inc   A
  101  01:AAC8  C8                iny
  102  01:AAC9  CA                dex
  103  01:AACA  D0 F8             bne   .l3
  104                     
  105                         ; ----
  106                         ; sort display list
  107                         ;
  108  01:AACC  AD FC 26          lda   s_idx
  109  01:AACF  8D 3E 27          sta   s_work
  110  01:AAD2  80 39             bra   .t4
  111  01:AAD4            .t1:
  112  01:AAD4  9C 3F 27          stz   s_work+1
  113  01:AAD7  A0 01             ldy   #1
  114  01:AAD9            .t2:
  115  01:AAD9  BE 35 27          ldx   s_list-1,Y
  116  01:AADC  BD 25 27          lda   s_top,X
  117  01:AADF  1A                inc   A
  118  01:AAE0  8D 40 27          sta   s_work+2
  119  01:AAE3  BE 36 27          ldx   s_list,Y
  120  01:AAE6  BD 25 27          lda   s_top,X
  121  01:AAE9  1A                inc   A
  122  01:AAEA  CD 40 27          cmp   s_work+2
  123                             bhs   .t3
       01:AAED  B0 0D              bcs    .t3
  124                             ; --
  125  01:AAEF  B9 35 27          lda   s_list-1,Y
  126  01:AAF2  99 36 27          sta   s_list,Y
  127  01:AAF5  8A                txa
  128  01:AAF6  99 35 27          sta   s_list-1,Y
  129  01:AAF9  EE 3F 27          inc   s_work+1
  130  01:AAFC            .t3:
  131  01:AAFC  C8                iny
  132  01:AAFD  CC 3E 27          cpy   s_work
  133                             blo   .t2
       01:AB00  90 D7              bcc    .t2
  134  01:AB02  AD 3F 27          lda   s_work+1
  135  01:AB05  F0 0A             beq   .t5
  136  01:AB07  CE 3E 27          dec   s_work
  137  01:AB0A  AD 3E 27          lda   s_work
  138  01:AB0D  C9 02     .t4:    cmp   #2
  139                             bhs   .t1
       01:AB0F  B0 C3              bcs    .t1
  140  01:AB11            .t5:
  141                         ; ----
  142                         ; return
  143                         ;
  144  01:AB11  AD FC 26          lda   s_idx
  145                             add   #$FE
                0000              .if (1 = 2)            ; register A (handle carry
                                  .else
       01:AB14  18                 clc
       01:AB15  69 FE              adc    #$FE
                                  .endif
  146  01:AB17  60                rts
  147                     
  148                         ; ----
  149                         ; scan display list
  150                         ;
  151  01:AB18            .check_list:
  152                     
  153  01:AB18  DA                phx
  154  01:AB19  CA        .x1:    dex
  155  01:AB1A  30 08             bmi   .x2
  156  01:AB1C  DD 25 27          cmp   s_top,X
  157  01:AB1F  D0 F8             bne   .x1
  158  01:AB21  FA                plx
  159  01:AB22  38                sec
  160  01:AB23  60                rts
  161                             ; --
  162  01:AB24  FA        .x2:    plx
  163  01:AB25  18                clc
  164  01:AB26  60                rts
  165                     
  166           0000                      .bank   LIB1_BANK       ; restore context
  167                     
#[2]   startup.asm
#[3]   math.asm
 1213                             .include "math.asm"
    1                     ;
    2                     ; MATH.ASM  -  MagicKit Standard Math Routines
    3                     ;
    4                     ;
    5                     
    6                     
    7                     ; ----
    8                     ; divu8
    9                     ; ----
   10                     ; 8-bit unsigned division
   11                     ; ----
   12                     ; OUT : _CL = _AL / _BL
   13                     ;       _DL = _AL % _BL
   14                     ; ----
   15                     
   16  00:E6AE            divu8:
   17  00:E6AE  A5 F8             lda   <_al
   18  00:E6B0  0A                asl   A
   19  00:E6B1  85 FC             sta   <_cl
   20  00:E6B3  62                cla
   21  00:E6B4  A0 08             ldy   #8
   22  00:E6B6            .l1:
   23  00:E6B6  2A                rol   A
   24  00:E6B7  C5 FA             cmp   <_bl
   25  00:E6B9  90 02             bcc   .l2
   26  00:E6BB  E5 FA             sbc   <_bl
   27  00:E6BD            .l2:
   28  00:E6BD  26 FC             rol   <_cl
   29  00:E6BF  88                dey
   30  00:E6C0  D0 F4             bne   .l1
   31                     
   32  00:E6C2  85 FE             sta   <_dl
   33  00:E6C4  60                rts
   34                     
   35                     
   36                     ; ----
   37                     ; divu10
   38                     ; ----
   39                     ; 16-bit unsigned division by 10
   40                     ; ----
   41                     ; OUT : _DX = _DX / 10
   42                     ;         A = _DX % 10
   43                     ; ----
   44                     
   45  00:E6C5            divu10:
   46  00:E6C5  A0 10               ldy   #16
   47  00:E6C7  62                  cla
   48  00:E6C8  06 FE               asl   <_dl
   49  00:E6CA  26 FF               rol   <_dh
   50  00:E6CC  2A        .l1:      rol   a
   51  00:E6CD  C9 0A               cmp   #10
   52                               blo   .l2
       00:E6CF  90 02              bcc    .l2
   53  00:E6D1  E9 0A               sbc   #10
   54  00:E6D3  26 FE     .l2:      rol   <_dl
   55  00:E6D5  26 FF               rol   <_dh
   56  00:E6D7  88                  dey
   57  00:E6D8  D0 F2               bne   .l1
   58  00:E6DA  60                  rts
   59                     
   60           0001              .if (!CDROM)
   61                     ; ----
   62                     ; mulu8
   63                     ; ----
   64                     ; 8-bit unsigned multiplication
   65                     ; ----
   66                     ; OUT : _CX = _AL * _BL
   67                     ; ----
   68                     
   69  00:E6DB            mulu8:
   70  00:E6DB  A5 FA             lda   <_bl
   71  00:E6DD  85 FD             sta   <_ch
   72                     
   73  00:E6DF  62                cla
   74  00:E6E0  A0 08             ldy   #8
   75  00:E6E2            .l1:
   76  00:E6E2  0A                asl   A
   77  00:E6E3  26 FD             rol   <_ch
   78  00:E6E5  90 07             bcc   .next
   79                             add   <_al
                0000              .if (1 = 2)            ; register A (handle carry
                                  .else
       00:E6E7  18                 clc
       00:E6E8  65 F8              adc    <_al
                                  .endif
   80  00:E6EA  90 02             bcc   .next
   81  00:E6EC  E6 FD             inc   <_ch
   82  00:E6EE            .next:
   83  00:E6EE  88                dey
   84  00:E6EF  D0 F1             bne   .l1
   85                     
   86  00:E6F1  85 FC             sta   <_cl
   87  00:E6F3  60                rts
   88                     
   89                     
   90                     ; ----
   91                     ; mulu16
   92                     ; ----
   93                     ; 16-bit unsigned multiplication
   94                     ; ----
   95                     ; OUT : _DX/CX = _AX * _BX
   96                     ; ----
   97                     
   98  00:E6F4            mulu16:
   99  00:E6F4  A5 F9             lda   <_ah
  100  00:E6F6  05 FB             ora   <_bh
  101  00:E6F8  D0 07             bne   .l1
  102                     
  103                             stwz  <_dx              ;  8-bit multiplication
       00:E6FA  64 FE              stz    LOW_BYTE <_dx
       00:E6FC  64 FF              stz    HIGH_BYTE <_dx
  104  00:E6FE  4C DB E6          jmp   mulu8
  105                     
  106                     .l1:    stw   <_bx,<_dx         ; 16-bit multiplication
       00:E701  A5 FA              lda    LOW_BYTE <_bx
       00:E703  85 FE              sta    LOW_BYTE <_dx
       00:E705  A5 FB              lda    HIGH_BYTE <_bx
       00:E707  85 FF              sta    HIGH_BYTE <_dx
  107                             stwz  <_cx
       00:E709  64 FC              stz    LOW_BYTE <_cx
       00:E70B  64 FD              stz    HIGH_BYTE <_cx
  108  00:E70D  A0 10             ldy   #16
  109                     
  110                     .l2:    aslw  <_cx
       00:E70F  06 FC              asl    <_cx              ; word-sized value (at stated
       00:E711  26 FD              rol    <_cx+1            ; memory location)
  111                             rolw  <_dx
       00:E713  26 FE              rol    <_dx              ; (at stated memory location)
       00:E715  26 FF              rol    <_dx+1
  112  00:E717  90 15             bcc   .l3
  113                     
  114                             addw  <_ax,<_cx
                0000              .if     (2 = 3)
                                  .else
                                   ; 2-arg mode
                                   ;
       00:E719  18                 clc
       00:E71A  A5 FC              lda    LOW_BYTE <_cx
       00:E71C  65 F8              adc    LOW_BYTE <_ax
       00:E71E  85 FC              sta    LOW_BYTE <_cx
       00:E720  A5 FD              lda    HIGH_BYTE <_cx
       00:E722  65 F9              adc    HIGH_BYTE <_ax
       00:E724  85 FD              sta    HIGH_BYTE <_cx
                                  .endif
  115  00:E726  90 06             bcc   .l3
  116                             incw  <_dx
       00:E728  E6 FE              inc    <_dx              ; value at stated memory
       00:E72A  D0 02              bne    .x_00147           ; location
       00:E72C  E6 FF              inc    <_dx+1
       00:E72E            .x_00147:
  117                     
  118  00:E72E  88        .l3:    dey
  119  00:E72F  D0 DE             bne   .l2
  120  00:E731  60                rts
  121                             .endif
  122                     
  123                     ; ----
  124                     ; mulu32
  125                     ; ----
  126                     ; 32-bit unsigned multiplication
  127                     ; ----
  128                     ; OUT : _DX/CX = _BX/AX * _DX/CX
  129                     ; ----
  130                     
  131  00:E732            mulu32:
  132                             stw   <_cx,<_si
       00:E732  A5 FC              lda    LOW_BYTE <_cx
       00:E734  85 EE              sta    LOW_BYTE <_si
       00:E736  A5 FD              lda    HIGH_BYTE <_cx
       00:E738  85 EF              sta    HIGH_BYTE <_si
  133                             stw   <_dx,<_di
       00:E73A  A5 FE              lda    LOW_BYTE <_dx
       00:E73C  85 F0              sta    LOW_BYTE <_di
       00:E73E  A5 FF              lda    HIGH_BYTE <_dx
       00:E740  85 F1              sta    HIGH_BYTE <_di
  134                             stwz  <_cx
       00:E742  64 FC              stz    LOW_BYTE <_cx
       00:E744  64 FD              stz    HIGH_BYTE <_cx
  135                             stwz  <_dx
       00:E746  64 FE              stz    LOW_BYTE <_dx
       00:E748  64 FF              stz    HIGH_BYTE <_dx
  136  00:E74A  A0 20             ldy   #32
  137  00:E74C            .loop:
  138                             aslw  <_cx
       00:E74C  06 FC              asl    <_cx              ; word-sized value (at stated
       00:E74E  26 FD              rol    <_cx+1            ; memory location)
  139                             rolw  <_dx
       00:E750  26 FE              rol    <_dx              ; (at stated memory location)
       00:E752  26 FF              rol    <_dx+1
  140                             rolw  <_si
       00:E754  26 EE              rol    <_si              ; (at stated memory location)
       00:E756  26 EF              rol    <_si+1
  141                             rolw  <_di
       00:E758  26 F0              rol    <_di              ; (at stated memory location)
       00:E75A  26 F1              rol    <_di+1
  142  00:E75C  90 19             bcc   .next
  143                     
  144                             addw  <_ax,<_cx
                0000              .if     (2 = 3)
                                  .else
                                   ; 2-arg mode
                                   ;
       00:E75E  18                 clc
       00:E75F  A5 FC              lda    LOW_BYTE <_cx
       00:E761  65 F8              adc    LOW_BYTE <_ax
       00:E763  85 FC              sta    LOW_BYTE <_cx
       00:E765  A5 FD              lda    HIGH_BYTE <_cx
       00:E767  65 F9              adc    HIGH_BYTE <_ax
       00:E769  85 FD              sta    HIGH_BYTE <_cx
                                  .endif
  145                             adcw  <_bx,<_dx
       00:E76B  A5 FE              lda    LOW_BYTE <_dx
       00:E76D  65 FA              adc    LOW_BYTE <_bx
       00:E76F  85 FE              sta    LOW_BYTE <_dx
       00:E771  A5 FF              lda    HIGH_BYTE <_dx
       00:E773  65 FB              adc    HIGH_BYTE <_bx
       00:E775  85 FF              sta    HIGH_BYTE <_dx
  146  00:E777            .next:
  147  00:E777  88                dey
  148  00:E778  D0 D2             bne   .loop
  149  00:E77A  60                rts
  150                     
  151                     
  152                     ; ----
  153                     ; srand
  154                     ; ----
  155                     ; set random seed
  156                     ; ----
  157                     ; IN : _DX/CX = 32-bit seed
  158                     ; ----
  159                     
  160           2741              .bss
  161  --:2741            _rndptr         .ds 2
  162  --:2743            _rndseed        .ds 2
  163  --:2745            _rndn1          .ds 1
  164  --:2746            _rndn2          .ds 1
  165                     
  166           E77B              .code
  167  00:E77B            srand:
  168                             stw     <_cx,_rndptr
       00:E77B  A5 FC              lda    LOW_BYTE <_cx
       00:E77D  8D 41 27           sta    LOW_BYTE _rndptr
       00:E780  A5 FD              lda    HIGH_BYTE <_cx
       00:E782  8D 42 27           sta    HIGH_BYTE _rndptr
  169                             stw     <_dx,_rndn1
       00:E785  A5 FE              lda    LOW_BYTE <_dx
       00:E787  8D 45 27           sta    LOW_BYTE _rndn1
       00:E78A  A5 FF              lda    HIGH_BYTE <_dx
       00:E78C  8D 46 27           sta    HIGH_BYTE _rndn1
  170  00:E78F  AD 42 27          lda     _rndptr+1
  171  00:E792  09 E0             ora     #$e0
  172  00:E794  8D 42 27          sta     _rndptr+1
  173  00:E797  C9 F4             cmp     #$f4
  174                             blo     .exit
       00:E799  90 05              bcc    .exit
  175  00:E79B  A9 E0             lda     #$e0
  176  00:E79D  8D 42 27          sta     _rndptr+1
  177  00:E7A0            .exit:
  178  00:E7A0  60                rts
  179                     
  180                     ; ----
  181                     ; rand
  182                     ; ----
  183                     ; return 16-bit random number
  184                     ; ----
  185                     ; OUT: _DX
  186                     ; ----
  187                     
  188           2014              .zp
  189  --:2014            _rndzp  .ds     2
  190                     
  191           E7A1              .code
  192  00:E7A1  20 AF E7  rand:   jsr     randomize
  193                             stw     _rndn1,<_dx
       00:E7A4  AD 45 27           lda    LOW_BYTE _rndn1
       00:E7A7  85 FE              sta    LOW_BYTE <_dx
       00:E7A9  AD 46 27           lda    HIGH_BYTE _rndn1
       00:E7AC  85 FF              sta    HIGH_BYTE <_dx
  194  00:E7AE  60                rts
  195                     
  196  00:E7AF            randomize:
  197                             stw     _rndptr,<_rndzp
       00:E7AF  AD 41 27           lda    LOW_BYTE _rndptr
       00:E7B2  85 14              sta    LOW_BYTE <_rndzp
       00:E7B4  AD 42 27           lda    HIGH_BYTE _rndptr
       00:E7B7  85 15              sta    HIGH_BYTE <_rndzp
  198                     
  199  00:E7B9  AD 45 27          lda     _rndn1  ; rotate 3 bits right
  200  00:E7BC  AE 46 27          ldx     _rndn2
  201  00:E7BF  6A                ror     A
  202  00:E7C0  22                sax
  203  00:E7C1  6A                ror     A
  204  00:E7C2  22                sax
  205  00:E7C3  6A                ror     A
  206  00:E7C4  22                sax
  207  00:E7C5  6A                ror     A
  208  00:E7C6  22                sax
  209  00:E7C7  6A                ror     A
  210  00:E7C8  22                sax
  211  00:E7C9  6A                ror     A
  212  00:E7CA  8E 45 27          stx     _rndn1
  213  00:E7CD  8D 46 27          sta     _rndn2
  214                     
  215                             addw    #$05A2,_rndn1 ; add #$05A2 to number
                0000              .if     (2 = 3)
                                  .else
                                   ; 2-arg mode
                                   ;
       00:E7D0  18                 clc
       00:E7D1  AD 45 27           lda    LOW_BYTE _rndn1
       00:E7D4  69 A2              adc    LOW_BYTE #$05A2
       00:E7D6  8D 45 27           sta    LOW_BYTE _rndn1
       00:E7D9  AD 46 27           lda    HIGH_BYTE _rndn1
       00:E7DC  69 05              adc    HIGH_BYTE #$05A2
       00:E7DE  8D 46 27           sta    HIGH_BYTE _rndn1
                                  .endif
  216                     
  217                             incw    <_rndzp ; eor with next 2 bytes of ROM
       00:E7E1  E6 14              inc    <_rndzp              ; value at stated memory
       00:E7E3  D0 02              bne    .x_00164           ; location
       00:E7E5  E6 15              inc    <_rndzp+1
       00:E7E7            .x_00164:
  218  00:E7E7  AD 46 27          lda     _rndn2
  219  00:E7EA  52 14             eor     [_rndzp]
  220  00:E7EC  8D 46 27          sta     _rndn2
  221                     
  222                             incw    <_rndzp
       00:E7EF  E6 14              inc    <_rndzp              ; value at stated memory
       00:E7F1  D0 02              bne    .x_00165           ; location
       00:E7F3  E6 15              inc    <_rndzp+1
       00:E7F5            .x_00165:
  223  00:E7F5  AD 45 27          lda     _rndn1
  224  00:E7F8  52 14             eor     [_rndzp]
  225  00:E7FA  8D 45 27          sta     _rndn1
  226                     
  227                             incw    <_rndzp ; don't use every consecutive byte
       00:E7FD  E6 14              inc    <_rndzp              ; value at stated memory
       00:E7FF  D0 02              bne    .x_00166           ; location
       00:E801  E6 15              inc    <_rndzp+1
       00:E803            .x_00166:
  228                     
  229  00:E803  A5 15             lda     <_rndzp+1       ; reset pointer to $e000 if > $f400
  230  00:E805  C9 F4             cmp     #$f4
  231                             blo     .l1
       00:E807  90 04              bcc    .l1
  232  00:E809  A9 E0             lda     #$e0
  233  00:E80B  85 15             sta     <_rndzp+1
  234  00:E80D            .l1:
  235                             stw     <_rndzp,_rndptr
       00:E80D  A5 14              lda    LOW_BYTE <_rndzp
       00:E80F  8D 41 27           sta    LOW_BYTE _rndptr
       00:E812  A5 15              lda    HIGH_BYTE <_rndzp
       00:E814  8D 42 27           sta    HIGH_BYTE _rndptr
  236  00:E817  60                rts
  237                     
  238                     
  239                     ; ----
  240                     ; random
  241                     ; ----
  242                     ; return a random number in the interval 0 <= x < A
  243                     ; ----
  244                     ; IN  : A = range (1 - 128)
  245                     ; ----
  246                     ; OUT : A = random number
  247                     ; ----
  248                     ;
  249  00:E818            random:
  250  00:E818  48                pha
  251  00:E819  20 A1 E7          jsr     rand
  252  00:E81C  68                pla
  253                             ; ----
  254  00:E81D  C9 80             cmp     #128
  255                             blo     .l1
       00:E81F  90 05              bcc    .l1
  256                     
  257  00:E821  A5 FF             lda     <_dh
  258  00:E823  29 7F             and     #$7f
  259  00:E825  60                rts
  260                     
  261  00:E826            .l1:    ; asl   A
  262  00:E826  85 F8             sta     <_al
  263  00:E828  A5 FE             lda     <_dl
  264  00:E82A  85 FA             sta     <_bl
  265  00:E82C  20 DB E6          jsr     mulu8
  266                     
  267  00:E82F  A5 FD             lda     <_ch
  268  00:E831  60                rts
  269                     
#[2]   startup.asm
 1214                     
 1215           0001             .ifdef HUC
#[3]   huc.asm
 1216                             .include "huc.asm"
    1                     ;
    2                     ; HUC.ASM  -  HuC Internal Library
    3                     ;
    4                     
    5                     ; ----
    6                     ; local variables
    7                     
    8           2747                .bss
    9  --:2747            _vdc      .ds 20*2
   10                     
   11           2016                .zp
   12  --:2016            __sign
   13  --:2016            __remain  .ds 2
   14                     
   15           E832                .code
   17                     
   18                     ; ----
   19                     ; eq
   20                     ; ----
   21                     ; test egality of two words
   22                     ; ----
   23                     ; IN :  First word on the C stack
   24                     ;       Another word in A:X
   25                     ; ----
   26                     ; OUT : word A:X equals 0 is the two args are egals
   27                     ;       else non nul
   28                     ; ----
   29                     ; REMARK : signed compatible
   30                     ; ----
   31                     
   32                                     ; old version is 75 bytes long
   33                                     ; new version is 31 bytes long (58% shorter :)
   34                                     ; DAVE: newer version 45 bytes but much faster
   35                                     ; best case was: 56 cycles (worst = 70)
   36                                     ; best case now: 45 cycles (worst = 59)
   37                     
   38  00:E832            eq:
   39  00:E832  22           sax
   40  00:E833  D2 00        cmp [__stack]
   41  00:E835  D0 18        bne .eq_endno
   42                     
   43  00:E837  A0 01        ldy #1
   44  00:E839  22           sax
   45  00:E83A  D1 00        cmp [__stack],Y
   46  00:E83C  D0 11        bne .eq_endno
   47                     
   48  00:E83E            .eq_endyes:
   49                        addw #2,<__stack   ; don't push A/X; they are thrown away
                0000              .if     (2 = 3)
                                  .else
                                   ; 2-arg mode
                                   ;
       00:E83E  18                 clc
       00:E83F  A5 00              lda    LOW_BYTE <__stack
       00:E841  69 02              adc    LOW_BYTE #2
       00:E843  85 00              sta    LOW_BYTE <__stack
       00:E845  A5 01              lda    HIGH_BYTE <__stack
       00:E847  69 00              adc    HIGH_BYTE #2
       00:E849  85 01              sta    HIGH_BYTE <__stack
                                  .endif
   50  00:E84B  A9 FF        lda  #$FF        ; A=255 -> true
   51  00:E84D  82           clx
   52  00:E84E  60           rts
   53                     
   54  00:E84F            .eq_endno:
   55                        addw #2,<__stack
                0000              .if     (2 = 3)
                                  .else
                                   ; 2-arg mode
                                   ;
       00:E84F  18                 clc
       00:E850  A5 00              lda    LOW_BYTE <__stack
       00:E852  69 02              adc    LOW_BYTE #2
       00:E854  85 00              sta    LOW_BYTE <__stack
       00:E856  A5 01              lda    HIGH_BYTE <__stack
       00:E858  69 00              adc    HIGH_BYTE #2
       00:E85A  85 01              sta    HIGH_BYTE <__stack
                                  .endif
   56  00:E85C  A9 00        lda  #0
   57  00:E85E  82           clx
   58  00:E85F  60           rts
   59                     
   60                     ; streamlined version MACRO - uses zp ( <__temp ) instead of stack
   61                     ; returns A:X = 0 if false, FF00 if true
   62                     ; 15 bytes, best = 12 cycles; worst = 23
   63                             
   64  00:E860            eqzp:
   65  00:E860  C5 04             cmp   <__temp+1
   66  00:E862  D0 09             bne   .x_ne
   67  00:E864  22                sax
   68  00:E865  C5 03             cmp   <__temp
   69  00:E867  D0 04             bne   .x_ne
   70  00:E869  A9 FF             lda   #$FF      ; ensure Z flag not set
   71  00:E86B  80 02             bra   .x1_eq
   72  00:E86D            .x_ne:
   73  00:E86D  A9 00             lda   #0        ; ensure Z flag set
   74  00:E86F            .x1_eq:
   75  00:E86F  82                clx
   76  00:E870  60                rts
   77                     
   78                     
   79                     ; ----
   80                     ; lt
   81                     ; ----
   82                     ; compare two words
   83                     ; ----
   84                     ; IN :  First word on the C stack
   85                     ;       Another word in A:X
   86                     ; ----
   87                     ; OUT : word A:X is non nul if pushed word is strictly lower than
   88                     ;       the word in A:X else nul
   89                     ; ----
   90                     
   91  00:E871            lt:     ; signed version
   92  00:E871  A0 01        ldy #1
   93  00:E873  C9 80        cmp #$80
   94  00:E875  B0 0A        bcs lt_primary_minus
   95                     
   96                             ; if here, the A:X value is positive
   97                     
   98  00:E877  85 03        sta <__temp
   99  00:E879  B1 00        lda [__stack], Y
  100  00:E87B  30 55        bmi cmp_ok   ; stack value is negative, so reply OK
  101                     
  102  00:E87D  A5 03        lda <__temp   ; stack value is also positive, so just go for the unsigned version
  103  00:E87F  80 1B        bra ult_y1
  104                     
  105                        
  106  00:E881            lt_primary_minus:
  107                     
  108                             ; if here, the A:X value is negative
  109                     
  110  00:E881  85 03        sta <__temp
  111  00:E883  B1 00        lda [__stack], Y
  112  00:E885  30 11        bmi getA_ult ; stack value is also negative, so restore A val from
  113                                             ; __temp and call ult
  114                     
  115  00:E887            cmp_false:
  116                        addw #2,<__stack     ; OK to kill A/X
                0000              .if     (2 = 3)
                                  .else
                                   ; 2-arg mode
                                   ;
       00:E887  18                 clc
       00:E888  A5 00              lda    LOW_BYTE <__stack
       00:E88A  69 02              adc    LOW_BYTE #2
       00:E88C  85 00              sta    LOW_BYTE <__stack
       00:E88E  A5 01              lda    HIGH_BYTE <__stack
       00:E890  69 00              adc    HIGH_BYTE #2
       00:E892  85 01              sta    HIGH_BYTE <__stack
                                  .endif
  117  00:E894  A9 00        lda  #0
  118  00:E896  82           clx
  119  00:E897  60           rts
  120                     
  121  00:E898            getA_ult:
  122  00:E898  A5 03        lda <__temp
  123                     
  124  00:E89A            ult:    ; unsigned version
  125  00:E89A  A0 01        ldy #1       ; false by default
  126                     
  127  00:E89C            ult_y1: ; same thing but Y is assumed to be egal to 1
  128                     
  129  00:E89C  D1 00        cmp [__stack],Y
  130  00:E89E  F0 04        beq .lt_must_test_lobyte
  131  00:E8A0  B0 30        bcs cmp_ok
  132  00:E8A2  80 07        bra .lt_end ; hibyte of the reg var < hibyte of the pushed var
  133                     
  134  00:E8A4            .lt_must_test_lobyte:
  135  00:E8A4  22           sax
  136  00:E8A5  D2 00        cmp [__stack]
  137  00:E8A7  F0 02        beq .lt_end
  138  00:E8A9  B0 27        bcs cmp_ok        ; set result to true
  139                                          ; lobyte of the reg var < lobyte of the pushed var
  140                     
  141  00:E8AB            .lt_end:
  142                        addw      #2,<__stack
                0000              .if     (2 = 3)
                                  .else
                                   ; 2-arg mode
                                   ;
       00:E8AB  18                 clc
       00:E8AC  A5 00              lda    LOW_BYTE <__stack
       00:E8AE  69 02              adc    LOW_BYTE #2
       00:E8B0  85 00              sta    LOW_BYTE <__stack
       00:E8B2  A5 01              lda    HIGH_BYTE <__stack
       00:E8B4  69 00              adc    HIGH_BYTE #2
       00:E8B6  85 01              sta    HIGH_BYTE <__stack
                                  .endif
  143                     
  144  00:E8B8  98           tya          ; if Y was 1, return A=X=0 -> false
  145  00:E8B9  3A           dec A        ; if Y was 0, return A=255 -> true
  146                     
  147  00:E8BA  82           clx
  148  00:E8BB  60           rts
  149                     
  150                     
  151                     
  152                     ; ----
  153                     ; gt
  154                     ; ----
  155                     ; compare two words
  156                     ; ----
  157                     ; IN :  First word on the C stack
  158                     ;       Another word in A:X
  159                     ; ----
  160                     ; OUT : word A:X is non nul if pushed word is strictly greater than
  161                     ;       the word in A:X else nul
  162                     ; ----
  163                     
  164  00:E8BC            gt:     ; signed version of >
  165  00:E8BC  A0 01        ldy #1
  166  00:E8BE  C9 80        cmp #$80
  167  00:E8C0  B0 0A        bcs .gt_primary_minus
  168                     
  169                             ; if here, the A:X value is positive
  170                     
  171  00:E8C2  85 03        sta <__temp
  172  00:E8C4  B1 00        lda [__stack], Y
  173  00:E8C6  30 BF        bmi cmp_false ; stack value is negative, so reply False
  174                     
  175  00:E8C8  A5 03        lda <__temp   ; stack value is also positive, so just go for the unsigned version
  176  00:E8CA  80 1B        bra ugt_y1   ; we spare one instruction, since we already have Y=1
  177                     
  178  00:E8CC            .gt_primary_minus:
  179                     
  180                             ; if here, the A:X value is negative
  181                     
  182  00:E8CC  85 03        sta <__temp
  183  00:E8CE  B1 00        lda [__stack], Y
  184  00:E8D0  30 11        bmi getA_ugt ; stack value is also negative, so restore A val from
  185                                             ; __temp and call ugt
  186                     
  187  00:E8D2            cmp_ok:
  188                        addw #2,<__stack     ; OK to kill A/X
                0000              .if     (2 = 3)
                                  .else
                                   ; 2-arg mode
                                   ;
       00:E8D2  18                 clc
       00:E8D3  A5 00              lda    LOW_BYTE <__stack
       00:E8D5  69 02              adc    LOW_BYTE #2
       00:E8D7  85 00              sta    LOW_BYTE <__stack
       00:E8D9  A5 01              lda    HIGH_BYTE <__stack
       00:E8DB  69 00              adc    HIGH_BYTE #2
       00:E8DD  85 01              sta    HIGH_BYTE <__stack
                                  .endif
  189  00:E8DF  A9 FF        lda #$FF
  190  00:E8E1  82           clx
  191  00:E8E2  60           rts
  192                     
  193  00:E8E3            getA_ugt:       ; we grab back the value of A before entering the unsigned
  194                                     ; version of >
  195  00:E8E3  A5 03        lda <__temp
  196                     
  197  00:E8E5            ugt:    ; unsigned version of >
  198                     
  199  00:E8E5  A0 01        ldy #1
  200                     
  201  00:E8E7            ugt_y1: ; unsigned version of >, assuming Y = 1
  202                     
  203  00:E8E7  D1 00        cmp [__stack],Y
  204  00:E8E9  F0 05        beq .gt_must_test_lobyte
  205  00:E8EB  B0 09        bcs .gt_end ; hibyte of the reg var >= hibyte of the pushed var
  206  00:E8ED  C2           cly
  207  00:E8EE  80 06        bra .gt_end
  208                     
  209  00:E8F0            .gt_must_test_lobyte
  210  00:E8F0  22           sax
  211  00:E8F1  D2 00        cmp [__stack]
  212  00:E8F3  B0 01        bcs .gt_end       ; lobyte of the reg var >= lobyte of the pushed var
  213  00:E8F5  C2           cly
  214                     
  215  00:E8F6            .gt_end:
  216                        addw      #2,<__stack
                0000              .if     (2 = 3)
                                  .else
                                   ; 2-arg mode
                                   ;
       00:E8F6  18                 clc
       00:E8F7  A5 00              lda    LOW_BYTE <__stack
       00:E8F9  69 02              adc    LOW_BYTE #2
       00:E8FB  85 00              sta    LOW_BYTE <__stack
       00:E8FD  A5 01              lda    HIGH_BYTE <__stack
       00:E8FF  69 00              adc    HIGH_BYTE #2
       00:E901  85 01              sta    HIGH_BYTE <__stack
                                  .endif
  217  00:E903  98           tya
  218  00:E904  3A           dec A
  219  00:E905  82           clx
  220  00:E906  60           rts
  221                     
  222                     
  223                     ; ----
  224                     ; zero page versions of lt/gt/ult/ugt:
  225                     ; ----
  226                     
  227  00:E907            ltzp:   ; signed, zero page
  228  00:E907  85 05             sta     <__temp+2
  229  00:E909  45 04             eor     <__temp+1
  230  00:E90B  10 0C             bpl     .geta_ult
  231  00:E90D  A5 05             lda     <__temp+2
  232  00:E90F  10 04             bpl     .true
  233  00:E911  A9 00     .false: lda     #0
  234  00:E913  82                clx
  235  00:E914  60                rts
  236  00:E915  A9 FF     .true:  lda     #$ff
  237  00:E917  82                clx
  238  00:E918  60                rts
  239  00:E919            .geta_ult:
  240  00:E919  A5 05             lda     <__temp+2       ; and fall through to unsigned test
  241                     
  242  00:E91B  C5 04     ultzp:  cmp     <__temp+1
  243  00:E91D  F0 06             beq     .test_lo
  244  00:E91F  90 0B             bcc     .false
  245  00:E921  A9 FF     .true:  lda     #$ff
  246  00:E923  82                clx
  247  00:E924  60                rts
  248  00:E925            .test_lo:
  249  00:E925  22                sax
  250  00:E926  C5 03             cmp     <__temp
  251  00:E928  F0 02             beq     .false
  252  00:E92A  B0 F5             bcs     .true
  253  00:E92C  A9 00     .false: lda     #0
  254  00:E92E  82                clx
  255  00:E92F  60                rts
  256                     ; ----
  257  00:E930            gtzp:   ; signed, zero page
  258  00:E930  85 05             sta     <__temp+2
  259  00:E932  45 04             eor     <__temp+1
  260  00:E934  10 0C             bpl     .geta_ugt
  261  00:E936  A5 05             lda     <__temp+2
  262  00:E938  10 04             bpl     .false
  263  00:E93A  A9 FF     .true:  lda     #$ff
  264  00:E93C  82                clx
  265  00:E93D  60                rts
  266  00:E93E  A9 00     .false: lda     #0
  267  00:E940  82                clx
  268  00:E941  60                rts
  269  00:E942            .geta_ugt:
  270  00:E942  A5 05             lda     <__temp+2       ; and fall through to unsigned test
  271                     
  272  00:E944            ugtzp:
  273  00:E944  C5 04             cmp     <__temp+1
  274  00:E946  F0 06             beq     .test_lo
  275  00:E948  B0 0B             bcs     .false
  276  00:E94A  A9 FF     .true:  lda     #$ff
  277  00:E94C  82                clx
  278  00:E94D  60                rts
  279  00:E94E            .test_lo:
  280  00:E94E  22                sax
  281  00:E94F  C5 03             cmp     <__temp
  282  00:E951  F0 02             beq     .false
  283  00:E953  90 F5             bcc     .true
  284  00:E955  A9 00     .false: lda     #0
  285  00:E957  82                clx
  286  00:E958  60                rts
  287                     
  288                     
  289                     ; ----
  290                     ; ge
  291                     ; ----
  292                     ; compare two signed words
  293                     ; ----
  294                     ; IN :  First word on the C stack
  295                     ;       Another word in A:X
  296                     ; ----
  297                     ; OUT : word A:X is non nul if pushed word is greater or egal to
  298                     ;       the word in A:X else nul
  299                     ; ----
  300                     
  301  00:E959            ge:     ; signed version of >
  302  00:E959  20 71 E8      jsr lt
  303  00:E95C  1A            inc A   ; assuming that true is represented by A = 255
  304  00:E95D  60            rts
  305                     
  306  00:E95E  20 07 E9  gezp:   jsr     ltzp
  307  00:E961  49 FF             eor     #$ff
  308  00:E963  60                rts
  309                     
  310                     ; ----
  311                     ; uge
  312                     ; ----
  313                     ; compare two unsigned signed words
  314                     ; ----
  315                     ; IN :  First word on the C stack
  316                     ;       Another word in A:X
  317                     ; ----
  318                     ; OUT : word A:X is non nul if pushed word is greater or egal to
  319                     ;       the word in A:X else nul
  320                     ; ----
  321                     
  322  00:E964            uge:    ; unsigned version of >
  323  00:E964  20 9A E8      jsr ult
  324  00:E967  1A            inc A   ; assuming that true is represented by A = 255
  325  00:E968  60            rts
  326                     
  327  00:E969  20 1B E9  ugezp:  jsr     ultzp
  328  00:E96C  49 FF             eor     #$ff
  329  00:E96E  60                rts
  330                     
  331                     ; ----
  332                     ; ne
  333                     ; ----
  334                     ; compare two words
  335                     ; ----
  336                     ; IN :  First word on the C stack
  337                     ;       Another word in A:X
  338                     ; ----
  339                     ; OUT : word A:X is non null if pushed word is different from
  340                     ;       the word in A:X else null
  341                     ; ----
  342                     ; REMARK : signed compatible
  343                     ; ----
  344                     
  345                             ; previous version called 'eq' as subroutine and returned
  346                             ; opposite value; should be fully implemented for speed
  347                             ; since '!=' is such a common operand
  348                     
  349  00:E96F            ne:
  350  00:E96F  22           sax
  351  00:E970  D2 00        cmp [__stack]
  352  00:E972  D0 18        bne .ne_endne
  353                     
  354  00:E974  A0 01        ldy #1
  355  00:E976  22           sax
  356  00:E977  D1 00        cmp [__stack],Y
  357  00:E979  D0 11        bne .ne_endne
  358                     
  359  00:E97B            .ne_endeq:
  360                        addw #2,<__stack   ; don't push A/X; they are thrown away
                0000              .if     (2 = 3)
                                  .else
                                   ; 2-arg mode
                                   ;
       00:E97B  18                 clc
       00:E97C  A5 00              lda    LOW_BYTE <__stack
       00:E97E  69 02              adc    LOW_BYTE #2
       00:E980  85 00              sta    LOW_BYTE <__stack
       00:E982  A5 01              lda    HIGH_BYTE <__stack
       00:E984  69 00              adc    HIGH_BYTE #2
       00:E986  85 01              sta    HIGH_BYTE <__stack
                                  .endif
  361  00:E988  A9 00        lda  #0
  362  00:E98A  82           clx
  363  00:E98B  60           rts
  364                     
  365  00:E98C            .ne_endne:
  366                        addw #2,<__stack
                0000              .if     (2 = 3)
                                  .else
                                   ; 2-arg mode
                                   ;
       00:E98C  18                 clc
       00:E98D  A5 00              lda    LOW_BYTE <__stack
       00:E98F  69 02              adc    LOW_BYTE #2
       00:E991  85 00              sta    LOW_BYTE <__stack
       00:E993  A5 01              lda    HIGH_BYTE <__stack
       00:E995  69 00              adc    HIGH_BYTE #2
       00:E997  85 01              sta    HIGH_BYTE <__stack
                                  .endif
  367  00:E999  A9 FF        lda  #$ff
  368  00:E99B  82           clx
  369  00:E99C  60           rts
  370                     
  371                     ; streamlined version MACRO - uses zp ( <__temp ) instead of stack
  372                     ; returns A:X = 0 if false, FF00 if true
  373                     ; 15 bytes, best = 12 cycles; worst = 23
  374                     
  375  00:E99D            nezp:
  376  00:E99D  C5 04             cmp   <__temp+1
  377  00:E99F  D0 09             bne   .x_ne
  378  00:E9A1  22                sax
  379  00:E9A2  C5 03             cmp   <__temp
  380  00:E9A4  D0 04             bne   .x_ne
  381  00:E9A6  A9 00             lda   #0        ; ensure Z flag set
  382  00:E9A8  80 02             bra   .x1_eq
  383  00:E9AA            .x_ne:
  384  00:E9AA  A9 FF             lda   #$ff      ; ensure Z flag not set
  385  00:E9AC            .x1_eq:
  386  00:E9AC  82                clx
  387  00:E9AD  60                rts
  388                     
  389                     ; ----
  390                     ; le
  391                     ; ----
  392                     ; compare two signed words
  393                     ; ----
  394                     ; IN :  First word on the C stack
  395                     ;       Another word in A:X
  396                     ; ----
  397                     ; OUT : word A:X is non nul if pushed word is lower or egal to
  398                     ;       the word in A:X else nul
  399                     ; ----
  400                     
  401  00:E9AE            le:     ; signed version
  402  00:E9AE  20 BC E8      jsr gt
  403  00:E9B1  1A            inc A       ; assuming that A=255 if true
  404  00:E9B2  60            rts
  405                     
  406  00:E9B3  20 30 E9  lezp:   jsr     gtzp
  407  00:E9B6  49 FF             eor     #$ff
  408  00:E9B8  60                rts
  409                     
  410                     ; ----
  411                     ; ule
  412                     ; ----
  413                     ; compare two unsigned words
  414                     ; ----
  415                     ; IN :  First word on the C stack
  416                     ;       Another word in A:X
  417                     ; ----
  418                     ; OUT : word A:X is non nul if pushed word is lower or egal to
  419                     ;       the word in A:X else nul
  420                     ; ----
  421                     
  422  00:E9B9            ule:    ; unsigned version
  423  00:E9B9  20 E5 E8      jsr ugt
  424  00:E9BC  1A            inc A       ; assuming that A=255 if true
  425  00:E9BD  60            rts
  426                     
  427  00:E9BE  20 44 E9  ulezp:  jsr     ugtzp
  428  00:E9C1  49 FF             eor     #$ff
  429  00:E9C3  60                rts
  430                     
  431                     
  432                     ; ----
  433                     ; asl
  434                     ; ----
  435                     ; shift the pushed word left by the register word
  436                     ; ----
  437                     ; IN :  First word on the C stack
  438                     ;       Another word in A:X
  439                     ; ----
  440                     ; OUT : Register word egals the previous pushed value
  441                     ;       shifted left by A:X
  442                     ; ----
  443                     ; REMARK : only the lower byte of the right operand is taken in account
  444                     ;          signed compatible
  445                     ; ----
  446  00:E9C4            asl:
  447  00:E9C4  86 03        stx <__temp
  448                        __ldwp __stack
       00:E9C6  B2 00              lda    [__stack]
       00:E9C8  AA                 tax
       00:E9C9  A0 01              ldy    #1
       00:E9CB  B1 00              lda    [__stack],Y
  449  00:E9CD  A4 03        ldy <__temp
  450  00:E9CF  F0 0C        beq .asl_end
  451  00:E9D1  85 03        sta <__temp
  452  00:E9D3  22           sax
  453                     
  454  00:E9D4            .asl_begin
  455  00:E9D4  0A           asl a
  456  00:E9D5  26 03        rol <__temp
  457  00:E9D7  88           dey
  458  00:E9D8  D0 FA        bne .asl_begin
  459                     
  460  00:E9DA  22           sax
  461  00:E9DB  A5 03        lda <__temp
  462  00:E9DD            .asl_end
  463  00:E9DD  A8           tay
  464                        addw #2,<__stack
                0000              .if     (2 = 3)
                                  .else
                                   ; 2-arg mode
                                   ;
       00:E9DE  18                 clc
       00:E9DF  A5 00              lda    LOW_BYTE <__stack
       00:E9E1  69 02              adc    LOW_BYTE #2
       00:E9E3  85 00              sta    LOW_BYTE <__stack
       00:E9E5  A5 01              lda    HIGH_BYTE <__stack
       00:E9E7  69 00              adc    HIGH_BYTE #2
       00:E9E9  85 01              sta    HIGH_BYTE <__stack
                                  .endif
  465  00:E9EB  98           tya
  466  00:E9EC  60           rts
  467                     
  468                     
  469                     ; ----
  470                     ; asr
  471                     ; ----
  472                     ; shift the pushed word right by the register word
  473                     ; ----
  474                     ; IN :  First word on the C stack
  475                     ;       Another word in A:X
  476                     ; ----
  477                     ; OUT : Register word egals the previous pushed value
  478                     ;       shifted right by A:X
  479                     ; ----
  480                     ; REMARK : only the lower byte of the right operand is taken in account
  481                     ;          signed compatible
  482                     ; ----
  483  00:E9ED            asr:
  484  00:E9ED  86 03        stx <__temp
  485                        __ldwp __stack
       00:E9EF  B2 00              lda    [__stack]
       00:E9F1  AA                 tax
       00:E9F2  A0 01              ldy    #1
       00:E9F4  B1 00              lda    [__stack],Y
  486  00:E9F6  A4 03        ldy <__temp
  487  00:E9F8  F0 0E        beq .asr_end
  488  00:E9FA  85 03        sta <__temp
  489  00:E9FC  22           sax
  490                     
  491  00:E9FD            .asr_begin
  492  00:E9FD  E0 80        cpx #$80
  493  00:E9FF  66 03        ror <__temp
  494  00:EA01  6A           ror a
  495                     
  496  00:EA02  88           dey
  497  00:EA03  D0 F8        bne .asr_begin
  498                     
  499  00:EA05  22           sax
  500  00:EA06  A5 03        lda <__temp
  501  00:EA08            .asr_end
  502  00:EA08  A8           tay
  503                        addw #2,<__stack
                0000              .if     (2 = 3)
                                  .else
                                   ; 2-arg mode
                                   ;
       00:EA09  18                 clc
       00:EA0A  A5 00              lda    LOW_BYTE <__stack
       00:EA0C  69 02              adc    LOW_BYTE #2
       00:EA0E  85 00              sta    LOW_BYTE <__stack
       00:EA10  A5 01              lda    HIGH_BYTE <__stack
       00:EA12  69 00              adc    HIGH_BYTE #2
       00:EA14  85 01              sta    HIGH_BYTE <__stack
                                  .endif
  504  00:EA16  98           tya
  505  00:EA17  60           rts
  506                     
  507                     
  508                     ; ----
  509                     ; smul
  510                     ; ----
  511                     ; multiply two SIGNED words
  512                     ; ----
  513                     ; IN :  First word on the C stack
  514                     ;       Another word in A:X
  515                     ; ----
  516                     ; OUT : Register word egals the previous pushed value
  517                     ;       multiplied by A:X
  518                     ; ----
  519                     
  520  00:EA18            smul:
  521  00:EA18  64 16             stz <__sign      ; until we call umul, __sign keeps the sign parity
  522                                             ; of operand
  523  00:EA1A  C9 80             cmp #$80
  524  00:EA1C  90 0D             bcc smul_no_invert_primary
  525                     
  526                             __negw
       00:EA1E  22                 sax
       00:EA1F  49 FF              eor    #$FF
       00:EA21  18                 clc
       00:EA22  69 01              adc    #1
       00:EA24  22                 sax
       00:EA25  49 FF              eor    #$FF
       00:EA27  69 00              adc    #0
  527                     
  528  00:EA29  E6 16             inc <__sign      ; __sign ++
  529                     
  530  00:EA2B            smul_no_invert_primary:
  531                     
  532  00:EA2B  85 03             sta <__temp
  533  00:EA2D  A0 01             ldy #1
  534  00:EA2F  B1 00             lda [__stack],Y
  535  00:EA31  C9 80             cmp #$80
  536  00:EA33  90 1B             bcc smul_no_invert_secondary
  537                     
  538  00:EA35  E6 16             inc <__sign      ; this time, no optimisation possible, IMHO :)
  539                                             ; are you sure? :))
  540  00:EA37  86 04             stx <__temp+1
  541                     
  542  00:EA39  B2 00             lda [__stack]
  543  00:EA3B  AA                tax
  544  00:EA3C  B1 00             lda [__stack],Y ; we assumed Y = 1 since we set it at the beginning of
  545                                             ; smul_no_invert_primary
  546                             __negw
       00:EA3E  22                 sax
       00:EA3F  49 FF              eor    #$FF
       00:EA41  18                 clc
       00:EA42  69 01              adc    #1
       00:EA44  22                 sax
       00:EA45  49 FF              eor    #$FF
       00:EA47  69 00              adc    #0
  547  00:EA49  91 00             sta [__stack],Y
  548  00:EA4B  22                sax
  549  00:EA4C  92 00             sta [__stack]
  550                     
  551  00:EA4E  A6 04             ldx <__temp+1
  552                     
  553  00:EA50            smul_no_invert_secondary:
  554                     
  555  00:EA50  A5 16             lda <__sign
  556  00:EA52  48                pha
  557  00:EA53  A5 03             lda <__temp      ; saved at the beginning of smul_no_invert_primary
  558                                             ; where we're sure we passed
  559                     
  560  00:EA55  20 6D EA          jsr umul
  561                     
  562  00:EA58  42                say
  563  00:EA59  68                pla
  564  00:EA5A  29 01             and #$01
  565  00:EA5C  F0 0D             beq smul_end
  566                     
  567  00:EA5E  42                say
  568                             __negw
       00:EA5F  22                 sax
       00:EA60  49 FF              eor    #$FF
       00:EA62  18                 clc
       00:EA63  69 01              adc    #1
       00:EA65  22                 sax
       00:EA66  49 FF              eor    #$FF
       00:EA68  69 00              adc    #0
  569  00:EA6A  60                rts
  570                     
  571  00:EA6B            smul_end:
  572  00:EA6B  42                say
  573  00:EA6C  60                rts
  574                     
  575                     
  576                     ; ----
  577                     ; umul
  578                     ; ----
  579                     ; multiply two UNSIGNED words
  580                     ; ----
  581                     ; IN :  First word on the C stack
  582                     ;       Another word in A:X
  583                     ; ----
  584                     ; OUT : Register word egals the previous pushed value
  585                     ;       multiplied by A:X
  586                     ; ----
  587                     
  588  00:EA6D            umul:
  589                             __stw   <__temp+2 ; bx
       00:EA6D  86 05              stx    <__temp+2
       00:EA6F  85 06              sta    <__temp+2+1
  590                             __ldwp  __stack
       00:EA71  B2 00              lda    [__stack]
       00:EA73  AA                 tax
       00:EA74  A0 01              ldy    #1
       00:EA76  B1 00              lda    [__stack],Y
  591                             __stw   <__temp   ; ax
       00:EA78  86 03              stx    <__temp
       00:EA7A  85 04              sta    <__temp+1
  592  00:EA7C  20 91 EA            jsr   umul16
  593                               addw  #2,<__stack
                0000              .if     (2 = 3)
                                  .else
                                   ; 2-arg mode
                                   ;
       00:EA7F  18                 clc
       00:EA80  A5 00              lda    LOW_BYTE <__stack
       00:EA82  69 02              adc    LOW_BYTE #2
       00:EA84  85 00              sta    LOW_BYTE <__stack
       00:EA86  A5 01              lda    HIGH_BYTE <__stack
       00:EA88  69 00              adc    HIGH_BYTE #2
       00:EA8A  85 01              sta    HIGH_BYTE <__stack
                                  .endif
  594                             __ldw   <__ptr
                0000              .if (1 = 2)
                                  .else
       00:EA8C  A6 0B              ldx    <__ptr
       00:EA8E  A5 0C              lda    <__ptr+1
                                  .endif
  595  00:EA90  60                  rts
  596  00:EA91            umul16:
  597  00:EA91  A5 06               lda   <__temp+3
  598  00:EA93  05 04               ora   <__temp+1
  599  00:EA95  F0 21               beq   umul8
  600                               stwz  <__ptr
       00:EA97  64 0B              stz    LOW_BYTE <__ptr
       00:EA99  64 0C              stz    HIGH_BYTE <__ptr
  601  00:EA9B  A0 10               ldy   #16
  602                     
  603                     .l1:      aslw  <__ptr
       00:EA9D  06 0B              asl    <__ptr              ; word-sized value (at stated
       00:EA9F  26 0C              rol    <__ptr+1            ; memory location)
  604                               aslw  <__temp+2
       00:EAA1  06 05              asl    <__temp+2              ; word-sized value (at stated
       00:EAA3  26 06              rol    <__temp+2+1            ; memory location)
  605  00:EAA5  90 0D               bcc   .l2
  606                               addw  <__temp,<__ptr
                0000              .if     (2 = 3)
                                  .else
                                   ; 2-arg mode
                                   ;
       00:EAA7  18                 clc
       00:EAA8  A5 0B              lda    LOW_BYTE <__ptr
       00:EAAA  65 03              adc    LOW_BYTE <__temp
       00:EAAC  85 0B              sta    LOW_BYTE <__ptr
       00:EAAE  A5 0C              lda    HIGH_BYTE <__ptr
       00:EAB0  65 04              adc    HIGH_BYTE <__temp
       00:EAB2  85 0C              sta    HIGH_BYTE <__ptr
                                  .endif
  607  00:EAB4  88        .l2:      dey
  608  00:EAB5  D0 E6               bne   .l1
  609  00:EAB7  60                  rts
  610  00:EAB8            umul8:
  611  00:EAB8  A5 05               lda   <__temp+2
  612  00:EABA  85 0C               sta   <__ptr+1
  613  00:EABC  62                  cla
  614  00:EABD  A0 08               ldy   #8
  615                     
  616  00:EABF  0A        .l1:      asl   A
  617  00:EAC0  26 0C               rol   <__ptr+1
  618  00:EAC2  90 07               bcc   .l2
  619                               add   <__temp
                0000              .if (1 = 2)            ; register A (handle carry
                                  .else
       00:EAC4  18                 clc
       00:EAC5  65 03              adc    <__temp
                                  .endif
  620  00:EAC7  90 02               bcc   .l2
  621  00:EAC9  E6 0C               inc   <__ptr+1
  622  00:EACB  88        .l2:      dey
  623  00:EACC  D0 F1               bne   .l1
  624                     
  625  00:EACE  85 0B               sta   <__ptr
  626  00:EAD0  60                  rts
  627                     
  628                     
  629                     ; ----
  630                     ; sdiv
  631                     ; ----
  632                     ; divide two SIGNED words
  633                     ; ----
  634                     ; IN :  First word on the C stack
  635                     ;       Another word in A:X
  636                     ; ----
  637                     ; OUT : Register word egals the previous pushed value
  638                     ;       divided by A:X
  639                     ; ----
  640                     
  641  00:EAD1            sdiv:
  642  00:EAD1  64 16             stz <__sign      ; until we call udiv, __sign keeps the sign parity
  643                                             ; of operand
  644  00:EAD3  C9 80             cmp #$80
  645  00:EAD5  90 0D             bcc sdiv_no_invert_primary
  646                     
  647                             __negw
       00:EAD7  22                 sax
       00:EAD8  49 FF              eor    #$FF
       00:EADA  18                 clc
       00:EADB  69 01              adc    #1
       00:EADD  22                 sax
       00:EADE  49 FF              eor    #$FF
       00:EAE0  69 00              adc    #0
  648                     
  649  00:EAE2  E6 16             inc <__sign      ; __sign ++
  650                     
  651  00:EAE4            sdiv_no_invert_primary:
  652                     
  653  00:EAE4  85 03             sta <__temp
  654  00:EAE6  A0 01             ldy #1
  655  00:EAE8  B1 00             lda [__stack],Y
  656  00:EAEA  C9 80             cmp #$80
  657  00:EAEC  90 1B             bcc sdiv_no_invert_secondary
  658                     
  659  00:EAEE  E6 16             inc <__sign
  660                     
  661  00:EAF0  86 04             stx <__temp+1
  662                     
  663  00:EAF2  B2 00             lda [__stack]
  664  00:EAF4  AA                tax
  665  00:EAF5  B1 00             lda [__stack],Y ; we assumed Y = 1 since we set it at the beginning of
  666                                             ; sdiv_no_invert_primary
  667                             __negw
       00:EAF7  22                 sax
       00:EAF8  49 FF              eor    #$FF
       00:EAFA  18                 clc
       00:EAFB  69 01              adc    #1
       00:EAFD  22                 sax
       00:EAFE  49 FF              eor    #$FF
       00:EB00  69 00              adc    #0
  668  00:EB02  91 00             sta [__stack],Y
  669  00:EB04  22                sax
  670  00:EB05  92 00             sta [__stack]
  671                     
  672  00:EB07  A6 04             ldx <__temp+1
  673                     
  674  00:EB09            sdiv_no_invert_secondary:
  675                     
  676  00:EB09  A5 16             lda <__sign
  677  00:EB0B  48                pha
  678  00:EB0C  A5 03             lda <__temp      ; saved at the beginning of sdiv_no_invert_primary
  679                                             ; where we're sure we passed
  680  00:EB0E  20 26 EB          jsr udiv
  681                     
  682  00:EB11  42                say
  683  00:EB12  68                pla
  684  00:EB13  29 01             and #$01
  685  00:EB15  F0 0D             beq sdiv_end
  686                     
  687  00:EB17  42                say
  688                             __negw
       00:EB18  22                 sax
       00:EB19  49 FF              eor    #$FF
       00:EB1B  18                 clc
       00:EB1C  69 01              adc    #1
       00:EB1E  22                 sax
       00:EB1F  49 FF              eor    #$FF
       00:EB21  69 00              adc    #0
  689  00:EB23  60                rts
  690                     
  691  00:EB24            sdiv_end:
  692  00:EB24  42                say
  693  00:EB25  60                rts
  694                     
  695                     
  696                     ; ----
  697                     ; udiv
  698                     ; ----
  699                     ; divide two UNSIGNED words
  700                     ; ----
  701                     ; IN :  First word on the C stack
  702                     ;       Another word in A:X
  703                     ; ----
  704                     ; OUT : Register word egals the previous pushed value
  705                     ;       divided by A:X
  706                     ; ----
  707                     
  708  00:EB26            udiv:
  709                             __stw   <__ptr
       00:EB26  86 0B              stx    <__ptr
       00:EB28  85 0C              sta    <__ptr+1
  710                             __ldwp  __stack
       00:EB2A  B2 00              lda    [__stack]
       00:EB2C  AA                 tax
       00:EB2D  A0 01              ldy    #1
       00:EB2F  B1 00              lda    [__stack],Y
  711                             __stw   <__temp
       00:EB31  86 03              stx    <__temp
       00:EB33  85 04              sta    <__temp+1
  712                     
  713  00:EB35  A9 00             lda     #0
  714  00:EB37  85 17             sta     <__remain+1
  715  00:EB39  A0 10             ldy     #16
  716  00:EB3B  06 03     .sdiv_begin:    asl     <__temp
  717  00:EB3D  26 04             rol     <__temp+1
  718  00:EB3F  2A                rol     a
  719  00:EB40  26 17             rol     <__remain+1
  720  00:EB42  48                pha
  721  00:EB43  C5 0B             cmp     <__ptr
  722  00:EB45  A5 17             lda     <__remain+1
  723  00:EB47  E5 0C             sbc     <__ptr+1
  724  00:EB49  90 08             bcc     .sdiv_end
  725  00:EB4B  85 17             sta     <__remain+1
  726  00:EB4D  68                pla
  727  00:EB4E  E5 0B             sbc     <__ptr
  728  00:EB50  48                pha
  729  00:EB51  E6 03             inc     <__temp
  730  00:EB53  68        .sdiv_end:      pla
  731  00:EB54  88                dey
  732  00:EB55  D0 E4             bne     .sdiv_begin
  733  00:EB57  85 16             sta     <__remain
  734                     
  735                             addw  #2,<__stack
                0000              .if     (2 = 3)
                                  .else
                                   ; 2-arg mode
                                   ;
       00:EB59  18                 clc
       00:EB5A  A5 00              lda    LOW_BYTE <__stack
       00:EB5C  69 02              adc    LOW_BYTE #2
       00:EB5E  85 00              sta    LOW_BYTE <__stack
       00:EB60  A5 01              lda    HIGH_BYTE <__stack
       00:EB62  69 00              adc    HIGH_BYTE #2
       00:EB64  85 01              sta    HIGH_BYTE <__stack
                                  .endif
  736                             __ldw <__temp
                0000              .if (1 = 2)
                                  .else
       00:EB66  A6 03              ldx    <__temp
       00:EB68  A5 04              lda    <__temp+1
                                  .endif
  737                     
  738  00:EB6A  60                rts
  739                     
  740                     
  741                     ; ----
  742                     ; smod
  743                     ; ----
  744                     ; give the integer remainder of the two words
  745                     ; ----
  746                     ; IN :  First word on the C stack
  747                     ;       Another word in A:X
  748                     ; ----
  749                     ; OUT : Register word egals the remainder of the division of the
  750                     ;       pushed value by A:X
  751                     ; ----
  752                     ; REMARK : signed NON compatible
  753                     ; ----
  754                     
  755  00:EB6B            smod:
  756  00:EB6B            umod:
  757                             __stw   <__ptr
       00:EB6B  86 0B              stx    <__ptr
       00:EB6D  85 0C              sta    <__ptr+1
  758                             __ldwp  __stack
       00:EB6F  B2 00              lda    [__stack]
       00:EB71  AA                 tax
       00:EB72  A0 01              ldy    #1
       00:EB74  B1 00              lda    [__stack],Y
  759                             __stw   <__temp
       00:EB76  86 03              stx    <__temp
       00:EB78  85 04              sta    <__temp+1
  760                     
  761  00:EB7A  A9 00             lda     #0
  762  00:EB7C  85 17             sta     <__remain+1
  763  00:EB7E  A0 10             ldy     #16
  764  00:EB80  06 03     .smod_begin:    asl     <__temp
  765  00:EB82  26 04             rol     <__temp+1
  766  00:EB84  2A                rol     a
  767  00:EB85  26 17             rol     <__remain+1
  768  00:EB87  48                pha
  769  00:EB88  C5 0B             cmp     <__ptr
  770  00:EB8A  A5 17             lda     <__remain+1
  771  00:EB8C  E5 0C             sbc     <__ptr+1
  772  00:EB8E  90 08             bcc     .smod_end
  773  00:EB90  85 17             sta     <__remain+1
  774  00:EB92  68                pla
  775  00:EB93  E5 0B             sbc     <__ptr
  776  00:EB95  48                pha
  777  00:EB96  E6 03             inc     <__temp
  778  00:EB98  68        .smod_end:      pla
  779  00:EB99  88                dey
  780  00:EB9A  D0 E4             bne     .smod_begin
  781  00:EB9C  85 16             sta     <__remain
  782                     
  783                             addw  #2,<__stack
                0000              .if     (2 = 3)
                                  .else
                                   ; 2-arg mode
                                   ;
       00:EB9E  18                 clc
       00:EB9F  A5 00              lda    LOW_BYTE <__stack
       00:EBA1  69 02              adc    LOW_BYTE #2
       00:EBA3  85 00              sta    LOW_BYTE <__stack
       00:EBA5  A5 01              lda    HIGH_BYTE <__stack
       00:EBA7  69 00              adc    HIGH_BYTE #2
       00:EBA9  85 01              sta    HIGH_BYTE <__stack
                                  .endif
  784                             __ldw <__remain
                0000              .if (1 = 2)
                                  .else
       00:EBAB  A6 16              ldx    <__remain
       00:EBAD  A5 17              lda    <__remain+1
                                  .endif
  785                     
  786  00:EBAF  60                rts
  787                     
  788                     ; ----
  789                     ; ___case
  790                     ; ----
  791                     ; implement a switch instruction in C
  792                     ; ----
  793                     ; IN :  primary register (A:X) contain the discriminant value
  794                     ;       i.e. the one that will be checked against those indicated in the
  795                     ;       various case instructions
  796                     ;       On the stack, a pointer is passed
  797                     ;       This is a pointer toward an array
  798                     ;       Each item of this array is a 4 bytes long structure
  799                     ;       The structure is the following :
  800                     ;         WORD value_to_check
  801                     ;         WORD label_to_jump_to
  802                     ;       We have to parse the whole array in order to compare the primary
  803                     ;       register with all the 'value_to_check' field. If we ever find that
  804                     ;       the primary register is egal to such a value, we must jump to the
  805                     ;       corresponding 'label_to_jump_to'.
  806                     ;       The default value (which also means that we reached the end of the
  807                     ;       array) can be recognized with its 'label_to_jump_to' field set to 0.
  808                     ;       Then the 'value_to_check' field become the default label we have to
  809                     ;       use for the rest of the execution.
  810                     ; ----
  811                     ; OUT : The execution goes to another place
  812                     ; ----
  813                     ; REMARK : Also use __remain variable as a temporary value
  814                     ; ----
  815  00:EBB0            ___case:
  816                       __stw <__remain ; store the value to check to
       00:EBB0  86 16              stx    <__remain
       00:EBB2  85 17              sta    <__remain+1
  817                       __ldwp __stack
       00:EBB4  B2 00              lda    [__stack]
       00:EBB6  AA                 tax
       00:EBB7  A0 01              ldy    #1
       00:EBB9  B1 00              lda    [__stack],Y
  818                       __stw <__ptr ; __ptr contain the address of the array
       00:EBBB  86 0B              stx    <__ptr
       00:EBBD  85 0C              sta    <__ptr+1
  819                     
  820                       addw #2,<__stack
                0000              .if     (2 = 3)
                                  .else
                                   ; 2-arg mode
                                   ;
       00:EBBF  18                 clc
       00:EBC0  A5 00              lda    LOW_BYTE <__stack
       00:EBC2  69 02              adc    LOW_BYTE #2
       00:EBC4  85 00              sta    LOW_BYTE <__stack
       00:EBC6  A5 01              lda    HIGH_BYTE <__stack
       00:EBC8  69 00              adc    HIGH_BYTE #2
       00:EBCA  85 01              sta    HIGH_BYTE <__stack
                                  .endif
  821                     
  822  00:EBCC            .begin_case:
  823                       addw #2,<__ptr
                0000              .if     (2 = 3)
                                  .else
                                   ; 2-arg mode
                                   ;
       00:EBCC  18                 clc
       00:EBCD  A5 0B              lda    LOW_BYTE <__ptr
       00:EBCF  69 02              adc    LOW_BYTE #2
       00:EBD1  85 0B              sta    LOW_BYTE <__ptr
       00:EBD3  A5 0C              lda    HIGH_BYTE <__ptr
       00:EBD5  69 00              adc    HIGH_BYTE #2
       00:EBD7  85 0C              sta    HIGH_BYTE <__ptr
                                  .endif
  824                       __ldwp __ptr
       00:EBD9  B2 0B              lda    [__ptr]
       00:EBDB  AA                 tax
       00:EBDC  A0 01              ldy    #1
       00:EBDE  B1 0B              lda    [__ptr],Y
  825                       __tstw
                                   ; pha
       00:EBE0  86 03              stx    <__temp
       00:EBE2  05 03              ora    <__temp
                                   ; pla
  826                       __lbeq .end_case_default
       00:EBE4  D0 03              bne    .x00215
       00:EBE6  4C 4C EC           jmp    .end_case_default
       00:EBE9            .x00215
  827                     
  828                       addw  #-2,<__ptr
                0000              .if     (2 = 3)
                                  .else
                                   ; 2-arg mode
                                   ;
       00:EBE9  18                 clc
       00:EBEA  A5 0B              lda    LOW_BYTE <__ptr
       00:EBEC  69 FE              adc    LOW_BYTE #-2
       00:EBEE  85 0B              sta    LOW_BYTE <__ptr
       00:EBF0  A5 0C              lda    HIGH_BYTE <__ptr
       00:EBF2  69 FF              adc    HIGH_BYTE #-2
       00:EBF4  85 0C              sta    HIGH_BYTE <__ptr
                                  .endif
  829                     
  830                       __ldwp __ptr
       00:EBF6  B2 0B              lda    [__ptr]
       00:EBF8  AA                 tax
       00:EBF9  A0 01              ldy    #1
       00:EBFB  B1 0B              lda    [__ptr],Y
  831                     
  832                       __addmi -2,__stack
       00:EBFD  48                 pha
       00:EBFE  18                 clc
       00:EBFF  A5 00              lda    <__stack
       00:EC01  69 FE              adc    #low(-2)
       00:EC03  85 00              sta    <__stack
       00:EC05  A5 01              lda    <__stack+1
       00:EC07  69 FF              adc    #high(-2)
       00:EC09  85 01              sta    <__stack+1
       00:EC0B  68                 pla
  833                       __stwp __stack
       00:EC0C  22                 sax
       00:EC0D  92 00              sta    [__stack]
       00:EC0F  22                 sax
       00:EC10  A0 01              ldy    #1
       00:EC12  91 00              sta    [__stack],Y
  834                     
  835                       addw  #4,<__ptr
                0000              .if     (2 = 3)
                                  .else
                                   ; 2-arg mode
                                   ;
       00:EC14  18                 clc
       00:EC15  A5 0B              lda    LOW_BYTE <__ptr
       00:EC17  69 04              adc    LOW_BYTE #4
       00:EC19  85 0B              sta    LOW_BYTE <__ptr
       00:EC1B  A5 0C              lda    HIGH_BYTE <__ptr
       00:EC1D  69 00              adc    HIGH_BYTE #4
       00:EC1F  85 0C              sta    HIGH_BYTE <__ptr
                                  .endif
  836                     
  837                       __ldw <__remain
                0000              .if (1 = 2)
                                  .else
       00:EC21  A6 16              ldx    <__remain
       00:EC23  A5 17              lda    <__remain+1
                                  .endif
  838                     
  839  00:EC25  20 32 E8    jsr eq
  840                       __tstw
                                   ; pha
       00:EC28  86 03              stx    <__temp
       00:EC2A  05 03              ora    <__temp
                                   ; pla
  841                       __lbeq .begin_case
       00:EC2C  D0 03              bne    .x00223
       00:EC2E  4C CC EB           jmp    .begin_case
       00:EC31            .x00223
  842                     
  843                       addw  #-2,<__ptr
                0000              .if     (2 = 3)
                                  .else
                                   ; 2-arg mode
                                   ;
       00:EC31  18                 clc
       00:EC32  A5 0B              lda    LOW_BYTE <__ptr
       00:EC34  69 FE              adc    LOW_BYTE #-2
       00:EC36  85 0B              sta    LOW_BYTE <__ptr
       00:EC38  A5 0C              lda    HIGH_BYTE <__ptr
       00:EC3A  69 FF              adc    HIGH_BYTE #-2
       00:EC3C  85 0C              sta    HIGH_BYTE <__ptr
                                  .endif
  844                       __ldwp __ptr
       00:EC3E  B2 0B              lda    [__ptr]
       00:EC40  AA                 tax
       00:EC41  A0 01              ldy    #1
       00:EC43  B1 0B              lda    [__ptr],Y
  845                       __stw <__temp
       00:EC45  86 03              stx    <__temp
       00:EC47  85 04              sta    <__temp+1
  846                     
  847  00:EC49  6C 03 20    jmp [__temp]
  848                     
  849  00:EC4C            .end_case_default:      ; if we haven't found any corresponding value
  850                                             ; then we jump to the default supplied label
  851                     
  852                       addw   #-2,<__ptr
                0000              .if     (2 = 3)
                                  .else
                                   ; 2-arg mode
                                   ;
       00:EC4C  18                 clc
       00:EC4D  A5 0B              lda    LOW_BYTE <__ptr
       00:EC4F  69 FE              adc    LOW_BYTE #-2
       00:EC51  85 0B              sta    LOW_BYTE <__ptr
       00:EC53  A5 0C              lda    HIGH_BYTE <__ptr
       00:EC55  69 FF              adc    HIGH_BYTE #-2
       00:EC57  85 0C              sta    HIGH_BYTE <__ptr
                                  .endif
  853                       __ldwp __ptr
       00:EC59  B2 0B              lda    [__ptr]
       00:EC5B  AA                 tax
       00:EC5C  A0 01              ldy    #1
       00:EC5E  B1 0B              lda    [__ptr],Y
  854                       __stw <__temp
       00:EC60  86 03              stx    <__temp
       00:EC62  85 04              sta    <__temp+1
  855                     
  856  00:EC64  6C 03 20    jmp [__temp]
  857                     
  858                     
  859                     ; ----
  860                     ; hook
  861                     ; ----
  862                     ; indirect call to sub-routine
  863                     ; ----
  864                     ; IN :  sub-routine addr in __ptr
  865                     ; ----
  866                     
  867  00:EC67            hook:
  868  00:EC67  6C 0B 20          jmp     [__ptr]
  869                     
  870                     ; ----
  871                     ; setvdc
  872                     ; ----
  873                     ; set a vdc register
  874                     ; ----
  875                     ; IN : - reg index on the C stack
  876                     ;      - value in A:X
  877                     ; ----
  878                     
  879  00:EC6A            setvdc:
  880  00:EC6A  A8                tay
  881  00:EC6B  B2 00             lda     [__sp]
  882  00:EC6D  4A                lsr     A
  883                             ; --
  884  00:EC6E  C9 09             cmp     #$09
  885  00:EC70  F0 2E             beq     .l3
  886  00:EC72  C9 0A             cmp     #$0A
  887                             blo     .l1
       00:EC74  90 04              bcc    .l1
  888  00:EC76  C9 0F             cmp     #$0F
  889                             blo     .l2
       00:EC78  90 18              bcc    .l2
  890                             ; --
  891  00:EC7A  85 F7     .l1:    sta     <vdc_reg
  892  00:EC7C  8D 00 00          sta     video_reg
  893  00:EC7F  8E 02 00          stx     video_data_l
  894  00:EC82  8C 03 00          sty     video_data_h
  895                             ; --
  896  00:EC85  C9 02             cmp     #$02
  897  00:EC87  F0 09             beq     .l2
  898                             ; --
  899  00:EC89  0A                asl     A
  900  00:EC8A  22                sax
  901  00:EC8B  9D 47 27          sta     _vdc,X
  902  00:EC8E  98                tya
  903  00:EC8F  9D 48 27          sta     _vdc+1,X
  904                     .l2:    addw    #2,<__sp
                0000              .if     (2 = 3)
                                  .else
                                   ; 2-arg mode
                                   ;
       00:EC92  18                 clc
       00:EC93  A5 00              lda    LOW_BYTE <__sp
       00:EC95  69 02              adc    LOW_BYTE #2
       00:EC97  85 00              sta    LOW_BYTE <__sp
       00:EC99  A5 01              lda    HIGH_BYTE <__sp
       00:EC9B  69 00              adc    HIGH_BYTE #2
       00:EC9D  85 01              sta    HIGH_BYTE <__sp
                                  .endif
  905  00:EC9F  60                rts     
  906                             ; -- reg $09
  907  00:ECA0  8A        .l3:    txa
  908  00:ECA1  29 70             and     #$70
  909  00:ECA3  4A                lsr     A
  910  00:ECA4  4A                lsr     A
  911  00:ECA5  4A                lsr     A
  912  00:ECA6  4A                lsr     A
  913  00:ECA7  20 F9 E4          jsr     set_bat_size
  914  00:ECAA  80 E6             bra     .l2
  915                     
  916                     ; ----
  917                     ; getvdc
  918                     ; ----
  919                     ; get vdc register content
  920                     ; ----
  921                     ; IN : reg index in A:X
  922                     ; ----
  923                     ; OUT: vdc register in A:X
  924                     ; ----
  925                     
  926  00:ECAC            getvdc:
  927  00:ECAC  E0 04             cpx     #4
  928  00:ECAE  F0 08             beq     .l1
  929                             ; --
  930  00:ECB0  02                sxy
  931  00:ECB1  BE 47 27          ldx     _vdc,Y
  932  00:ECB4  B9 48 27          lda     _vdc+1,Y
  933  00:ECB7  60                rts     
  934                             ; --
  935  00:ECB8  A9 02     .l1:    lda     #2
  936  00:ECBA  85 F7             sta     <vdc_reg
  937  00:ECBC  8D 00 00          sta     video_reg
  938  00:ECBF  AE 02 00          ldx     video_data_l
  939  00:ECC2  AD 03 00          lda     video_data_h
  940  00:ECC5  60                rts
  941                     
#[2]   startup.asm
#[3]   huc_gfx.asm
 1217                             .include "huc_gfx.asm"
    1                     ;
    2                     ; HUC_GFX.ASM  -  HuC Graphic Library
    3                     ;
    4                     
    5                     ; ----
    6                     ; local variables
    7                     
    8           2018                  .zp
    9  --:2018            __spr_ptr   .ds 2
   10  --:201A            __spr_max   .ds 1
   11  --:201B            __spr_flag  .ds 1
   12                     
   13           276F                  .bss
   14  --:276F            _font_base  .ds 2
   15  --:2771            _font_color .ds 2
   16  --:2773            _satb       .ds 512     ; the local SATB
   17                     
   18  --:2973            _gfx_pal    .ds 1
   19                     
   20  --:2974            _line_currx     .ds     2
   21  --:2976            _line_curry     .ds     2
   22  --:2978            _line_deltax    .ds     2
   23  --:297A            _line_deltay    .ds     2
   24  --:297C            _line_error     .ds     2
   25  --:297E            _line_adjust    .ds     2
   26  --:2980            _line_xdir      .ds     1
   27  --:2981            _line_color     .ds     1
   28                     
   29                     
   30                     ; ----
   31                     ; library code
   32                     
   33           ECC6               .code
   34                     
   35                     ; cls(int val [dx])
   36                     ; ----
   37                     
   38  00:ECC6            _cls:
   39                               stw   _font_base,<_dx
       00:ECC6  AD 6F 27           lda    LOW_BYTE _font_base
       00:ECC9  85 FE              sta    LOW_BYTE <_dx
       00:ECCB  AD 70 27           lda    HIGH_BYTE _font_base
       00:ECCE  85 FF              sta    HIGH_BYTE <_dx
   40  00:ECD0            _cls.1:
   41                               setvwaddr $0
                                   stw  #$0,<_di
       00:ECD0  A9 00              lda    LOW_BYTE #$0
       00:ECD2  85 F0              sta    LOW_BYTE <_di
       00:ECD4  A9 00              lda    HIGH_BYTE #$0
       00:ECD6  85 F1              sta    HIGH_BYTE <_di
       00:ECD8  20 09 E4           jsr  set_write
   42                               ; --
   43  00:ECDB  AC D6 26            ldy   bat_height
   44  00:ECDE  AE D4 26  .l2:      ldx   bat_width
   45                               ; --
   46                     .l3:      stw   <_dx,video_data
       00:ECE1  A5 FE              lda    LOW_BYTE <_dx
       00:ECE3  8D 02 00           sta    LOW_BYTE video_data
       00:ECE6  A5 FF              lda    HIGH_BYTE <_dx
       00:ECE8  8D 03 00           sta    HIGH_BYTE video_data
   47  00:ECEB  CA                  dex
   48  00:ECEC  D0 F3               bne   .l3
   49  00:ECEE  88                  dey
   50  00:ECEF  D0 ED               bne   .l2
   51  00:ECF1  60                  rts
   52                     
   53                     ; set_font_pal(int pal)
   54                     ; ----
   55                     
   56  00:ECF2            _set_font_pal:
   57  00:ECF2  8A                  txa
   58  00:ECF3  0A                  asl   A
   59  00:ECF4  0A                  asl   A
   60  00:ECF5  0A                  asl   A
   61  00:ECF6  0A                  asl   A
   62  00:ECF7  85 03               sta   <__temp
   63  00:ECF9  AD 70 27            lda   _font_base+1
   64  00:ECFC  29 0F               and   #$0F
   65  00:ECFE  05 03               ora   <__temp
   66  00:ED00  8D 70 27            sta   _font_base+1
   67  00:ED03  60                  rts
   68                     
   69                     ; set_font_color(char color, char bg)
   70                     ; ----
   71                     
   72  00:ED04            _set_font_color.2:
   73  00:ED04  8A                  txa
   74  00:ED05  29 0F               and   #$F
   75  00:ED07  8D 72 27            sta   _font_color+1
   76  00:ED0A  A5 F8               lda   <_al
   77  00:ED0C  29 0F               and   #$F
   78  00:ED0E  8D 71 27            sta   _font_color
   79  00:ED11  60                  rts
   80                     
   81                     ; set_font_addr(int addr)
   82                     ; ----
   83                     
   84  00:ED12            _set_font_addr:
   85                               ; --
   86  00:ED12  8E 6F 27            stx   _font_base
   87  00:ED15  4A                  lsr   A
   88  00:ED16  6E 6F 27            ror   _font_base
   89  00:ED19  4A                  lsr   A
   90  00:ED1A  6E 6F 27            ror   _font_base
   91  00:ED1D  4A                  lsr   A
   92  00:ED1E  6E 6F 27            ror   _font_base
   93  00:ED21  4A                  lsr   A
   94  00:ED22  6E 6F 27            ror   _font_base
   95  00:ED25  85 F8               sta   <_al
   96                               ; --
   97  00:ED27  AD 70 27            lda   _font_base+1
   98  00:ED2A  29 F0               and   #$F0
   99  00:ED2C  05 F8               ora   <_al
  100  00:ED2E  8D 70 27            sta   _font_base+1
  101  00:ED31  60                  rts
  102                     
  103                     ; get_font_pal()
  104                     ; ----
  105                     
  106  00:ED32            _get_font_pal:
  107  00:ED32  AD 70 27            lda   _font_base+1
  108  00:ED35  4A                  lsr   A
  109  00:ED36  4A                  lsr   A
  110  00:ED37  4A                  lsr   A
  111  00:ED38  4A                  lsr   A
  112  00:ED39  82                  clx
  113  00:ED3A  22                  sax
  114  00:ED3B  60                  rts
  115                     
  116                     ; get_font_addr()
  117                     ; ----
  118                     
  119  00:ED3C            _get_font_addr:
  120                               ; --
  121  00:ED3C  AD 70 27            lda   _font_base+1
  122  00:ED3F  85 F8               sta   <_al
  123  00:ED41  AD 6F 27            lda   _font_base
  124  00:ED44  0A                  asl   A
  125  00:ED45  26 F8               rol   <_al
  126  00:ED47  0A                  asl   A
  127  00:ED48  26 F8               rol   <_al
  128  00:ED4A  0A                  asl   A
  129  00:ED4B  26 F8               rol   <_al
  130  00:ED4D  0A                  asl   A
  131  00:ED4E  26 F8               rol   <_al
  132  00:ED50  A6 F8               ldx   <_al
  133  00:ED52  22                  sax
  134  00:ED53  60                  rts
  135                     
  136                     ; load_default_font(char num [dl], int addr [di])
  137                     ; ----
  138                     
  139  00:ED54            _load_default_font:
  140                               ; --
  141  00:ED54  64 FE               stz   <_dl
  142                     
  143  00:ED56            _load_default_font.1:
  144                               ; --
  145  00:ED56  A2 FF               ldx   #$FF
  146  00:ED58  A9 FF               lda   #$FF
  147  00:ED5A  20 26 E4            jsr   calc_vram_addr
  148                               incw  <_di
       00:ED5D  E6 F0              inc    <_di              ; value at stated memory
       00:ED5F  D0 02              bne    .x_00237           ; location
       00:ED61  E6 F1              inc    <_di+1
       00:ED63            .x_00237:
  149                     
  150  00:ED63            _load_default_font.2:
  151                               ; --
  152  00:ED63  A5 F0               lda   <_di
  153  00:ED65  05 F1               ora   <_di+1
  154  00:ED67  D0 09               bne   .l1
  155  00:ED69  20 3C ED            jsr   _get_font_addr
  156                             __stw   <_di
       00:ED6C  86 F0              stx    <_di
       00:ED6E  85 F1              sta    <_di+1
  157  00:ED70  80 07               bra   .l2
  158                               ; --
  159                     .l1:    __ldw   <_di
                0000              .if (1 = 2)
                                  .else
       00:ED72  A6 F0              ldx    <_di
       00:ED74  A5 F1              lda    <_di+1
                                  .endif
  160  00:ED76  20 12 ED            jsr   _set_font_addr
  161                               ; --
  162                     .l2:      stb   #FONT_BANK+_bank_base,<_bl
       00:ED79  A9 01              lda    #FONT_BANK+_bank_base
       00:ED7B  85 FA              sta    <_bl
  163                               stb   #96,<_cl
       00:ED7D  A9 60              lda    #96
       00:ED7F  85 FC              sta    <_cl
  164                               stb   _font_color+1,<_ah
       00:ED81  AD 72 27           lda    _font_color+1
       00:ED84  85 F9              sta    <_ah
  165  00:ED86  AD 71 27            lda   _font_color
  166  00:ED89  D0 01               bne   .l3
  167  00:ED8B  1A                  inc   A
  168  00:ED8C  85 F8     .l3:      sta   <_al
  169  00:ED8E  A5 FE               lda   <_dl
  170  00:ED90  29 03               and   #$03
  171  00:ED92  0A                  asl   A
  172  00:ED93  AA                  tax
  173  00:ED94  BD 1B E3            lda   font_table,X
  174  00:ED97  85 EE               sta   <_si
  175  00:ED99  E8                  inx
  176  00:ED9A  BD 1B E3            lda   font_table,X
  177  00:ED9D  85 EF               sta   <_si+1
  178  00:ED9F  4C B2 E3            jmp   load_font
  179                     
  180                     ; load_font(farptr font [bl:si], char nb [cl], int addr [di])
  181                     ; ----
  182                     
  183  00:EDA2            _load_font.2:
  184                               ; --
  185  00:EDA2  A2 FF               ldx   #$FF
  186  00:EDA4  A9 FF               lda   #$FF
  187  00:EDA6  20 26 E4            jsr   calc_vram_addr
  188                               incw  <_di
       00:EDA9  E6 F0              inc    <_di              ; value at stated memory
       00:EDAB  D0 02              bne    .x_00243           ; location
       00:EDAD  E6 F1              inc    <_di+1
       00:EDAF            .x_00243:
  189                     
  190  00:EDAF            _load_font.3:
  191                               ; --
  192  00:EDAF  A5 F0               lda   <_di
  193  00:EDB1  05 F1               ora   <_di+1
  194  00:EDB3  D0 09               bne   .l1
  195  00:EDB5  20 3C ED            jsr   _get_font_addr
  196                             __stw   <_di
       00:EDB8  86 F0              stx    <_di
       00:EDBA  85 F1              sta    <_di+1
  197  00:EDBC  80 07               bra   .l2
  198                               ; --
  199                     .l1:    __ldw   <_di
                0000              .if (1 = 2)
                                  .else
       00:EDBE  A6 F0              ldx    <_di
       00:EDC0  A5 F1              lda    <_di+1
                                  .endif
  200  00:EDC2  20 12 ED            jsr   _set_font_addr
  201                               ; --
  202  00:EDC5  A5 FC     .l2:      lda   <_cl
  203  00:EDC7  64 FD               stz   <_ch
  204  00:EDC9  0A                  asl   A
  205  00:EDCA  26 FD               rol   <_ch
  206  00:EDCC  0A                  asl   A
  207  00:EDCD  26 FD               rol   <_ch
  208  00:EDCF  0A                  asl   A
  209  00:EDD0  26 FD               rol   <_ch
  210  00:EDD2  0A                  asl   A
  211  00:EDD3  26 FD               rol   <_ch
  212  00:EDD5  85 FC               sta   <_cl
  213                               ;jmp  load_vram
  214                               stb   _font_color+1,<_ah
       00:EDD7  AD 72 27           lda    _font_color+1
       00:EDDA  85 F9              sta    <_ah
  215  00:EDDC  AD 71 27            lda   _font_color
  216  00:EDDF  D0 01               bne   .l3
  217  00:EDE1  1A                  inc   A
  218  00:EDE2  85 F8     .l3:      sta   <_al
  219  00:EDE4  4C B2 E3            jmp   load_font
  220                     
  221                     ; put_digit(char digit, int offset)
  222                     ; put_digit(char digit, char x, char y)
  223                     ; ----
  224                     
  225  00:EDE7            _put_digit.3:
  226  00:EDE7  A4 02               ldy   <__arg_idx
  227                             __plb
                                   ; (bytes : 6/7, cycles : 11/12)
                          
                0000              .if (0 = 2)
                                  .else
       00:EDE9  88                 dey
       00:EDEA  B9 8B 29           lda    __arg,Y
                0000              .if (0)
                                  .endif
                                  .endif
  228  00:EDED  20 14 EE            jsr   _put.xy
  229  00:EDF0  80 05               bra   _put_digit.main
  230  00:EDF2            _put_digit.2:
  231  00:EDF2  A4 02               ldy   <__arg_idx
  232  00:EDF4  20 1B EE            jsr   _put.vram
  233  00:EDF7            _put_digit.main:
  234                             __plb
                                   ; (bytes : 6/7, cycles : 11/12)
                          
                0000              .if (0 = 2)
                                  .else
       00:EDF7  88                 dey
       00:EDF8  B9 8B 29           lda    __arg,Y
                0000              .if (0)
                                  .endif
                                  .endif
  235  00:EDFB  84 02               sty   <__arg_idx
  236  00:EDFD            _put_digit.sub:
  237  00:EDFD  C9 0A               cmp   #10
  238                               blo   .l1
       00:EDFF  90 03              bcc    .l1
  239                               add   #$07
                0000              .if (1 = 2)            ; register A (handle carry
                                  .else
       00:EE01  18                 clc
       00:EE02  69 07              adc    #$07
                                  .endif
  240  00:EE04  69 10     .l1:      adc   #$10
  241  00:EE06  6D 6F 27            adc   _font_base
  242  00:EE09  8D 02 00            sta   video_data_l
  243  00:EE0C  62                  cla
  244  00:EE0D  6D 70 27            adc   _font_base+1
  245  00:EE10  8D 03 00            sta   video_data_h
  246  00:EE13  60                  rts
  247  00:EE14            _put.xy:
  248  00:EE14  22                  sax
  249  00:EE15  20 26 E4            jsr   calc_vram_addr
  250  00:EE18  4C 09 E4            jmp   set_write
  251  00:EE1B            _put.vram:
  252  00:EE1B  64 F7               stz   <vdc_reg
  253  00:EE1D  9C 00 00            stz   video_reg
  254  00:EE20  8E 02 00            stx   video_data_l
  255  00:EE23  8D 03 00            sta   video_data_h
  256                               vreg  #$02
       00:EE26  A9 02              lda    #$02
       00:EE28  85 F7              sta    <vdc_reg
                0001               .if (2 = ARG_IMMED)
       00:EE2A  03 02               st0   #$02
                                   .else
                                   .endif
  257  00:EE2C  60                  rts
  258                     
  259                     ; put_char(char character, int offset)
  260                     ; put_char(char character, char x, char y)
  261                     ; ----
  262                     
  263  00:EE2D            _put_char.3:
  264  00:EE2D  A4 02               ldy   <__arg_idx
  265                             __plb
                                   ; (bytes : 6/7, cycles : 11/12)
                          
                0000              .if (0 = 2)
                                  .else
       00:EE2F  88                 dey
       00:EE30  B9 8B 29           lda    __arg,Y
                0000              .if (0)
                                  .endif
                                  .endif
  266  00:EE33  20 14 EE            jsr   _put.xy
  267  00:EE36  80 05               bra   _put_char.main
  268  00:EE38            _put_char.2:
  269  00:EE38  A4 02               ldy   <__arg_idx
  270  00:EE3A  20 1B EE            jsr   _put.vram
  271  00:EE3D            _put_char.main:
  272                             __plb
                                   ; (bytes : 6/7, cycles : 11/12)
                          
                0000              .if (0 = 2)
                                  .else
       00:EE3D  88                 dey
       00:EE3E  B9 8B 29           lda    __arg,Y
                0000              .if (0)
                                  .endif
                                  .endif
  273  00:EE41  84 02               sty   <__arg_idx
  274                               ; --
  275  00:EE43  C9 20               cmp   #32
  276                               bhs   .l1
       00:EE45  B0 03              bcs    .l1
  277  00:EE47  A9 20               lda   #32
  278  00:EE49  38                  sec
  279  00:EE4A  E9 20     .l1:      sbc   #32
  280                               add   _font_base
                0000              .if (1 = 2)            ; register A (handle carry
                                  .else
       00:EE4C  18                 clc
       00:EE4D  6D 6F 27           adc    _font_base
                                  .endif
  281  00:EE50  8D 02 00            sta   video_data_l
  282  00:EE53  62                  cla
  283  00:EE54  6D 70 27            adc   _font_base+1
  284  00:EE57  8D 03 00            sta   video_data_h
  285  00:EE5A  60                  rts
  286                     
  287                     ; put_raw(int character, int offset)
  288                     ; put_raw(int character, char x, char y)
  289                     ; ----
  290                     
  291  00:EE5B            _put_raw.3:
  292  00:EE5B  A4 02               ldy   <__arg_idx
  293                             __plb
                                   ; (bytes : 6/7, cycles : 11/12)
                          
                0000              .if (0 = 2)
                                  .else
       00:EE5D  88                 dey
       00:EE5E  B9 8B 29           lda    __arg,Y
                0000              .if (0)
                                  .endif
                                  .endif
  294  00:EE61  20 14 EE            jsr   _put.xy
  295  00:EE64  80 05               bra   _put_raw.main
  296  00:EE66            _put_raw.2:
  297  00:EE66  A4 02               ldy   <__arg_idx
  298  00:EE68  20 1B EE            jsr   _put.vram
  299  00:EE6B            _put_raw.main:
  300                             __plb
                                   ; (bytes : 6/7, cycles : 11/12)
                          
                0000              .if (0 = 2)
                                  .else
       00:EE6B  88                 dey
       00:EE6C  B9 8B 29           lda    __arg,Y
                0000              .if (0)
                                  .endif
                                  .endif
  301  00:EE6F  8D 02 00            sta   video_data_l
  302                             __plb
                                   ; (bytes : 6/7, cycles : 11/12)
                          
                0000              .if (0 = 2)
                                  .else
       00:EE72  88                 dey
       00:EE73  B9 8B 29           lda    __arg,Y
                0000              .if (0)
                                  .endif
                                  .endif
  303  00:EE76  8D 03 00            sta   video_data_h
  304  00:EE79  84 02               sty   <__arg_idx
  305  00:EE7B  60                  rts
  306                     
  307                     ; put_number(int number, char n, int offset)
  308                     ; put_number(int number, char n, char x, char y)
  309                     ; ----
  310                     
  311                     
  312                     _put_number.3:  maplibfunc      lib2_put_number.3
       00:EE7C  A8                 tay
       00:EE7D  43 20              tma  #page(lib2_put_number.3)
       00:EE7F  48                 pha
       00:EE80  A9 01              lda  #bank(lib2_put_number.3)
       00:EE82  53 20              tam  #page(lib2_put_number.3)
       00:EE84  98                 tya
       00:EE85  20 32 AB           jsr  lib2_put_number.3
       00:EE88  A8                 tay
       00:EE89  68                 pla
       00:EE8A  53 20              tam  #page(lib2_put_number.3)
       00:EE8C  98                 tya
  313  00:EE8D  60                        rts
  314                     
  315                     _put_number.4:  maplibfunc      lib2_put_number.4
       00:EE8E  A8                 tay
       00:EE8F  43 20              tma  #page(lib2_put_number.4)
       00:EE91  48                 pha
       00:EE92  A9 01              lda  #bank(lib2_put_number.4)
       00:EE94  53 20              tam  #page(lib2_put_number.4)
       00:EE96  98                 tya
       00:EE97  20 27 AB           jsr  lib2_put_number.4
       00:EE9A  A8                 tay
       00:EE9B  68                 pla
       00:EE9C  53 20              tam  #page(lib2_put_number.4)
       00:EE9E  98                 tya
  316  00:EE9F  60                        rts
  317                     
  318                     
  319                     ; put_hex(int number, char n, int offset)
  320                     ; put_hex(int number, char n, char x, char y)
  321                     ; ----
  322                     
  323  00:EEA0            _put_hex.4:
  324  00:EEA0  A4 02               ldy   <__arg_idx
  325                             __plb
                                   ; (bytes : 6/7, cycles : 11/12)
                          
                0000              .if (0 = 2)
                                  .else
       00:EEA2  88                 dey
       00:EEA3  B9 8B 29           lda    __arg,Y
                0000              .if (0)
                                  .endif
                                  .endif
  326  00:EEA6  20 14 EE            jsr   _put.xy
  327  00:EEA9  80 05               bra   _put_hex.main
  328  00:EEAB            _put_hex.3:
  329  00:EEAB  A4 02               ldy   <__arg_idx
  330  00:EEAD  20 1B EE            jsr   _put.vram
  331  00:EEB0            _put_hex.main:
  332                             __plb   <_cl,1
                                   ; (bytes : 6/7, cycles : 11/12)
                          
                0001              .if (2 = 2)
       00:EEB0  88                 dey
       00:EEB1  BE 8B 29           ldx    __arg,Y
       00:EEB4  86 FC              stx    <_cl
                                  .else
                                  .endif
  333                             __plw   <_dx
                                   ; (bytes : 9/12, cycles : 16/22)
                          
       00:EEB6  88                 dey
       00:EEB7  B9 8B 29           lda    __arg,Y
                0001              .if (1)
       00:EEBA  85 FE              sta    <_dx
                                  .else
                                  .endif
       00:EEBC  88                 dey
       00:EEBD  B9 8B 29           lda    __arg,Y
                0001              .if (1)
       00:EEC0  85 FF              sta    <_dx+1
                                  .endif
  334  00:EEC2  84 02               sty   <__arg_idx
  335                               ; --
  336  00:EEC4  8A                  txa
  337  00:EEC5  F0 12               beq   .l3
  338  00:EEC7  E0 05     .l1:      cpx   #5
  339                               blo   .l2
       00:EEC9  90 07              bcc    .l2
  340  00:EECB  62                  cla
  341  00:EECC  20 FD ED            jsr   _put_digit.sub
  342  00:EECF  CA                  dex
  343  00:EED0  80 F5               bra   .l1
  344                               ; --
  345  00:EED2  8A        .l2:      txa
  346  00:EED3  3A                  dec   A
  347  00:EED4  0A                  asl   A
  348  00:EED5  AA                  tax
  349  00:EED6  7C DA EE            jmp   [.tbl,X]
  350  00:EED9  60        .l3:      rts
  351                               ; --
  352  00:EEDA  FB EE     .tbl:    .dw    .h1,.h2,.h3,.h4
       00:EEDC  F2 EE     
       00:EEDE  EB EE     
       00:EEE0  E2 EE     
  353                               ; --
  354  00:EEE2  A5 FF     .h4:      lda   <_dh
  355  00:EEE4  4A                  lsr   A
  356  00:EEE5  4A                  lsr   A
  357  00:EEE6  4A                  lsr   A
  358  00:EEE7  4A                  lsr   A
  359  00:EEE8  20 FD ED            jsr   _put_digit.sub
  360                               ; --
  361  00:EEEB  A5 FF     .h3:      lda   <_dh
  362  00:EEED  29 0F               and   #$0F
  363  00:EEEF  20 FD ED            jsr   _put_digit.sub
  364                               ; --
  365  00:EEF2  A5 FE     .h2:      lda   <_dl
  366  00:EEF4  4A                  lsr   A
  367  00:EEF5  4A                  lsr   A
  368  00:EEF6  4A                  lsr   A
  369  00:EEF7  4A                  lsr   A
  370  00:EEF8  20 FD ED            jsr   _put_digit.sub
  371                               ; --
  372  00:EEFB  A5 FE     .h1:      lda   <_dl
  373  00:EEFD  29 0F               and   #$0F
  374  00:EEFF  4C FD ED            jmp   _put_digit.sub
  375                     
  376                     ; put_string(char *string, int offset)
  377                     ; put_string(char *string, char x, char y)
  378                     ; ----
  379                     
  380  00:EF02            _put_string.3:
  381  00:EF02  A4 02               ldy   <__arg_idx
  382                             __plb
                                   ; (bytes : 6/7, cycles : 11/12)
                          
                0000              .if (0 = 2)
                                  .else
       00:EF04  88                 dey
       00:EF05  B9 8B 29           lda    __arg,Y
                0000              .if (0)
                                  .endif
                                  .endif
  383  00:EF08  20 14 EE            jsr   _put.xy
  384  00:EF0B  80 05               bra   _put_string.main
  385  00:EF0D            _put_string.2:
  386  00:EF0D  A4 02               ldy   <__arg_idx
  387  00:EF0F  20 1B EE            jsr   _put.vram
  388  00:EF12            _put_string.main:
  389                             __plw   <_si
                                   ; (bytes : 9/12, cycles : 16/22)
                          
       00:EF12  88                 dey
       00:EF13  B9 8B 29           lda    __arg,Y
                0001              .if (1)
       00:EF16  85 EE              sta    <_si
                                  .else
                                  .endif
       00:EF18  88                 dey
       00:EF19  B9 8B 29           lda    __arg,Y
                0001              .if (1)
       00:EF1C  85 EF              sta    <_si+1
                                  .endif
  390  00:EF1E  84 02               sty   <__arg_idx
  391  00:EF20  80 1D               bra   .l3
  392                               ; --
  393  00:EF22  C9 20     .l1:      cmp   #32
  394                               bhs   .l2
       00:EF24  B0 03              bcs    .l2
  395  00:EF26  A9 20               lda   #32
  396  00:EF28  38                  sec
  397  00:EF29  E9 20     .l2:      sbc   #32
  398                               add   _font_base
                0000              .if (1 = 2)            ; register A (handle carry
                                  .else
       00:EF2B  18                 clc
       00:EF2C  6D 6F 27           adc    _font_base
                                  .endif
  399  00:EF2F  8D 02 00            sta   video_data_l
  400  00:EF32  62                  cla
  401  00:EF33  6D 70 27            adc   _font_base+1
  402  00:EF36  8D 03 00            sta   video_data_h
  403                               incw  <_si
       00:EF39  E6 EE              inc    <_si              ; value at stated memory
       00:EF3B  D0 02              bne    .x_00269           ; location
       00:EF3D  E6 EF              inc    <_si+1
       00:EF3F            .x_00269:
  404  00:EF3F  B2 EE     .l3:      lda   [_si]
  405  00:EF41  D0 DF               bne   .l1
  406  00:EF43  60                  rts
  407                     
  408                     ; vsync(char nb_frame)
  409                     ; ----
  410                     
  411  00:EF44            _vsync:
  412  00:EF44  8A                  txa
  413  00:EF45  C0 00               cpy   #0
  414  00:EF47  D0 01               bne   .l1
  415  00:EF49  62                  cla
  416  00:EF4A  4C 39 FC  .l1:      jmp   wait_vsync
  417                     
  418                     ; vreg(char reg)
  419                     ; ----
  420                     
  421  00:EF4D            _vreg:
  422  00:EF4D  C0 02               cpy   #2
  423  00:EF4F  D0 03               bne   .l1
  424  00:EF51  4C 6A EC            jmp   setvdc
  425  00:EF54            .l1:
  426  00:EF54  86 F7               stx   <vdc_reg
  427  00:EF56  8E 00 00            stx   video_reg
  428  00:EF59  60                  rts
  429                     
  430                     ; vram_addr(char x [al], char y)
  431                     ; ----
  432                     
  433  00:EF5A            _vram_addr.2:
  434  00:EF5A  A5 F8               lda   <_al
  435  00:EF5C  22                  sax
  436  00:EF5D  20 26 E4            jsr   calc_vram_addr
  437                             __ldw   <_di
                0000              .if (1 = 2)
                                  .else
       00:EF60  A6 F0              ldx    <_di
       00:EF62  A5 F1              lda    <_di+1
                                  .endif
  438  00:EF64  60                  rts
  439                     
  440                     ; scan_map_table(int *tbl [si], int *x [ax], int *y [cx])
  441                     ; ----
  442                     ; tbl,
  443                     ; x,
  444                     ; y,
  445                     ; ----
  446                     
  447  00:EF65            _scan_map_table.3:
  448                     
  449  00:EF65  A0 01               ldy   #1
  450  00:EF67  B2 F8               lda   [_ax]
  451  00:EF69  85 FA               sta   <_bl
  452  00:EF6B  B1 F8               lda   [_ax],Y
  453  00:EF6D  85 FB               sta   <_bh
  454  00:EF6F  B2 FC               lda   [_cx]
  455  00:EF71  85 FE               sta   <_dl
  456  00:EF73  B1 FC               lda   [_cx],Y
  457  00:EF75  85 FF               sta   <_dh
  458                               ; --
  459                               addw  #4,<_si
                0000              .if     (2 = 3)
                                  .else
                                   ; 2-arg mode
                                   ;
       00:EF77  18                 clc
       00:EF78  A5 EE              lda    LOW_BYTE <_si
       00:EF7A  69 04              adc    LOW_BYTE #4
       00:EF7C  85 EE              sta    LOW_BYTE <_si
       00:EF7E  A5 EF              lda    HIGH_BYTE <_si
       00:EF80  69 00              adc    HIGH_BYTE #4
       00:EF82  85 EF              sta    HIGH_BYTE <_si
                                  .endif
  460                     
  461                         ; ----
  462                         ; check bounds
  463                         ;
  464                               ; -- bottom
  465  00:EF84  A0 07     .l1:      ldy   #7
  466  00:EF86  B1 EE               lda   [_si],Y
  467  00:EF88  C5 FF               cmp   <_dh
  468                               blo   .x1
       00:EF8A  90 3B              bcc    .x1
  469  00:EF8C  D0 07               bne   .l2
  470  00:EF8E  88                  dey
  471  00:EF8F  B1 EE               lda   [_si],Y
  472  00:EF91  C5 FE               cmp   <_dl
  473                               blo   .x1
       00:EF93  90 32              bcc    .x1
  474                               ; -- top
  475  00:EF95  A0 03     .l2:      ldy   #3
  476  00:EF97  A5 FF               lda   <_dh
  477  00:EF99  D1 EE               cmp   [_si],Y
  478                               blo   .x1
       00:EF9B  90 2A              bcc    .x1
  479  00:EF9D  D0 07               bne   .l3
  480  00:EF9F  88                  dey
  481  00:EFA0  A5 FE               lda   <_dl
  482  00:EFA2  D1 EE               cmp   [_si],Y
  483                               blo   .x1
       00:EFA4  90 21              bcc    .x1
  484                               ; -- right
  485  00:EFA6  A0 05     .l3:      ldy   #5
  486  00:EFA8  B1 EE               lda   [_si],Y
  487  00:EFAA  C5 FB               cmp   <_bh
  488                               blo   .x1
       00:EFAC  90 19              bcc    .x1
  489  00:EFAE  D0 07               bne   .l4
  490  00:EFB0  88                  dey
  491  00:EFB1  B1 EE               lda   [_si],Y
  492  00:EFB3  C5 FA               cmp   <_bl
  493                               blo   .x1
       00:EFB5  90 10              bcc    .x1
  494                               ; -- left
  495  00:EFB7  A0 01     .l4:      ldy   #1
  496  00:EFB9  A5 FB               lda   <_bh
  497  00:EFBB  D1 EE               cmp   [_si],Y
  498                               blo   .x1
       00:EFBD  90 08              bcc    .x1
  499  00:EFBF  D0 20               bne   .x2
  500  00:EFC1  A5 FA               lda   <_bl
  501  00:EFC3  D2 EE               cmp   [_si]
  502                               bhs   .x2
       00:EFC5  B0 1A              bcs    .x2
  503                     
  504                         ; ----
  505                         ; next
  506                         ;
  507                     .x1:      addw  #12,<_si
                0000              .if     (2 = 3)
                                  .else
                                   ; 2-arg mode
                                   ;
       00:EFC7  18                 clc
       00:EFC8  A5 EE              lda    LOW_BYTE <_si
       00:EFCA  69 0C              adc    LOW_BYTE #12
       00:EFCC  85 EE              sta    LOW_BYTE <_si
       00:EFCE  A5 EF              lda    HIGH_BYTE <_si
       00:EFD0  69 00              adc    HIGH_BYTE #12
       00:EFD2  85 EF              sta    HIGH_BYTE <_si
                                  .endif
  508  00:EFD4  A0 01               ldy   #1
  509  00:EFD6  B2 EE               lda   [_si]
  510  00:EFD8  31 EE               and   [_si],Y
  511  00:EFDA  C9 FF               cmp   #$FF
  512  00:EFDC  D0 A6               bne   .l1
  513                     
  514                         ; ----
  515                         ; didn't find map...
  516                         ;
  517  00:EFDE  82                  clx
  518  00:EFDF  62                  cla
  519  00:EFE0  60                  rts
  520                     
  521                         ; ----
  522                         ; found map!
  523                         ;
  524  00:EFE1  A0 01     .x2:      ldy   #1
  525  00:EFE3  A5 FA               lda   <_bl
  526                               sub   [_si]
                0000              .if (1 = 2)            ; from register A (handle
                                  .else
       00:EFE5  38                 sec
       00:EFE6  F2 EE              sbc    [_si]
                                  .endif
  527  00:EFE8  92 F8               sta   [_ax]
  528  00:EFEA  A5 FB               lda   <_bh
  529  00:EFEC  F1 EE               sbc   [_si],Y
  530  00:EFEE  91 F8               sta   [_ax],Y
  531                               ; --
  532  00:EFF0  C8                  iny
  533  00:EFF1  A5 FE               lda   <_dl
  534                               sub   [_si],Y
                0000              .if (1 = 2)            ; from register A (handle
                                  .else
       00:EFF3  38                 sec
       00:EFF4  F1 EE              sbc    [_si],Y
                                  .endif
  535  00:EFF6  92 FC               sta   [_cx]
  536  00:EFF8  C8                  iny
  537  00:EFF9  A5 FF               lda   <_dh
  538  00:EFFB  F1 EE               sbc   [_si],Y
  539  00:EFFD  A0 01               ldy   #1
  540  00:EFFF  91 FC               sta   [_cx],Y
  541                               ; --
  542                             __ldw   <_si
                0000              .if (1 = 2)
                                  .else
       00:F001  A6 EE              ldx    <_si
       00:F003  A5 EF              lda    <_si+1
                                  .endif
  543  00:F005  60                  rts
  544                     
  545                     ; set_map_data(int *ptr)
  546                     ; set_map_data(char *map [bl:si], int w [ax], int h)
  547                     ; set_map_data(char *map [bl:si], int w [ax], int h [dx], char wrap)
  548                     ; ----
  549                     ; map,  map base address
  550                     ; w,    map width
  551                     ; h,    map height
  552                     ; wrap, wrap flag (1 = wrap, 0 = do not wrap)
  553                     ; ----
  554                     
  555  00:F006            _set_map_data.1:
  556                             __stw   <_si
       00:F006  86 EE              stx    <_si
       00:F008  85 EF              sta    <_si+1
  557  00:F00A  05 EE               ora   <_si
  558  00:F00C  F0 54               beq   .l1
  559                               ; -- calculate width
  560  00:F00E  A0 04 B1            lda   [_si].4
       00:F011  EE        
  561                               sub   [_si]
                0000              .if (1 = 2)            ; from register A (handle
                                  .else
       00:F012  38                 sec
       00:F013  F2 EE              sbc    [_si]
                                  .endif
  562  00:F015  8D B4 26            sta   mapwidth
  563  00:F018  A0 05 B1            lda   [_si].5
       00:F01B  EE        
  564  00:F01C  A0 01 F1            sbc   [_si].1
       00:F01F  EE        
  565  00:F020  8D B5 26            sta   mapwidth+1
  566                               incw  mapwidth
       00:F023  EE B4 26           inc    mapwidth              ; value at stated memory
       00:F026  D0 03              bne    .x_00286           ; location
       00:F028  EE B5 26           inc    mapwidth+1
       00:F02B            .x_00286:
  567                               ; -- calculate height
  568  00:F02B  A0 06 B1            lda   [_si].6
       00:F02E  EE        
  569                               sub   [_si].2
                0000              .if (1 = 2)            ; from register A (handle
                                  .else
       00:F02F  38                 sec
       00:F030  A0 02 F1           sbc    [_si].2
       00:F033  EE        
                                  .endif
  570  00:F034  8D B6 26            sta   mapheight
  571  00:F037  A0 07 B1            lda   [_si].7
       00:F03A  EE        
  572  00:F03B  A0 03 F1            sbc   [_si].3
       00:F03E  EE        
  573  00:F03F  8D B7 26            sta   mapheight+1
  574                               incw  mapheight
       00:F042  EE B6 26           inc    mapheight              ; value at stated memory
       00:F045  D0 03              bne    .x_00288           ; location
       00:F047  EE B7 26           inc    mapheight+1
       00:F04A            .x_00288:
  575                               ; -- get map bank
  576  00:F04A  A0 08 B1            lda   [_si].8
       00:F04D  EE        
  577  00:F04E  8D B1 26            sta   mapbank
  578                               ; -- get map addr
  579  00:F051  A0 0A B1            lda   [_si].10
       00:F054  EE        
  580  00:F055  8D B2 26            sta   mapaddr
  581  00:F058  C8                  iny
  582  00:F059  B2 EE               lda   [_si]
  583  00:F05B  8D B3 26            sta   mapaddr+1
  584                               ; -- no wrap
  585  00:F05E  9C C3 26            stz   mapwrap
  586  00:F061  60                  rts
  587                               ; -- null pointer
  588                     .l1:      stwz  mapwidth
       00:F062  9C B4 26           stz    LOW_BYTE mapwidth
       00:F065  9C B5 26           stz    HIGH_BYTE mapwidth
  589                               stwz  mapheight
       00:F068  9C B6 26           stz    LOW_BYTE mapheight
       00:F06B  9C B7 26           stz    HIGH_BYTE mapheight
  590  00:F06E  9C B1 26            stz   mapbank
  591                               stwz  mapaddr
       00:F071  9C B2 26           stz    LOW_BYTE mapaddr
       00:F074  9C B3 26           stz    HIGH_BYTE mapaddr
  592  00:F077  9C C3 26            stz   mapwrap
  593  00:F07A  60                  rts
  594  00:F07B            _set_map_data.4:
  595  00:F07B  8E C3 26            stx   mapwrap
  596                             __ldw   <_dx
                0000              .if (1 = 2)
                                  .else
       00:F07E  A6 FE              ldx    <_dx
       00:F080  A5 FF              lda    <_dx+1
                                  .endif
  597  00:F082  80 06               bra   _set_map_data.main
  598  00:F084            _set_map_data.3:
  599  00:F084  9C C3 26            stz   mapwrap
  600  00:F087  EE C3 26            inc   mapwrap
  601  00:F08A            _set_map_data.main:
  602                             __stw   mapheight
       00:F08A  8E B6 26           stx    mapheight
       00:F08D  8D B7 26           sta    mapheight+1
  603                               stw   <_ax,mapwidth
       00:F090  A5 F8              lda    LOW_BYTE <_ax
       00:F092  8D B4 26           sta    LOW_BYTE mapwidth
       00:F095  A5 F9              lda    HIGH_BYTE <_ax
       00:F097  8D B5 26           sta    HIGH_BYTE mapwidth
  604                               stb   <_bl,mapbank
       00:F09A  A5 FA              lda    <_bl
       00:F09C  8D B1 26           sta    mapbank
  605                               stw   <_si,mapaddr
       00:F09F  A5 EE              lda    LOW_BYTE <_si
       00:F0A1  8D B2 26           sta    LOW_BYTE mapaddr
       00:F0A4  A5 EF              lda    HIGH_BYTE <_si
       00:F0A6  8D B3 26           sta    HIGH_BYTE mapaddr
  606  00:F0A9  60                  rts
  607                     
  608                     ; get_map_width()
  609                     ; ----
  610                     
  611  00:F0AA            _get_map_width:
  612                             __ldw   mapwidth
                0000              .if (1 = 2)
                                  .else
       00:F0AA  AE B4 26           ldx    mapwidth
       00:F0AD  AD B5 26           lda    mapwidth+1
                                  .endif
  613  00:F0B0  60                  rts
  614                     
  615                     ; get_map_height()
  616                     ; ----
  617                     
  618  00:F0B1            _get_map_height:
  619                             __ldw   mapheight
                0000              .if (1 = 2)
                                  .else
       00:F0B1  AE B6 26           ldx    mapheight
       00:F0B4  AD B7 26           lda    mapheight+1
                                  .endif
  620  00:F0B7  60                  rts
  621                     
  622                     ; set_tile_data(char *tile_ex [di])
  623                     ; set_tile_data(char *tile [bl:si], int nb_tile [cx], char *ptable [al:dx])
  624                     ; ----
  625                     ; tile,    tile base index
  626                     ; nb_tile, number of tile
  627                     ; ptable,  tile palette table address
  628                     ; ----
  629                     
  630  00:F0B8            _set_tile_data.1:
  631  00:F0B8  C2                  cly
  632  00:F0B9  B1 F0 C8            lda   [_di],Y++
  633  00:F0BC  8D BE 26            sta   mapnbtile
  634  00:F0BF  B1 F0 C8            lda   [_di],Y++
  635  00:F0C2  8D BF 26            sta   mapnbtile+1
  636  00:F0C5  B1 F0 C8            lda   [_di],Y++
  637  00:F0C8  8D B8 26            sta   maptiletype
  638  00:F0CB  C8                  iny
  639  00:F0CC  B1 F0 C8            lda   [_di],Y++
  640  00:F0CF  8D B9 26            sta   maptilebank
  641  00:F0D2  C8                  iny
  642  00:F0D3  B1 F0 C8            lda   [_di],Y++
  643  00:F0D6  8D BA 26            sta   maptileaddr
  644  00:F0D9  B1 F0 C8            lda   [_di],Y++
  645  00:F0DC  8D BB 26            sta   maptileaddr+1
  646  00:F0DF  A9 03               lda   #(CONST_BANK+_bank_base)
  647  00:F0E1  8D C0 26            sta   mapctablebank
  648  00:F0E4  B1 F0 C8            lda   [_di],Y++
  649  00:F0E7  8D C1 26            sta   mapctable
  650  00:F0EA  B1 F0               lda   [_di],Y
  651  00:F0EC  8D C2 26            sta   mapctable+1
  652  00:F0EF  60                  rts
  653  00:F0F0            _set_tile_data.3:
  654                               stb   <_bl,maptilebank
       00:F0F0  A5 FA              lda    <_bl
       00:F0F2  8D B9 26           sta    maptilebank
  655                               stw   <_si,maptileaddr
       00:F0F5  A5 EE              lda    LOW_BYTE <_si
       00:F0F7  8D BA 26           sta    LOW_BYTE maptileaddr
       00:F0FA  A5 EF              lda    HIGH_BYTE <_si
       00:F0FC  8D BB 26           sta    HIGH_BYTE maptileaddr
  656                               stw   <_cx,mapnbtile
       00:F0FF  A5 FC              lda    LOW_BYTE <_cx
       00:F101  8D BE 26           sta    LOW_BYTE mapnbtile
       00:F104  A5 FD              lda    HIGH_BYTE <_cx
       00:F106  8D BF 26           sta    HIGH_BYTE mapnbtile
  657                               stb   <_al,mapctablebank
       00:F109  A5 F8              lda    <_al
       00:F10B  8D C0 26           sta    mapctablebank
  658                               stw   <_dx,mapctable
       00:F10E  A5 FE              lda    LOW_BYTE <_dx
       00:F110  8D C1 26           sta    LOW_BYTE mapctable
       00:F113  A5 FF              lda    HIGH_BYTE <_dx
       00:F115  8D C2 26           sta    HIGH_BYTE mapctable
  659                               ; --
  660  00:F118  A4 FA               ldy   <_bl            ; get tile format (8x8 or 16x16)
  661  00:F11A  A5 EF               lda   <_si+1
  662  00:F11C  29 1F               and   #$1F
  663  00:F11E  AA                  tax
  664  00:F11F  A5 EE               lda   <_si
  665  00:F121  D0 08               bne   .l2
  666  00:F123  E0 00               cpx   #$0
  667  00:F125  D0 03               bne   .l1
  668  00:F127  88                  dey
  669  00:F128  A2 20               ldx   #$20
  670  00:F12A  CA        .l1:      dex
  671  00:F12B  3A        .l2:      dec   A
  672  00:F12C  8A                  txa
  673  00:F12D  09 60               ora   #$60
  674  00:F12F  85 EF               sta   <_si+1
  675  00:F131  98                  tya
  676  00:F132  53 08               tam   #3
  677  00:F134  B2 EE               lda   [_si]
  678  00:F136  8D B8 26            sta   maptiletype
  679  00:F139  60                  rts
  680                     
  681                     ; load_tile(int addr)
  682                     ; ----
  683                     
  684  00:F13A            _load_tile:
  685                             __stw   <_di
       00:F13A  86 F0              stx    <_di
       00:F13C  85 F1              sta    <_di+1
  686  00:F13E  86 F8               stx   <_al
  687  00:F140  4A                  lsr   A
  688  00:F141  66 F8               ror   <_al
  689  00:F143  4A                  lsr   A
  690  00:F144  66 F8               ror   <_al
  691  00:F146  4A                  lsr   A
  692  00:F147  66 F8               ror   <_al
  693  00:F149  4A                  lsr   A
  694  00:F14A  66 F8               ror   <_al
  695  00:F14C  8D BD 26            sta        maptilebase+1
  696                               stb   <_al,maptilebase
       00:F14F  A5 F8              lda    <_al
       00:F151  8D BC 26           sta    maptilebase
  697                               ; --
  698                               stw   mapnbtile,<_cx
       00:F154  AD BE 26           lda    LOW_BYTE mapnbtile
       00:F157  85 FC              sta    LOW_BYTE <_cx
       00:F159  AD BF 26           lda    HIGH_BYTE mapnbtile
       00:F15C  85 FD              sta    HIGH_BYTE <_cx
  699  00:F15E  A2 04               ldx   #4
  700  00:F160  AD B8 26            lda   maptiletype
  701  00:F163  C9 08               cmp   #8
  702  00:F165  F0 02               beq   .l1
  703  00:F167  A2 06               ldx   #6
  704  00:F169  06 FC     .l1:      asl   <_cl
  705  00:F16B  26 FD               rol   <_ch
  706  00:F16D  CA                  dex
  707  00:F16E  D0 F9               bne   .l1
  708                               ; --
  709                               stb   maptilebank,<_bl
       00:F170  AD B9 26           lda    maptilebank
       00:F173  85 FA              sta    <_bl
  710                               stw   maptileaddr,<_si
       00:F175  AD BA 26           lda    LOW_BYTE maptileaddr
       00:F178  85 EE              sta    LOW_BYTE <_si
       00:F17A  AD BB 26           lda    HIGH_BYTE maptileaddr
       00:F17D  85 EF              sta    HIGH_BYTE <_si
  711  00:F17F  4C C4 E3            jmp   load_vram
  712                     
  713                     ; load_map(char x [al], char y [ah], int mx, int my, char w [dl], char h [dh])
  714                     ; ----
  715                     
  716  00:F182            _load_map.6:
  717                     
  718                               tstw  mapwidth
       00:F182  AD B4 26           lda   mapwidth               ; value at stated memory
       00:F185  0D B5 26           ora   mapwidth+1             ; location is zero
  719                               lbeq  .l6
       00:F188  D0 03              bne    .x_00310
       00:F18A  4C 24 F2           jmp    .l6
       00:F18D            .x_00310
  720                               tstw  mapheight
       00:F18D  AD B6 26           lda   mapheight               ; value at stated memory
       00:F190  0D B7 26           ora   mapheight+1             ; location is zero
  721                               lbeq  .l6
       00:F193  D0 03              bne    .x_00312
       00:F195  4C 24 F2           jmp    .l6
       00:F198            .x_00312
  722                     
  723                         ; ----
  724                         ; adjust map y coordinate
  725                         ;
  726  00:F198  A4 02               ldy   <__arg_idx
  727                             __plw   <_bx
                                   ; (bytes : 9/12, cycles : 16/22)
                          
       00:F19A  88                 dey
       00:F19B  B9 8B 29           lda    __arg,Y
                0001              .if (1)
       00:F19E  85 FA              sta    <_bx
                                  .else
                                  .endif
       00:F1A0  88                 dey
       00:F1A1  B9 8B 29           lda    __arg,Y
                0001              .if (1)
       00:F1A4  85 FB              sta    <_bx+1
                                  .endif
  728  00:F1A6  30 1F               bmi   .l2
  729                     .l1:      cmpw  mapheight,<_bx
       00:F1A8  A5 FB              lda    HIGH_BYTE <_bx
       00:F1AA  CD B7 26           cmp    HIGH_BYTE mapheight
       00:F1AD  D0 05              bne    .x_00314
       00:F1AF  A5 FA              lda    LOW_BYTE <_bx
       00:F1B1  CD B6 26           cmp    LOW_BYTE mapheight
       00:F1B4            .x_00314:
  730                               blo   .l3
       00:F1B4  90 26              bcc    .l3
  731                               subw  mapheight,<_bx
       00:F1B6  38                 sec
       00:F1B7  A5 FA              lda    LOW_BYTE <_bx
       00:F1B9  ED B6 26           sbc    LOW_BYTE mapheight
       00:F1BC  85 FA              sta    LOW_BYTE <_bx
       00:F1BE  A5 FB              lda    HIGH_BYTE <_bx
       00:F1C0  ED B7 26           sbc    HIGH_BYTE mapheight
       00:F1C3  85 FB              sta    HIGH_BYTE <_bx
  732  00:F1C5  80 E1               bra   .l1
  733                               ; --
  734  00:F1C7  A5 FB     .l2:      lda   <_bh
  735  00:F1C9  10 11               bpl   .l3
  736                               addw  mapheight,<_bx
                0000              .if     (2 = 3)
                                  .else
                                   ; 2-arg mode
                                   ;
       00:F1CB  18                 clc
       00:F1CC  A5 FA              lda    LOW_BYTE <_bx
       00:F1CE  6D B6 26           adc    LOW_BYTE mapheight
       00:F1D1  85 FA              sta    LOW_BYTE <_bx
       00:F1D3  A5 FB              lda    HIGH_BYTE <_bx
       00:F1D5  6D B7 26           adc    HIGH_BYTE mapheight
       00:F1D8  85 FB              sta    HIGH_BYTE <_bx
                                  .endif
  737  00:F1DA  80 EB               bra   .l2
  738                               
  739                         ; ----
  740                         ; adjust map x coordinate
  741                         ;
  742                     .l3:      stb   <_bl,<_ch
       00:F1DC  A5 FA              lda    <_bl
       00:F1DE  85 FD              sta    <_ch
  743                             __plw   <_bx
                                   ; (bytes : 9/12, cycles : 16/22)
                          
       00:F1E0  88                 dey
       00:F1E1  B9 8B 29           lda    __arg,Y
                0001              .if (1)
       00:F1E4  85 FA              sta    <_bx
                                  .else
                                  .endif
       00:F1E6  88                 dey
       00:F1E7  B9 8B 29           lda    __arg,Y
                0001              .if (1)
       00:F1EA  85 FB              sta    <_bx+1
                                  .endif
  744  00:F1EC  84 02               sty   <__arg_idx
  745  00:F1EE  30 1F               bmi   .l5
  746                     .l4:      cmpw  mapwidth,<_bx
       00:F1F0  A5 FB              lda    HIGH_BYTE <_bx
       00:F1F2  CD B5 26           cmp    HIGH_BYTE mapwidth
       00:F1F5  D0 05              bne    .x_00320
       00:F1F7  A5 FA              lda    LOW_BYTE <_bx
       00:F1F9  CD B4 26           cmp    LOW_BYTE mapwidth
       00:F1FC            .x_00320:
  747                               blo   .l7
       00:F1FC  90 2E              bcc    .l7
  748                               subw  mapwidth,<_bx
       00:F1FE  38                 sec
       00:F1FF  A5 FA              lda    LOW_BYTE <_bx
       00:F201  ED B4 26           sbc    LOW_BYTE mapwidth
       00:F204  85 FA              sta    LOW_BYTE <_bx
       00:F206  A5 FB              lda    HIGH_BYTE <_bx
       00:F208  ED B5 26           sbc    HIGH_BYTE mapwidth
       00:F20B  85 FB              sta    HIGH_BYTE <_bx
  749  00:F20D  80 E1               bra   .l4
  750                               ; --
  751  00:F20F  A5 FB     .l5:      lda   <_bh
  752  00:F211  10 19               bpl   .l7
  753                               addw  mapwidth,<_bx
                0000              .if     (2 = 3)
                                  .else
                                   ; 2-arg mode
                                   ;
       00:F213  18                 clc
       00:F214  A5 FA              lda    LOW_BYTE <_bx
       00:F216  6D B4 26           adc    LOW_BYTE mapwidth
       00:F219  85 FA              sta    LOW_BYTE <_bx
       00:F21B  A5 FB              lda    HIGH_BYTE <_bx
       00:F21D  6D B5 26           adc    HIGH_BYTE mapwidth
       00:F220  85 FB              sta    HIGH_BYTE <_bx
                                  .endif
  754  00:F222  80 EB               bra   .l5
  755                     
  756                         ; ----
  757                         ; exit
  758                         ;
  759                     .l6:      sub   #4,<__arg_idx
                0001              .if (2 = 2)            ; from register A (handle
       00:F224  A5 02              lda    <__arg_idx              ; carry flag)
       00:F226  38                 sec
       00:F227  E9 04              sbc    #4
       00:F229  85 02              sta    <__arg_idx
                                  .else
                                  .endif
  760  00:F22B  60                  rts
  761                     
  762                         ; ----
  763                         ; ok
  764                         ;
  765                     .l7:      stb   <_bl,<_cl
       00:F22C  A5 FA              lda    <_bl
       00:F22E  85 FC              sta    <_cl
  766  00:F230  4C 87 E3            jmp   load_map
  767                     
  768                     ; spr_set(char num)
  769                     ; ----
  770                     ; load SI with the offset of the sprite to change
  771                     ; SI = satb + 8 * sprite_number
  772                     ; ----
  773                     
  774  00:F233            _spr_set:
  775  00:F233  E0 40               cpx   #64
  776                               bhs   .l2
       00:F235  B0 19              bcs    .l2
  777  00:F237  8A                  txa
  778  00:F238  E8                  inx
  779  00:F239  E4 1A               cpx   <__spr_max
  780                               blo   .l1
       00:F23B  90 02              bcc    .l1
  781  00:F23D  86 1A               stx   <__spr_max
  782                               ; --
  783  00:F23F  64 19     .l1:      stz   <__spr_ptr+1
  784  00:F241  0A                  asl   A
  785  00:F242  0A                  asl   A
  786  00:F243  0A                  asl   A
  787  00:F244  26 19               rol   <__spr_ptr+1
  788  00:F246  69 73               adc   #low(_satb)
  789  00:F248  85 18               sta   <__spr_ptr
  790  00:F24A  A5 19               lda   <__spr_ptr+1
  791  00:F24C  69 27               adc   #high(_satb)
  792  00:F24E  85 19               sta   <__spr_ptr+1
  793  00:F250  60        .l2:      rts
  794                     
  795                     ; spr_hide(char num)
  796                     ; ----
  797                     
  798  00:F251            _spr_hide:
  799  00:F251  C0 00               cpy   #0
  800  00:F253  F0 0E               beq   .l2
  801                               ; -- hide sprite number #
  802  00:F255  E0 40               cpx   #64
  803                               bhs   .l1
       00:F257  B0 09              bcs    .l1
  804  00:F259  20 6C F2            jsr   _spr_hide.sub
  805  00:F25C  B1 0B               lda   [__ptr],Y
  806  00:F25E  09 02               ora   #$02
  807  00:F260  91 0B               sta   [__ptr],Y
  808  00:F262  60        .l1:      rts
  809                               ; -- hide current sprite
  810  00:F263  A0 01     .l2:      ldy   #1
  811  00:F265  B1 18               lda   [__spr_ptr],Y
  812  00:F267  09 02               ora   #$02
  813  00:F269  91 18               sta   [__spr_ptr],Y
  814  00:F26B  60                  rts
  815                               ; -- calc satb ptr
  816  00:F26C            _spr_hide.sub:
  817  00:F26C  8A                  txa
  818  00:F26D  64 0C               stz   <__ptr+1
  819  00:F26F  0A                  asl   A
  820  00:F270  0A                  asl   A
  821  00:F271  0A                  asl   A
  822  00:F272  26 0C               rol   <__ptr+1
  823  00:F274  69 73               adc   #low(_satb)
  824  00:F276  85 0B               sta   <__ptr
  825  00:F278  A5 0C               lda   <__ptr+1
  826  00:F27A  69 27               adc   #high(_satb)
  827  00:F27C  85 0C               sta   <__ptr+1
  828  00:F27E  A0 01               ldy   #1
  829  00:F280  60                  rts
  830                     
  831                     ; spr_show(char num)
  832                     ; ----
  833                     
  834  00:F281            _spr_show:
  835  00:F281  C0 00               cpy   #0
  836  00:F283  F0 0E               beq   .l2
  837                               ; -- hide sprite number #
  838  00:F285  E0 40               cpx   #64
  839                               bhs   .l1
       00:F287  B0 09              bcs    .l1
  840  00:F289  20 6C F2            jsr   _spr_hide.sub
  841  00:F28C  B1 0B               lda   [__ptr],Y
  842  00:F28E  29 01               and   #$01
  843  00:F290  91 0B               sta   [__ptr],Y
  844  00:F292  60        .l1:      rts
  845                               ; -- hide current sprite
  846  00:F293  A0 01     .l2:      ldy   #1
  847  00:F295  B1 18               lda   [__spr_ptr],Y
  848  00:F297  29 01               and   #$01
  849  00:F299  91 18               sta   [__spr_ptr],Y
  850  00:F29B  60                  rts
  851                     
  852                     ; spr_x(int value)
  853                     ; ----
  854                     
  855  00:F29C            _spr_x:
  856  00:F29C  A0 02               ldy   #2
  857  00:F29E  22                  sax
  858                               add   #32
                0000              .if (1 = 2)            ; register A (handle carry
                                  .else
       00:F29F  18                 clc
       00:F2A0  69 20              adc    #32
                                  .endif
  859  00:F2A2  91 18               sta   [__spr_ptr],Y
  860  00:F2A4  22                  sax
  861  00:F2A5  69 00               adc   #0
  862  00:F2A7  C8                  iny
  863  00:F2A8  91 18               sta   [__spr_ptr],Y
  864  00:F2AA  60                  rts
  865                     
  866  00:F2AB            _spr_get_x:
  867  00:F2AB  A0 02               ldy   #2
  868  00:F2AD  B1 18               lda   [__spr_ptr],Y
  869                               sub   #32
                0000              .if (1 = 2)            ; from register A (handle
                                  .else
       00:F2AF  38                 sec
       00:F2B0  E9 20              sbc    #32
                                  .endif
  870  00:F2B2  AA                  tax
  871  00:F2B3  C8                  iny
  872  00:F2B4  B1 18               lda   [__spr_ptr],Y
  873  00:F2B6  E9 00               sbc   #0
  874  00:F2B8  60                  rts
  875                     
  876                     ; spr_y(int value)
  877                     ; ----
  878                     
  879  00:F2B9            _spr_y:
  880  00:F2B9  22                  sax
  881                               add   #64
                0000              .if (1 = 2)            ; register A (handle carry
                                  .else
       00:F2BA  18                 clc
       00:F2BB  69 40              adc    #64
                                  .endif
  882  00:F2BD  92 18               sta   [__spr_ptr]
  883  00:F2BF  22                  sax
  884  00:F2C0  69 00               adc   #0
  885  00:F2C2  29 01               and   #$01
  886  00:F2C4  A0 01               ldy   #1
  887  00:F2C6  91 18               sta   [__spr_ptr],Y
  888  00:F2C8  60                  rts
  889                     
  890  00:F2C9            _spr_get_y:
  891  00:F2C9  B2 18               lda   [__spr_ptr]
  892                               sub   #64
                0000              .if (1 = 2)            ; from register A (handle
                                  .else
       00:F2CB  38                 sec
       00:F2CC  E9 40              sbc    #64
                                  .endif
  893  00:F2CE  AA                  tax
  894  00:F2CF  A0 01               ldy   #1
  895  00:F2D1  B1 18               lda   [__spr_ptr],Y
  896  00:F2D3  E9 00               sbc   #0
  897  00:F2D5  60                  rts
  898                     
  899                     ; spr_pattern(int vaddr)
  900                     ; ----
  901                     
  902  00:F2D6            _spr_pattern:
  903  00:F2D6  85 03               sta   <__temp
  904  00:F2D8  8A                  txa
  905  00:F2D9  0A                  asl   A
  906  00:F2DA  26 03               rol   <__temp
  907  00:F2DC  2A                  rol   A
  908  00:F2DD  26 03               rol   <__temp
  909  00:F2DF  2A                  rol   A
  910  00:F2E0  26 03               rol   <__temp
  911  00:F2E2  2A                  rol   A
  912  00:F2E3  29 07               and   #$7
  913  00:F2E5  A0 05               ldy   #5
  914  00:F2E7  91 18               sta   [__spr_ptr],Y
  915  00:F2E9  A5 03               lda   <__temp
  916  00:F2EB  88                  dey
  917  00:F2EC  91 18               sta   [__spr_ptr],Y
  918  00:F2EE  60                  rts
  919                     
  920  00:F2EF            _spr_get_pattern:
  921  00:F2EF  A0 04               ldy   #4
  922  00:F2F1  B1 18               lda   [__spr_ptr],Y
  923  00:F2F3  85 03               sta   <__temp
  924  00:F2F5  C8                  iny
  925  00:F2F6  B1 18               lda   [__spr_ptr],Y
  926  00:F2F8  4A                  lsr   A
  927  00:F2F9  66 03               ror   <__temp
  928  00:F2FB  6A                  ror   A
  929  00:F2FC  66 03               ror   <__temp
  930  00:F2FE  6A                  ror   A
  931  00:F2FF  66 03               ror   <__temp
  932  00:F301  6A                  ror   A
  933  00:F302  29 E0               and   #$E0
  934  00:F304  AA                  tax
  935  00:F305  A5 03               lda   <__temp
  936  00:F307  60                  rts
  937                     
  938                     ; spr_ctrl(char mask [al], char value)
  939                     ; ----
  940                     
  941  00:F308            _spr_ctrl.2:
  942  00:F308  8A                  txa
  943  00:F309  25 F8               and   <_al
  944  00:F30B  85 03               sta   <__temp
  945  00:F30D  A5 F8               lda   <_al
  946  00:F30F  49 FF               eor   #$FF
  947  00:F311  A0 07               ldy   #7
  948  00:F313  31 18               and   [__spr_ptr],Y
  949  00:F315  05 03               ora   <__temp
  950  00:F317  91 18               sta   [__spr_ptr],Y
  951  00:F319  60                  rts
  952                     
  953                     ; spr_pal(char pal)
  954                     ; ----
  955                     
  956  00:F31A            _spr_pal:
  957  00:F31A  8A                  txa
  958  00:F31B  29 0F               and   #$0F
  959  00:F31D  85 03               sta   <__temp
  960  00:F31F  A0 06               ldy   #6
  961  00:F321  B1 18               lda   [__spr_ptr],Y
  962  00:F323  29 F0               and   #$F0
  963  00:F325  05 03               ora   <__temp
  964  00:F327  91 18               sta   [__spr_ptr],Y
  965  00:F329  60                  rts
  966                     
  967  00:F32A            _spr_get_pal:
  968  00:F32A  A0 06               ldy   #6
  969  00:F32C  B1 18               lda   [__spr_ptr],Y
  970  00:F32E  29 0F               and   #$0F
  971  00:F330  AA                  tax
  972  00:F331  62                  cla
  973  00:F332  60                  rts
  974                     
  975                     ; spr_pri(char pri)
  976                     ; ----
  977                     
  978  00:F333            _spr_pri:
  979  00:F333  A0 06               ldy   #6
  980  00:F335  B1 18               lda   [__spr_ptr],Y
  981  00:F337  29 7F               and   #$7F
  982  00:F339  E0 00               cpx   #$00
  983  00:F33B  F0 02               beq   .l1
  984  00:F33D  09 80               ora   #$80
  985  00:F33F            .l1:
  986  00:F33F  91 18               sta   [__spr_ptr],Y
  987  00:F341  60                  rts
  988                     
  989                     ; satb_update()
  990                     ; ----
  991                     
  992  00:F342            _satb_update:
  993  00:F342  A5 1B               lda   <__spr_flag
  994  00:F344  F0 06               beq   .l1
  995  00:F346  64 1B               stz   <__spr_flag
  996  00:F348  A2 40               ldx   #64
  997  00:F34A  80 0A               bra   .l3
  998                               ; --
  999  00:F34C  C0 01     .l1:      cpy   #1
 1000  00:F34E  F0 02               beq   .l2
 1001  00:F350  A6 1A               ldx   <__spr_max
 1002  00:F352  E0 00     .l2:      cpx   #0
 1003  00:F354  F0 50               beq   .l4
 1004                               ; --
 1005  00:F356  86 F8     .l3:      stx   <_al    ; number of sprites
 1006  00:F358  8A                  txa
 1007  00:F359  3A                  dec   A       ; round up to the next group of 4 sprites
 1008  00:F35A  4A                  lsr   A
 1009  00:F35B  4A                  lsr   A
 1010  00:F35C  1A                  inc   A
 1011  00:F35D  85 FC               sta   <_cl
 1012                     
 1013                     ; Use TIA, but BLiT 16 words at a time (32 bytes)
 1014                     ; Because interrupt must not deferred too much
 1015                     ;
 1016                               stw   #32, _ram_hdwr_tia_size
       00:F35F  A9 20              lda    LOW_BYTE #32
       00:F361  8D D1 26           sta    LOW_BYTE _ram_hdwr_tia_size
       00:F364  A9 00              lda    HIGH_BYTE #32
       00:F366  8D D2 26           sta    HIGH_BYTE _ram_hdwr_tia_size
 1017                               stw   #video_data, _ram_hdwr_tia_dest
       00:F369  A9 02              lda    LOW_BYTE #video_data
       00:F36B  8D CF 26           sta    LOW_BYTE _ram_hdwr_tia_dest
       00:F36E  A9 00              lda    HIGH_BYTE #video_data
       00:F370  8D D0 26           sta    HIGH_BYTE _ram_hdwr_tia_dest
 1018                               stw   #_satb, <_si
       00:F373  A9 73              lda    LOW_BYTE #_satb
       00:F375  85 EE              sta    LOW_BYTE <_si
       00:F377  A9 27              lda    HIGH_BYTE #_satb
       00:F379  85 EF              sta    HIGH_BYTE <_si
 1019                     
 1020                               stw   #$7F00, <_di
       00:F37B  A9 00              lda    LOW_BYTE #$7F00
       00:F37D  85 F0              sta    LOW_BYTE <_di
       00:F37F  A9 7F              lda    HIGH_BYTE #$7F00
       00:F381  85 F1              sta    HIGH_BYTE <_di
 1021  00:F383  20 09 E4            jsr   set_write
 1022                     
 1023                     .l3a:     stw   <_si, _ram_hdwr_tia_src
       00:F386  A5 EE              lda    LOW_BYTE <_si
       00:F388  8D CD 26           sta    LOW_BYTE _ram_hdwr_tia_src
       00:F38B  A5 EF              lda    HIGH_BYTE <_si
       00:F38D  8D CE 26           sta    HIGH_BYTE _ram_hdwr_tia_src
 1024  00:F390  20 CC 26            jsr   _ram_hdwr_tia
 1025                               addw  #32,<_si
                0000              .if     (2 = 3)
                                  .else
                                   ; 2-arg mode
                                   ;
       00:F393  18                 clc
       00:F394  A5 EE              lda    LOW_BYTE <_si
       00:F396  69 20              adc    LOW_BYTE #32
       00:F398  85 EE              sta    LOW_BYTE <_si
       00:F39A  A5 EF              lda    HIGH_BYTE <_si
       00:F39C  69 00              adc    HIGH_BYTE #32
       00:F39E  85 EF              sta    HIGH_BYTE <_si
                                  .endif
 1026  00:F3A0  C6 FC               dec   <_cl
 1027  00:F3A2  D0 E2               bne   .l3a
 1028                               
 1029                     ;.l3:     stx   <_al
 1030                     ;         stw   #_satb,<_si
 1031                     ;         stb   #BANK(_satb),<_bl
 1032                     ;         stw   #$7F00,<_di
 1033                     ;         txa
 1034                     ;         stz   <_ch
 1035                     ;         asl   A
 1036                     ;         asl   A
 1037                     ;         rol   <_ch
 1038                     ;         sta   <_cl
 1039                     ;         jsr   load_vram
 1040                     
 1041                               ; --
 1042  00:F3A4  A6 F8               ldx   <_al
 1043  00:F3A6  62        .l4:      cla
 1044  00:F3A7  60                  rts
 1045                     
 1046                     
 1047                     ; init_satb()
 1048                     ; reset_satb()
 1049                     ; ----
 1050                     
 1051  00:F3A8            _reset_satb:
 1052  00:F3A8            _init_satb:
 1053  00:F3A8  82                  clx
 1054  00:F3A9  62                  cla
 1055  00:F3AA  9E 73 27  .l1:      stz   _satb,X
 1056  00:F3AD  9E 73 28            stz   _satb+256,X
 1057  00:F3B0  E8                  inx
 1058  00:F3B1  D0 F7               bne   .l1
 1059                               ; --
 1060  00:F3B3  A0 01               ldy   #1
 1061  00:F3B5  84 1B               sty   <__spr_flag
 1062  00:F3B7  64 1A               stz   <__spr_max
 1063  00:F3B9  60                  rts
 1064                     
 1065                     ; get_color(int index [color_reg])
 1066                     ; ----
 1067                     ; index: index in the palette (0-511)
 1068                     ; ----
 1069                     
 1070  00:F3BA            _get_color.1:
 1071  00:F3BA  AE 04 04            ldx   color_data_l
 1072  00:F3BD  AD 05 04            lda   color_data_h
 1073  00:F3C0  29 01               and   #$01
 1074  00:F3C2  60                  rts
 1075                     
 1076                     ; set_color(int index [color_reg], int color [color_data])
 1077                     ; ----
 1078                     ; set one palette entry to the specified color
 1079                     ; ----
 1080                     ; index: index in the palette (0-511)
 1081                     ; color: color value,  GREEN: bit 6-8
 1082                     ;                      RED:   bit 3-5
 1083                     ;                      BLUE:  bit 0-2
 1084                     ; ----
 1085                     ; NOTE : inlined
 1086                     ; ----
 1087                     
 1088                     ; fade_color(int color [ax], char level)
 1089                     ; fade_color(int index [color_reg], int color [ax], char level)
 1090                     ; ----
 1091                     ; set one palette entry to the specified color
 1092                     ; ----
 1093                     ; index: index in the palette (0-511)
 1094                     ; color: color value,  GREEN: bit 6-8
 1095                     ;                      RED:   bit 3-5
 1096                     ;                      BLUE:  bit 0-2
 1097                     ; level: level of fading (0 = black, 8 = full)
 1098                     ; ----
 1099                     
 1100  00:F3C3            _fade_color.2:
 1101  00:F3C3            _fade_color.3:
 1102  00:F3C3  E0 00               cpx   #0
 1103  00:F3C5  F0 38               beq   .l4
 1104  00:F3C7  E0 08               cpx   #8
 1105                               bhs   .l5
       00:F3C9  B0 37              bcs    .l5
 1106                               ; -- fading
 1107  00:F3CB  A0 03               ldy   #3
 1108  00:F3CD  86 FA               stx   <_bl
 1109                               stwz  <_dx
       00:F3CF  64 FE              stz    LOW_BYTE <_dx
       00:F3D1  64 FF              stz    HIGH_BYTE <_dx
 1110  00:F3D3  46 FA     .l1:      lsr   <_bl
 1111  00:F3D5  90 0D               bcc   .l2
 1112                               addw  <_ax,<_dx
                0000              .if     (2 = 3)
                                  .else
                                   ; 2-arg mode
                                   ;
       00:F3D7  18                 clc
       00:F3D8  A5 FE              lda    LOW_BYTE <_dx
       00:F3DA  65 F8              adc    LOW_BYTE <_ax
       00:F3DC  85 FE              sta    LOW_BYTE <_dx
       00:F3DE  A5 FF              lda    HIGH_BYTE <_dx
       00:F3E0  65 F9              adc    HIGH_BYTE <_ax
       00:F3E2  85 FF              sta    HIGH_BYTE <_dx
                                  .endif
 1113                     .l2:      aslw  <_ax
       00:F3E4  06 F8              asl    <_ax              ; word-sized value (at stated
       00:F3E6  26 F9              rol    <_ax+1            ; memory location)
 1114  00:F3E8  88                  dey
 1115  00:F3E9  D0 E8               bne   .l1
 1116  00:F3EB  A5 FF               lda   <_dh
 1117  00:F3ED  4A                  lsr   A
 1118  00:F3EE  66 FE               ror   <_dl
 1119  00:F3F0  4A                  lsr   A
 1120  00:F3F1  66 FE               ror   <_dl
 1121  00:F3F3  4A                  lsr   A
 1122  00:F3F4  66 FE               ror   <_dl
 1123                               ; -- set color
 1124  00:F3F6  A6 FE               ldx   <_dl
 1125  00:F3F8  8E 04 04  .l3:      stx   color_data_l
 1126  00:F3FB  8D 05 04            sta   color_data_h
 1127  00:F3FE  60                  rts
 1128                               ; -- black
 1129  00:F3FF  62        .l4:      cla
 1130  00:F400  80 F6               bra   .l3
 1131                               ; -- full
 1132  00:F402  A6 F8     .l5:      ldx   <_al
 1133  00:F404  A5 F9               lda   <_ah
 1134  00:F406  80 F0               bra   .l3
 1135                     
 1136                     ; set_color_rgb(int index [color_reg], char r [al], char g [ah], char b)
 1137                     ; ----
 1138                     ; set one palette entry to the specified color
 1139                     ; ----
 1140                     ; index: index in the palette (0-511)
 1141                     ; r:     red              RED:   bit 3-5
 1142                     ; g:     green            GREEN: bit 6-8
 1143                     ; b:     blue             BLUE:  bit 0-2
 1144                     ; ----
 1145                     
 1146  00:F408            _set_color_rgb.4:
 1147  00:F408  8A                  txa
 1148  00:F409  29 07               and   #$7
 1149  00:F40B  85 03               sta   <__temp
 1150  00:F40D  A5 F8               lda   <_al
 1151  00:F40F  0A                  asl   A
 1152  00:F410  0A                  asl   A
 1153  00:F411  0A                  asl   A
 1154  00:F412  05 03               ora   <__temp
 1155  00:F414  0A                  asl   A
 1156  00:F415  0A                  asl   A
 1157  00:F416  85 03               sta   <__temp
 1158  00:F418  A5 F9               lda   <_ah
 1159  00:F41A  4A                  lsr   A
 1160  00:F41B  66 03               ror   <__temp
 1161  00:F41D  4A                  lsr   A
 1162  00:F41E  66 03               ror   <__temp
 1163  00:F420  A6 03               ldx   <__temp
 1164  00:F422  8E 04 04            stx   color_data_l
 1165  00:F425  8D 05 04            sta   color_data_h
 1166  00:F428  60                  rts
 1167                     
 1168                     ; put_tile(int tile_num [dx], int position)
 1169                     ; put_tile(int tile_num [dx], char x [al], char y)
 1170                     ; ----
 1171                     ; draw a single 8x8 or 16x16 tile at a given position
 1172                     ; ----
 1173                     ; pattern:  vram address of the tile pattern
 1174                     ; position: position on screen where to put the tile
 1175                     ; ----
 1176                     
 1177  00:F429            _put_tile.3:
 1178  00:F429  A5 F8               lda   <_al
 1179  00:F42B  AC B8 26            ldy   maptiletype
 1180  00:F42E  C0 08               cpy   #8
 1181  00:F430  F0 08               beq   .l1
 1182                               ; --
 1183  00:F432  0A                  asl   A
 1184  00:F433  22                  sax
 1185  00:F434  0A                  asl   A
 1186  00:F435  20 26 E4            jsr   calc_vram_addr
 1187  00:F438  80 33               bra   _put_tile_16
 1188                               ; --
 1189  00:F43A  22        .l1:      sax
 1190  00:F43B  20 26 E4            jsr   calc_vram_addr
 1191  00:F43E  80 0B               bra   _put_tile_8
 1192  00:F440            _put_tile.2:
 1193                             __stw   <_di
       00:F440  86 F0              stx    <_di
       00:F442  85 F1              sta    <_di+1
 1194  00:F444  AC B8 26            ldy   maptiletype
 1195  00:F447  C0 08               cpy   #8
 1196  00:F449  D0 22               bne   _put_tile_16
 1197  00:F44B            _put_tile_8:
 1198  00:F44B  20 09 E4            jsr   set_write
 1199                               ; -- calculate tile vram address
 1200                               stw   mapctable,<_bx
       00:F44E  AD C1 26           lda    LOW_BYTE mapctable
       00:F451  85 FA              sta    LOW_BYTE <_bx
       00:F453  AD C2 26           lda    HIGH_BYTE mapctable
       00:F456  85 FB              sta    HIGH_BYTE <_bx
 1201  00:F458  A5 FE               lda   <_dl
 1202  00:F45A  A8                  tay
 1203                               add   maptilebase
                0000              .if (1 = 2)            ; register A (handle carry
                                  .else
       00:F45B  18                 clc
       00:F45C  6D BC 26           adc    maptilebase
                                  .endif
 1204  00:F45F  AA                  tax
 1205  00:F460  62                  cla
 1206  00:F461  6D BD 26            adc   maptilebase+1
 1207  00:F464  71 FA               adc   [_bx],Y
 1208                               ; -- copy tile
 1209  00:F466  8E 02 00            stx   video_data_l
 1210  00:F469  8D 03 00            sta   video_data_h
 1211  00:F46C  60                  rts
 1212  00:F46D            _put_tile_16:
 1213  00:F46D  20 09 E4            jsr   set_write
 1214                               ; -- calculate tile vram address
 1215                               stw   mapctable,<_bx
       00:F470  AD C1 26           lda    LOW_BYTE mapctable
       00:F473  85 FA              sta    LOW_BYTE <_bx
       00:F475  AD C2 26           lda    HIGH_BYTE mapctable
       00:F478  85 FB              sta    HIGH_BYTE <_bx
 1216  00:F47A  64 FF               stz   <_dh
 1217  00:F47C  A5 FE               lda   <_dl
 1218  00:F47E  A8                  tay
 1219  00:F47F  0A                  asl   A
 1220  00:F480  26 FF               rol   <_dh
 1221  00:F482  0A                  asl   A
 1222  00:F483  26 FF               rol   <_dh
 1223                               add   maptilebase
                0000              .if (1 = 2)            ; register A (handle carry
                                  .else
       00:F485  18                 clc
       00:F486  6D BC 26           adc    maptilebase
                                  .endif
 1224  00:F489  85 FE               sta   <_dl
 1225  00:F48B  A5 FF               lda   <_dh
 1226  00:F48D  6D BD 26            adc   maptilebase+1
 1227  00:F490  71 FA               adc   [_bx],Y
 1228  00:F492  85 FF               sta   <_dh
 1229                               ; -- copy tile
 1230                               stw   <_dx,video_data
       00:F494  A5 FE              lda    LOW_BYTE <_dx
       00:F496  8D 02 00           sta    LOW_BYTE video_data
       00:F499  A5 FF              lda    HIGH_BYTE <_dx
       00:F49B  8D 03 00           sta    HIGH_BYTE video_data
 1231                               incw  <_dx
       00:F49E  E6 FE              inc    <_dx              ; value at stated memory
       00:F4A0  D0 02              bne    .x_00350           ; location
       00:F4A2  E6 FF              inc    <_dx+1
       00:F4A4            .x_00350:
 1232                               stw   <_dx,video_data
       00:F4A4  A5 FE              lda    LOW_BYTE <_dx
       00:F4A6  8D 02 00           sta    LOW_BYTE video_data
       00:F4A9  A5 FF              lda    HIGH_BYTE <_dx
       00:F4AB  8D 03 00           sta    HIGH_BYTE video_data
 1233                               incw  <_dx
       00:F4AE  E6 FE              inc    <_dx              ; value at stated memory
       00:F4B0  D0 02              bne    .x_00352           ; location
       00:F4B2  E6 FF              inc    <_dx+1
       00:F4B4            .x_00352:
 1234                               vreg  #0
       00:F4B4  A9 00              lda    #0
       00:F4B6  85 F7              sta    <vdc_reg
                0001               .if (2 = ARG_IMMED)
       00:F4B8  03 00               st0   #0
                                   .else
                                   .endif
 1235                               addw  bat_width,<_di,video_data
                0001              .if     (3 = 3)
                                   ; 3-arg mode
                                   ;
       00:F4BA  18                 clc
       00:F4BB  A5 F0              lda    LOW_BYTE <_di
       00:F4BD  6D D4 26           adc    LOW_BYTE bat_width
       00:F4C0  8D 02 00           sta    LOW_BYTE video_data
       00:F4C3  A5 F1              lda    HIGH_BYTE <_di
       00:F4C5  6D D5 26           adc    HIGH_BYTE bat_width
       00:F4C8  8D 03 00           sta    HIGH_BYTE video_data
                                  .else
                                  .endif
 1236                               vreg  #2
       00:F4CB  A9 02              lda    #2
       00:F4CD  85 F7              sta    <vdc_reg
                0001               .if (2 = ARG_IMMED)
       00:F4CF  03 02               st0   #2
                                   .else
                                   .endif
 1237                               stw   <_dx,video_data
       00:F4D1  A5 FE              lda    LOW_BYTE <_dx
       00:F4D3  8D 02 00           sta    LOW_BYTE video_data
       00:F4D6  A5 FF              lda    HIGH_BYTE <_dx
       00:F4D8  8D 03 00           sta    HIGH_BYTE video_data
 1238                               incw  <_dx
       00:F4DB  E6 FE              inc    <_dx              ; value at stated memory
       00:F4DD  D0 02              bne    .x_00357           ; location
       00:F4DF  E6 FF              inc    <_dx+1
       00:F4E1            .x_00357:
 1239                               stw   <_dx,video_data
       00:F4E1  A5 FE              lda    LOW_BYTE <_dx
       00:F4E3  8D 02 00           sta    LOW_BYTE video_data
       00:F4E6  A5 FF              lda    HIGH_BYTE <_dx
       00:F4E8  8D 03 00           sta    HIGH_BYTE video_data
 1240  00:F4EB  60                  rts
 1241                     
 1242                     ; map_get_tile(char x [dl], char y)
 1243                     ; map_put_tile(char x [dl], char y [dh], char tile)
 1244                     ; ----
 1245                     
 1246  00:F4EC            _map_get_tile.2:
 1247  00:F4EC  86 FF               stx   <_dh
 1248  00:F4EE  20 FE F4            jsr   _map_calc_tile_addr
 1249                               ; --
 1250  00:F4F1  B2 FC               lda   [_cx]
 1251  00:F4F3  AA                  tax
 1252  00:F4F4  62                  cla
 1253  00:F4F5  60                  rts
 1254                     
 1255  00:F4F6            _map_put_tile.3:
 1256  00:F4F6  DA                  phx
 1257  00:F4F7  20 FE F4            jsr   _map_calc_tile_addr
 1258  00:F4FA  68                  pla
 1259  00:F4FB  92 FC               sta   [_cx]
 1260  00:F4FD  60                  rts
 1261                     
 1262                     ; map_calc_tile_addr(char x [dl], char y [dh])
 1263                     ; ----
 1264  00:F4FE            _map_calc_tile_addr:
 1265  00:F4FE  A6 FF               ldx   <_dh
 1266  00:F500  AD B5 26            lda   mapwidth+1
 1267  00:F503  F0 08               beq   .l1
 1268  00:F505  86 FD               stx   <_ch
 1269  00:F507  A5 FE               lda   <_dl
 1270  00:F509  85 FC               sta   <_cl
 1271  00:F50B  80 13               bra   .l2
 1272                               ; --
 1273  00:F50D  86 F8     .l1:      stx   <_al
 1274  00:F50F  AD B4 26            lda   mapwidth
 1275  00:F512  85 FA               sta   <_bl
 1276  00:F514  20 DB E6            jsr   mulu8
 1277                               ; --
 1278  00:F517  A5 FC               lda   <_cl
 1279                               add   <_dl
                0000              .if (1 = 2)            ; register A (handle carry
                                  .else
       00:F519  18                 clc
       00:F51A  65 FE              adc    <_dl
                                  .endif
 1280  00:F51C  90 02               bcc   .l2
 1281  00:F51E  E6 FD               inc   <_ch
 1282                               ; --
 1283                     .l2:      add   mapaddr
                0000              .if (1 = 2)            ; register A (handle carry
                                  .else
       00:F520  18                 clc
       00:F521  6D B2 26           adc    mapaddr
                                  .endif
 1284  00:F524  85 FC               sta   <_cl
 1285  00:F526  AD B3 26            lda   mapaddr+1
 1286  00:F529  29 1F               and   #$1F
 1287  00:F52B  65 FD               adc   <_ch
 1288  00:F52D  AA                  tax
 1289                               ; --
 1290                     ;         rol   A
 1291                     ;         rol   A
 1292                     ;         rol   A
 1293                     ;         rol   A
 1294  00:F52E  4A                  lsr   A
 1295  00:F52F  4A                  lsr   A
 1296  00:F530  4A                  lsr   A
 1297  00:F531  4A                  lsr   A
 1298  00:F532  4A                  lsr   A
 1299  00:F533  29 0F               and   #$0F
 1300                               add   mapbank
                0000              .if (1 = 2)            ; register A (handle carry
                                  .else
       00:F535  18                 clc
       00:F536  6D B1 26           adc    mapbank
                                  .endif
 1301  00:F539  53 08               tam   #3
 1302                               ; --
 1303  00:F53B  8A                  txa
 1304  00:F53C  29 1F               and   #$1F
 1305  00:F53E  09 60               ora   #$60
 1306  00:F540  85 FD               sta   <_ch
 1307  00:F542  A6 FC               ldx   <_cl
 1308  00:F544  60                  rts
 1309                     
 1310                     ; scroll(char num, int x, int y, char top, char bottom, char disp)
 1311                     ; ----
 1312                     ; set screen scrolling
 1313                     ; ----
 1314                     
 1315  00:F545            _scroll:
 1316  00:F545  A0 08               ldy   #8
 1317  00:F547  B1 00               lda   [__sp],Y
 1318  00:F549  29 03               and   #$03
 1319                               ; --
 1320  00:F54B  22                  sax
 1321  00:F54C  29 C0               and   #$C0
 1322  00:F54E  09 01               ora   #$01
 1323  00:F550  9D F8 26            sta   scroll_cr,X
 1324  00:F553  B2 00               lda   [__sp]
 1325  00:F555  1A                  inc   A
 1326  00:F556  9D F4 26            sta   scroll_bottom,X
 1327  00:F559  A0 02               ldy   #2
 1328  00:F55B  B1 00               lda   [__sp],Y
 1329  00:F55D  9D F0 26            sta   scroll_top,X
 1330  00:F560  A0 04               ldy   #4
 1331  00:F562  B1 00               lda   [__sp],Y
 1332  00:F564  9D E8 26            sta   scroll_yl,X
 1333  00:F567  C8                  iny
 1334  00:F568  B1 00               lda   [__sp],Y
 1335  00:F56A  9D EC 26            sta   scroll_yh,X
 1336  00:F56D  C8                  iny
 1337  00:F56E  B1 00               lda   [__sp],Y
 1338  00:F570  9D E0 26            sta   scroll_xl,X
 1339  00:F573  C8                  iny
 1340  00:F574  B1 00               lda   [__sp],Y
 1341  00:F576  9D E4 26            sta   scroll_xh,X
 1342                               addw  #10,<__sp
                0000              .if     (2 = 3)
                                  .else
                                   ; 2-arg mode
                                   ;
       00:F579  18                 clc
       00:F57A  A5 00              lda    LOW_BYTE <__sp
       00:F57C  69 0A              adc    LOW_BYTE #10
       00:F57E  85 00              sta    LOW_BYTE <__sp
       00:F580  A5 01              lda    HIGH_BYTE <__sp
       00:F582  69 00              adc    HIGH_BYTE #10
       00:F584  85 01              sta    HIGH_BYTE <__sp
                                  .endif
 1343  00:F586  60                  rts
 1344                     
 1345                     ; scroll_disable(char num)
 1346                     ; ----
 1347                     ; disable screen scrolling for a scroll region
 1348                     ; ----
 1349                     
 1350  00:F587            _scroll_disable:
 1351  00:F587  BD F8 26            lda   scroll_cr,X
 1352  00:F58A  29 FE               and   #$fe
 1353  00:F58C  9D F8 26            sta   scroll_cr,X
 1354  00:F58F  60                  rts
 1355                     
 1356                     ; set_screen_size(char size)
 1357                     ; ----
 1358                     ; set screen virtual size
 1359                     ; ----
 1360                     
 1361  00:F590            _set_screen_size:
 1362  00:F590  8A                  txa
 1363  00:F591  4C F9 E4            jmp   set_bat_size
 1364                     
 1365                     ; set_xres(int xres)
 1366                     ; ----
 1367                     ; set horizontal display resolution
 1368                     ; ----
 1369                     
 1370  00:F594            _set_xres.1:
 1371  00:F594  A9 04               lda   #XRES_SOFT
 1372  00:F596  85 FC               sta   <_cl
 1373  00:F598            _set_xres.2:
 1374  00:F598  20 E7 E4            jsr   set_xres
 1375  00:F59B  A6 F8               ldx   <_al
 1376  00:F59D  A5 F9               lda   <_ah
 1377  00:F59F  60                  rts
 1378                     
 1379                     
 1380                     ; ------------------------
 1381                     ; Graphics functions
 1382                     ; ------------------------
 1383                     
 1384                     ; readvram
 1385                     ; ----
 1386                     ; leftover from asm library
 1387                     ; needed for 'a = vram[n]'
 1388                     ; semantic
 1389                     ; ----
 1390  00:F5A0            readvram:
 1391  00:F5A0  A0 01               ldy   #1
 1392  00:F5A2  84 F7               sty   <vdc_reg
 1393  00:F5A4  8C 00 00            sty   video_reg
 1394  00:F5A7  8E 02 00            stx   video_data_l
 1395  00:F5AA  8D 03 00            sta   video_data_h
 1396                               vreg  #$02
       00:F5AD  A9 02              lda    #$02
       00:F5AF  85 F7              sta    <vdc_reg
                0001               .if (2 = ARG_IMMED)
       00:F5B1  03 02               st0   #$02
                                   .else
                                   .endif
 1397  00:F5B3  AE 02 00            ldx   video_data_l
 1398  00:F5B6  AD 03 00            lda   video_data_h
 1399  00:F5B9  60                  rts
 1400                     
 1401                     
 1402                     ; writevram
 1403                     ; ----
 1404                     ; leftover from asm library
 1405                     ; needed for 'vram[n] = a'
 1406                     ; semantic
 1407                     ; ----
 1408  00:F5BA            writevram:
 1409  00:F5BA  A8                  tay
 1410  00:F5BB  64 F7               stz   <vdc_reg
 1411  00:F5BD  9C 00 00            stz   video_reg
 1412  00:F5C0  B2 00               lda   [__sp]
 1413  00:F5C2  8D 02 00            sta   video_data_l
 1414                               incw  <__sp
       00:F5C5  E6 00              inc    <__sp              ; value at stated memory
       00:F5C7  D0 02              bne    .x_00364           ; location
       00:F5C9  E6 01              inc    <__sp+1
       00:F5CB            .x_00364:
 1415  00:F5CB  B2 00               lda   [__sp]
 1416  00:F5CD  8D 03 00            sta   video_data_h
 1417                               incw  <__sp
       00:F5D0  E6 00              inc    <__sp              ; value at stated memory
       00:F5D2  D0 02              bne    .x_00365           ; location
       00:F5D4  E6 01              inc    <__sp+1
       00:F5D6            .x_00365:
 1418                               vreg  #2
       00:F5D6  A9 02              lda    #2
       00:F5D8  85 F7              sta    <vdc_reg
                0001               .if (2 = ARG_IMMED)
       00:F5DA  03 02               st0   #2
                                   .else
                                   .endif
 1419  00:F5DC  8E 02 00            stx   video_data_l
 1420  00:F5DF  8C 03 00            sty   video_data_h
 1421  00:F5E2  60                  rts
 1422                     
 1423                     
 1424                     ; gfx_setbgpal(char pal)
 1425                     ; ----
 1426                     ; set default major palette for gfx_* func's
 1427                     ; ----
 1428                     
 1429  00:F5E3            _gfx_setbgpal:
 1430  00:F5E3  8A                  txa
 1431  00:F5E4  0A                  asl   A
 1432  00:F5E5  0A                  asl   A
 1433  00:F5E6  0A                  asl   A
 1434  00:F5E7  0A                  asl   A
 1435  00:F5E8  8D 73 29            sta   _gfx_pal
 1436  00:F5EB  60                  rts
 1437                     
 1438                     
 1439                     ; gfx_init(int start_vram_addr)
 1440                     ; ----
 1441                     ; initialize graphics mode
 1442                     ;  - points graphics map to tiles at start_vram_addr
 1443                     ; ----
 1444                     
 1445  00:F5EC            _gfx_init:
 1446                             __stw   <_dx    ; vram addr
       00:F5EC  86 FE              stx    <_dx
       00:F5EE  85 FF              sta    <_dx+1
 1447                     
 1448                               lsrw  <_dx    ; shift address to make char pattern
       00:F5F0  46 FF              lsr    <_dx+1            ; value (at stated memory
       00:F5F2  66 FE              ror    <_dx              ; location)
 1449                               lsrw  <_dx
       00:F5F4  46 FF              lsr    <_dx+1            ; value (at stated memory
       00:F5F6  66 FE              ror    <_dx              ; location)
 1450                               lsrw  <_dx
       00:F5F8  46 FF              lsr    <_dx+1            ; value (at stated memory
       00:F5FA  66 FE              ror    <_dx              ; location)
 1451                               lsrw  <_dx
       00:F5FC  46 FF              lsr    <_dx+1            ; value (at stated memory
       00:F5FE  66 FE              ror    <_dx              ; location)
 1452  00:F600  A5 FF               lda   <_dx+1
 1453  00:F602  29 0F               and   #$0f
 1454  00:F604  0D 73 29            ora   _gfx_pal        ; and add major palette info
 1455  00:F607  85 FF               sta   <_dx+1
 1456                     
 1457                               setvwaddr $0
                                   stw  #$0,<_di
       00:F609  A9 00              lda    LOW_BYTE #$0
       00:F60B  85 F0              sta    LOW_BYTE <_di
       00:F60D  A9 00              lda    HIGH_BYTE #$0
       00:F60F  85 F1              sta    HIGH_BYTE <_di
       00:F611  20 09 E4           jsr  set_write
 1458                               ; --
 1459  00:F614  AC D6 26            ldy   bat_height
 1460  00:F617  AE D4 26  .l2:      ldx   bat_width
 1461                               ; --
 1462                     .l3:      stw   <_dx,video_data
       00:F61A  A5 FE              lda    LOW_BYTE <_dx
       00:F61C  8D 02 00           sta    LOW_BYTE video_data
       00:F61F  A5 FF              lda    HIGH_BYTE <_dx
       00:F621  8D 03 00           sta    HIGH_BYTE video_data
 1463                               incw  <_dx
       00:F624  E6 FE              inc    <_dx              ; value at stated memory
       00:F626  D0 02              bne    .x_00375           ; location
       00:F628  E6 FF              inc    <_dx+1
       00:F62A            .x_00375:
 1464  00:F62A  CA                  dex
 1465  00:F62B  D0 ED               bne   .l3
 1466  00:F62D  88                  dey
 1467  00:F62E  D0 E7               bne   .l2
 1468  00:F630  60                  rts
 1469                     
 1470                     
 1471                     ; gfx_clear(int start_vram_addr)
 1472                     ; ----
 1473                     ; Clear the values in the graphics tiles
 1474                     ; - places zeroes in graphics tiles at start_vram_addr
 1475                     ; ----
 1476                     
 1477  00:F631            _gfx_clear:
 1478                             __stw   <_di            ; start_vram_addr
       00:F631  86 F0              stx    <_di
       00:F633  85 F1              sta    <_di+1
 1479  00:F635  20 09 E4            jsr   set_write       ; setup VRAM addr for writing
 1480                     
 1481  00:F638  AD D6 26            lda   bat_height
 1482  00:F63B  85 FA               sta   <_bl            ; loop for all lines
 1483  00:F63D  AE D4 26  .l2:      ldx   bat_width       ; loop for all characters
 1484  00:F640  A0 08     .l3:      ldy   #8              ; loop for 16 words
 1485                     .l4:      stw   #0,video_data   ; unrolled a bit (8 iterations
       00:F642  A9 00              lda    LOW_BYTE #0
       00:F644  8D 02 00           sta    LOW_BYTE video_data
       00:F647  A9 00              lda    HIGH_BYTE #0
       00:F649  8D 03 00           sta    HIGH_BYTE video_data
 1486                               stw   #0,video_data   ; @ 2 words each iteration)
       00:F64C  A9 00              lda    LOW_BYTE #0
       00:F64E  8D 02 00           sta    LOW_BYTE video_data
       00:F651  A9 00              lda    HIGH_BYTE #0
       00:F653  8D 03 00           sta    HIGH_BYTE video_data
 1487  00:F656  88                  dey
 1488  00:F657  D0 E9               bne   .l4 
 1489  00:F659  CA                  dex
 1490  00:F65A  D0 E4               bne   .l3
 1491  00:F65C  C6 FA               dec   <_bl
 1492  00:F65E  D0 DD               bne   .l2
 1493  00:F660  60                  rts
 1494                     
 1495                     
 1496                     ; gfx_plot(int x [bx] int y [cx] char color [reg acc])
 1497                     ; ----
 1498                     ; Plot a point at location (x,y) in color
 1499                     ; ----
 1500                     
 1501  00:F661            _gfx_plot.3:
 1502                               maplibfunc    lib2_gfx_plot.3
       00:F661  A8                 tay
       00:F662  43 20              tma  #page(lib2_gfx_plot.3)
       00:F664  48                 pha
       00:F665  A9 01              lda  #bank(lib2_gfx_plot.3)
       00:F667  53 20              tam  #page(lib2_gfx_plot.3)
       00:F669  98                 tya
       00:F66A  20 22 AE           jsr  lib2_gfx_plot.3
       00:F66D  A8                 tay
       00:F66E  68                 pla
       00:F66F  53 20              tam  #page(lib2_gfx_plot.3)
       00:F671  98                 tya
 1503  00:F672  60                  rts
 1504                     
 1505                     
 1506                     ; gfx_point(int x [bx], int y [cx])
 1507                     ; ----
 1508                     ; Returns color of point at location (x,y)
 1509                     ; ----
 1510                     
 1511  00:F673            _gfx_point.2:
 1512                               maplibfunc    lib2_gfx_point.2
       00:F673  A8                 tay
       00:F674  43 20              tma  #page(lib2_gfx_point.2)
       00:F676  48                 pha
       00:F677  A9 01              lda  #bank(lib2_gfx_point.2)
       00:F679  53 20              tam  #page(lib2_gfx_point.2)
       00:F67B  98                 tya
       00:F67C  20 DD AE           jsr  lib2_gfx_point.2
       00:F67F  A8                 tay
       00:F680  68                 pla
       00:F681  53 20              tam  #page(lib2_gfx_point.2)
       00:F683  98                 tya
 1513  00:F684  60                  rts
 1514                     
 1515                     
 1516                     ; gfx_line(int x1 [bx], int y1 [cx], int x2 [si], int y2 [bp], char color [reg acc])
 1517                     ; ----
 1518                     ; Plot a line from location (x1,y1) to location (x2,y2) in color
 1519                     ; ----
 1520                     
 1521  00:F685            _gfx_line.5:
 1522                               maplibfunc    lib2_gfx_line.5
       00:F685  A8                 tay
       00:F686  43 20              tma  #page(lib2_gfx_line.5)
       00:F688  48                 pha
       00:F689  A9 01              lda  #bank(lib2_gfx_line.5)
       00:F68B  53 20              tam  #page(lib2_gfx_line.5)
       00:F68D  98                 tya
       00:F68E  20 98 AB           jsr  lib2_gfx_line.5
       00:F691  A8                 tay
       00:F692  68                 pla
       00:F693  53 20              tam  #page(lib2_gfx_line.5)
       00:F695  98                 tya
 1523  00:F696  60                  rts
 1524                     
 1525                     ;---------------------------------
 1526                     
 1527                     ;
 1528                     ; Change to context LIB2_BANK for these functions
 1529                     ; because they are larger than LIB1_BANK functions
 1530                     ; should be
 1531                     ;
 1532                     
 1533           0001               .bank  LIB2_BANK
 1534                     
 1535                     ; put_number(int number, char n, int offset)
 1536                     ; put_number(int number, char n, char x, char y)
 1537                     ; ----
 1538                     
 1539  01:AB27            lib2_put_number.4:
 1540  01:AB27  A4 02               ldy   <__arg_idx
 1541                             __plb
                                   ; (bytes : 6/7, cycles : 11/12)
                          
                0000              .if (0 = 2)
                                  .else
       01:AB29  88                 dey
       01:AB2A  B9 8B 29           lda    __arg,Y
                0000              .if (0)
                                  .endif
                                  .endif
 1542  01:AB2D  20 14 EE            jsr   _put.xy
 1543  01:AB30  80 05               bra   putnum.main
 1544  01:AB32            lib2_put_number.3:
 1545  01:AB32  A4 02               ldy   <__arg_idx
 1546  01:AB34  20 1B EE            jsr   _put.vram
 1547  01:AB37            putnum.main:
 1548                             __plb   <_cl,1
                                   ; (bytes : 6/7, cycles : 11/12)
                          
                0001              .if (2 = 2)
       01:AB37  88                 dey
       01:AB38  BE 8B 29           ldx    __arg,Y
       01:AB3B  86 FC              stx    <_cl
                                  .else
                                  .endif
 1549                             __plw   <_dx
                                   ; (bytes : 9/12, cycles : 16/22)
                          
       01:AB3D  88                 dey
       01:AB3E  B9 8B 29           lda    __arg,Y
                0001              .if (1)
       01:AB41  85 FE              sta    <_dx
                                  .else
                                  .endif
       01:AB43  88                 dey
       01:AB44  B9 8B 29           lda    __arg,Y
                0001              .if (1)
       01:AB47  85 FF              sta    <_dx+1
                                  .endif
 1550  01:AB49  84 02               sty   <__arg_idx
 1551                               ; --
 1552  01:AB4B  64 F8               stz   <_al ; sign flag
 1553  01:AB4D  CA                  dex
 1554  01:AB4E  E0 10               cpx   #16
 1555                               bhs   .l5
       01:AB50  B0 45              bcs    .l5
 1556                               ; --
 1557  01:AB52  A5 FF               lda   <_dh ; check sign
 1558  01:AB54  10 0F               bpl   .l1
 1559                               negw  <_dx ; negate
       01:AB56  62                 cla                    ; (at stated memory location)
                                   sub    <_dx              ; 2's complement
                0000              .if (1 = 2)            ; from register A (handle
                                  .else
       01:AB57  38                 sec
       01:AB58  E5 FE              sbc    <_dx
                                  .endif
       01:AB5A  85 FE              sta    <_dx
       01:AB5C  62                 cla
       01:AB5D  E5 FF              sbc    <_dx+1
       01:AB5F  85 FF              sta    <_dx+1
 1560  01:AB61  A9 01               lda   #1
 1561  01:AB63  85 F8               sta   <_al
 1562                               ; --
 1563  01:AB65  20 C5 E6  .l1:      jsr   divu10
 1564  01:AB68  09 10               ora   #$10
 1565  01:AB6A  48                  pha
 1566  01:AB6B  CA                  dex
 1567  01:AB6C  30 15               bmi   .l3
 1568                               tstw  <_dx
       01:AB6E  A5 FE              lda   <_dx               ; value at stated memory
       01:AB70  05 FF              ora   <_dx+1             ; location is zero
 1569  01:AB72  D0 F1               bne   .l1
 1570                               ; --
 1571  01:AB74  A5 F8               lda   <_al
 1572  01:AB76  F0 07               beq   .l2
 1573  01:AB78  A9 0D               lda   #$0D
 1574  01:AB7A  48                  pha
 1575  01:AB7B  CA                  dex
 1576  01:AB7C  30 05               bmi   .l3
 1577                               ; --
 1578  01:AB7E  62                  cla
 1579  01:AB7F  48        .l2:      pha
 1580  01:AB80  CA                  dex
 1581  01:AB81  10 FC               bpl   .l2
 1582                               ; --
 1583  01:AB83  A6 FC     .l3:      ldx   <_cl
 1584  01:AB85  68        .l4:      pla
 1585                               add   _font_base
                0000              .if (1 = 2)            ; register A (handle carry
                                  .else
       01:AB86  18                 clc
       01:AB87  6D 6F 27           adc    _font_base
                                  .endif
 1586  01:AB8A  8D 02 00            sta   video_data_l
 1587  01:AB8D  62                  cla
 1588  01:AB8E  6D 70 27            adc   _font_base+1
 1589  01:AB91  8D 03 00            sta   video_data_h
 1590  01:AB94  CA                  dex
 1591  01:AB95  D0 EE               bne   .l4
 1592  01:AB97  60        .l5:      rts
 1593                     
 1594                     
 1595                     ; gfx_line(int x1 [bx], int y1 [cx], int x2 [si], int y2 [bp], char color [reg acc])
 1596                     ; ----
 1597                     ; Plot a line from location (x1,y1) to locations (x2,y2) in color
 1598                     ; ----
 1599  01:AB98            lib2_gfx_line.5:                ; Bresenham line drawing algorithm
 1600  01:AB98  8E 81 29            stx   _line_color
 1601                     
 1602                               cmpw  <_cx,<_bp       ; make y always ascending by swapping
       01:AB9B  A5 ED              lda    HIGH_BYTE <_bp
       01:AB9D  C5 FD              cmp    HIGH_BYTE <_cx
       01:AB9F  D0 04              bne    .x_00390
       01:ABA1  A5 EC              lda    LOW_BYTE <_bp
       01:ABA3  C5 FC              cmp    LOW_BYTE <_cx
       01:ABA5            .x_00390:
 1603                               bhs   .l1             ; co-ordinates
       01:ABA5  B0 26              bcs    .l1
 1604                                                     ; jump over swap if _bp > _cx
 1605                     
 1606                               stw   <_bp,_line_curry        ; swap coordinates
       01:ABA7  A5 EC              lda    LOW_BYTE <_bp
       01:ABA9  8D 76 29           sta    LOW_BYTE _line_curry
       01:ABAC  A5 ED              lda    HIGH_BYTE <_bp
       01:ABAE  8D 77 29           sta    HIGH_BYTE _line_curry
 1607                               stw   <_cx,<_bp
       01:ABB1  A5 FC              lda    LOW_BYTE <_cx
       01:ABB3  85 EC              sta    LOW_BYTE <_bp
       01:ABB5  A5 FD              lda    HIGH_BYTE <_cx
       01:ABB7  85 ED              sta    HIGH_BYTE <_bp
 1608                               stw   <_si,_line_currx
       01:ABB9  A5 EE              lda    LOW_BYTE <_si
       01:ABBB  8D 74 29           sta    LOW_BYTE _line_currx
       01:ABBE  A5 EF              lda    HIGH_BYTE <_si
       01:ABC0  8D 75 29           sta    HIGH_BYTE _line_currx
 1609                               stw   <_bx,<_si
       01:ABC3  A5 FA              lda    LOW_BYTE <_bx
       01:ABC5  85 EE              sta    LOW_BYTE <_si
       01:ABC7  A5 FB              lda    HIGH_BYTE <_bx
       01:ABC9  85 EF              sta    HIGH_BYTE <_si
 1610                     
 1611  01:ABCB  80 14               bra   .l2
 1612                     
 1613                     .l1:      stw   <_bx,_line_currx
       01:ABCD  A5 FA              lda    LOW_BYTE <_bx
       01:ABCF  8D 74 29           sta    LOW_BYTE _line_currx
       01:ABD2  A5 FB              lda    HIGH_BYTE <_bx
       01:ABD4  8D 75 29           sta    HIGH_BYTE _line_currx
 1614                               stw   <_cx,_line_curry
       01:ABD7  A5 FC              lda    LOW_BYTE <_cx
       01:ABD9  8D 76 29           sta    LOW_BYTE _line_curry
       01:ABDC  A5 FD              lda    HIGH_BYTE <_cx
       01:ABDE  8D 77 29           sta    HIGH_BYTE _line_curry
 1615                     
 1616                     ; now:
 1617                     ;  line_currx and line_curry are start point
 1618                     ;  <_si and <_bp are end point
 1619                     ;  <_bx and <_cx are 'dont care'
 1620                     
 1621  01:ABE1            .l2:
 1622  01:ABE1  A5 EC               lda   LOW_BYTE  <_bp
 1623                               sub   LOW_BYTE  _line_curry
                0000              .if (1 = 2)            ; from register A (handle
                                  .else
       01:ABE3  38                 sec
       01:ABE4  ED 76 29           sbc    LOW_BYTE  _line_curry
                                  .endif
 1624  01:ABE7  8D 7A 29            sta   LOW_BYTE  _line_deltay
 1625  01:ABEA  A5 ED               lda   HIGH_BYTE <_bp
 1626  01:ABEC  ED 77 29            sbc   HIGH_BYTE _line_curry
 1627  01:ABEF  8D 7B 29            sta   HIGH_BYTE _line_deltay
 1628                     
 1629  01:ABF2  A5 EE               lda   LOW_BYTE  <_si
 1630                               sub   LOW_BYTE  _line_currx
                0000              .if (1 = 2)            ; from register A (handle
                                  .else
       01:ABF4  38                 sec
       01:ABF5  ED 74 29           sbc    LOW_BYTE  _line_currx
                                  .endif
 1631  01:ABF8  8D 78 29            sta   LOW_BYTE  _line_deltax
 1632  01:ABFB  A5 EF               lda   HIGH_BYTE <_si
 1633  01:ABFD  ED 75 29            sbc   HIGH_BYTE _line_currx
 1634  01:AC00  8D 79 29            sta   HIGH_BYTE _line_deltax
 1635                     
 1636  01:AC03  9C 80 29            stz   _line_xdir      ; 0 = positive
 1637                     
 1638  01:AC06  AD 79 29            lda   HIGH_BYTE _line_deltax
 1639  01:AC09  10 14               bpl   .l3
 1640                     
 1641  01:AC0B  A9 01               lda   #1
 1642  01:AC0D  8D 80 29            sta   _line_xdir      ; 1 = negative
 1643                               negw  _line_deltax
       01:AC10  62                 cla                    ; (at stated memory location)
                                   sub    _line_deltax              ; 2's complement
                0000              .if (1 = 2)            ; from register A (handle
                                  .else
       01:AC11  38                 sec
       01:AC12  ED 78 29           sbc    _line_deltax
                                  .endif
       01:AC15  8D 78 29           sta    _line_deltax
       01:AC18  62                 cla
       01:AC19  ED 79 29           sbc    _line_deltax+1
       01:AC1C  8D 79 29           sta    _line_deltax+1
 1644                     
 1645                     ; now:
 1646                     ;  line_deltay is difference from end to start (positive)
 1647                     ;  line_deltax is difference from end to start (positive)
 1648                     ;  line_xdir shows whether to apply deltax positive or negative
 1649                     
 1650                     
 1651  01:AC1F            .l3:
 1652                               cmpw  _line_deltax,_line_deltay
       01:AC1F  AD 7B 29           lda    HIGH_BYTE _line_deltay
       01:AC22  CD 79 29           cmp    HIGH_BYTE _line_deltax
       01:AC25  D0 06              bne    .x_00402
       01:AC27  AD 7A 29           lda    LOW_BYTE _line_deltay
       01:AC2A  CD 78 29           cmp    LOW_BYTE _line_deltax
       01:AC2D            .x_00402:
 1653                               lbhs  .ybiglp         ; jump if deltay > |deltax|
       01:AC2D  90 03              bcc    .x_00403
       01:AC2F  4C 2B AD           jmp    .ybiglp
       01:AC32            .x_00403
 1654                     
 1655  01:AC32            .xbiglp:
 1656                             __ldw   _line_deltay
                0000              .if (1 = 2)
                                  .else
       01:AC32  AE 7A 29           ldx    _line_deltay
       01:AC35  AD 7B 29           lda    _line_deltay+1
                                  .endif
 1657                             __aslw
       01:AC38  22                 sax
       01:AC39  0A                 asl    A
       01:AC3A  22                 sax
       01:AC3B  2A                 rol    A
 1658                             __stw   _line_adjust
       01:AC3C  8E 7E 29           stx    _line_adjust
       01:AC3F  8D 7F 29           sta    _line_adjust+1
 1659                             __stw   _line_error
       01:AC42  8E 7C 29           stx    _line_error
       01:AC45  8D 7D 29           sta    _line_error+1
 1660                     
 1661                               subw  _line_deltax,_line_adjust
       01:AC48  38                 sec
       01:AC49  AD 7E 29           lda    LOW_BYTE _line_adjust
       01:AC4C  ED 78 29           sbc    LOW_BYTE _line_deltax
       01:AC4F  8D 7E 29           sta    LOW_BYTE _line_adjust
       01:AC52  AD 7F 29           lda    HIGH_BYTE _line_adjust
       01:AC55  ED 79 29           sbc    HIGH_BYTE _line_deltax
       01:AC58  8D 7F 29           sta    HIGH_BYTE _line_adjust
 1662                               subw  _line_deltax,_line_adjust
       01:AC5B  38                 sec
       01:AC5C  AD 7E 29           lda    LOW_BYTE _line_adjust
       01:AC5F  ED 78 29           sbc    LOW_BYTE _line_deltax
       01:AC62  8D 7E 29           sta    LOW_BYTE _line_adjust
       01:AC65  AD 7F 29           lda    HIGH_BYTE _line_adjust
       01:AC68  ED 79 29           sbc    HIGH_BYTE _line_deltax
       01:AC6B  8D 7F 29           sta    HIGH_BYTE _line_adjust
 1663                     
 1664                               subw  _line_deltax,_line_error
       01:AC6E  38                 sec
       01:AC6F  AD 7C 29           lda    LOW_BYTE _line_error
       01:AC72  ED 78 29           sbc    LOW_BYTE _line_deltax
       01:AC75  8D 7C 29           sta    LOW_BYTE _line_error
       01:AC78  AD 7D 29           lda    HIGH_BYTE _line_error
       01:AC7B  ED 79 29           sbc    HIGH_BYTE _line_deltax
       01:AC7E  8D 7D 29           sta    HIGH_BYTE _line_error
 1665                     
 1666                               incw  _line_deltax            ; used as counter - get both endpoints
       01:AC81  EE 78 29           inc    _line_deltax              ; value at stated memory
       01:AC84  D0 03              bne    .x_00411           ; location
       01:AC86  EE 79 29           inc    _line_deltax+1
       01:AC89            .x_00411:
 1667                     
 1668  01:AC89            .xlp1:
 1669                               stw   _line_currx,<_bx        ; draw pixel
       01:AC89  AD 74 29           lda    LOW_BYTE _line_currx
       01:AC8C  85 FA              sta    LOW_BYTE <_bx
       01:AC8E  AD 75 29           lda    HIGH_BYTE _line_currx
       01:AC91  85 FB              sta    HIGH_BYTE <_bx
 1670                               stw   _line_curry,<_cx
       01:AC93  AD 76 29           lda    LOW_BYTE _line_curry
       01:AC96  85 FC              sta    LOW_BYTE <_cx
       01:AC98  AD 77 29           lda    HIGH_BYTE _line_curry
       01:AC9B  85 FD              sta    HIGH_BYTE <_cx
 1671  01:AC9D  AE 81 29            ldx   _line_color
 1672  01:ACA0  62                  cla
 1673  01:ACA1  20 22 AE            jsr   lib2_gfx_plot.3
 1674                     
 1675                               decw  _line_deltax            ; dec counter
       01:ACA4  38                 sec                    ; value at stated memory
       01:ACA5  AD 78 29           lda    _line_deltax              ; location
       01:ACA8  E9 01              sbc    #1
       01:ACAA  8D 78 29           sta    _line_deltax
       01:ACAD  AD 79 29           lda    _line_deltax+1
       01:ACB0  E9 00              sbc    #0
       01:ACB2  8D 79 29           sta    _line_deltax+1
 1676                               tstw  _line_deltax
       01:ACB5  AD 78 29           lda   _line_deltax               ; value at stated memory
       01:ACB8  0D 79 29           ora   _line_deltax+1             ; location is zero
 1677                               lbeq  .out
       01:ACBB  D0 03              bne    .x_00416
       01:ACBD  4C 21 AE           jmp    .out
       01:ACC0            .x_00416
 1678                     
 1679  01:ACC0  AD 80 29            lda   _line_xdir              ; adjust currx
 1680  01:ACC3  F0 13               beq   .xlppos
 1681                     
 1682                               decw  _line_currx
       01:ACC5  38                 sec                    ; value at stated memory
       01:ACC6  AD 74 29           lda    _line_currx              ; location
       01:ACC9  E9 01              sbc    #1
       01:ACCB  8D 74 29           sta    _line_currx
       01:ACCE  AD 75 29           lda    _line_currx+1
       01:ACD1  E9 00              sbc    #0
       01:ACD3  8D 75 29           sta    _line_currx+1
 1683  01:ACD6  80 08               bra   .xlp2
 1684                     
 1685                     .xlppos:  incw  _line_currx
       01:ACD8  EE 74 29           inc    _line_currx              ; value at stated memory
       01:ACDB  D0 03              bne    .x_00418           ; location
       01:ACDD  EE 75 29           inc    _line_currx+1
       01:ACE0            .x_00418:
 1686                     
 1687  01:ACE0            .xlp2:
 1688  01:ACE0  AD 7D 29            lda   HIGH_BYTE _line_error
 1689  01:ACE3  30 1D               bmi   .xlp3
 1690                     
 1691                               addw  _line_adjust,_line_error
                0000              .if     (2 = 3)
                                  .else
                                   ; 2-arg mode
                                   ;
       01:ACE5  18                 clc
       01:ACE6  AD 7C 29           lda    LOW_BYTE _line_error
       01:ACE9  6D 7E 29           adc    LOW_BYTE _line_adjust
       01:ACEC  8D 7C 29           sta    LOW_BYTE _line_error
       01:ACEF  AD 7D 29           lda    HIGH_BYTE _line_error
       01:ACF2  6D 7F 29           adc    HIGH_BYTE _line_adjust
       01:ACF5  8D 7D 29           sta    HIGH_BYTE _line_error
                                  .endif
 1692                               incw  _line_curry
       01:ACF8  EE 76 29           inc    _line_curry              ; value at stated memory
       01:ACFB  D0 03              bne    .x_00420           ; location
       01:ACFD  EE 77 29           inc    _line_curry+1
       01:AD00            .x_00420:
 1693  01:AD00  80 87               bra   .xlp1
 1694  01:AD02            .xlp3:
 1695                               addw  _line_deltay,_line_error
                0000              .if     (2 = 3)
                                  .else
                                   ; 2-arg mode
                                   ;
       01:AD02  18                 clc
       01:AD03  AD 7C 29           lda    LOW_BYTE _line_error
       01:AD06  6D 7A 29           adc    LOW_BYTE _line_deltay
       01:AD09  8D 7C 29           sta    LOW_BYTE _line_error
       01:AD0C  AD 7D 29           lda    HIGH_BYTE _line_error
       01:AD0F  6D 7B 29           adc    HIGH_BYTE _line_deltay
       01:AD12  8D 7D 29           sta    HIGH_BYTE _line_error
                                  .endif
 1696                               addw  _line_deltay,_line_error
                0000              .if     (2 = 3)
                                  .else
                                   ; 2-arg mode
                                   ;
       01:AD15  18                 clc
       01:AD16  AD 7C 29           lda    LOW_BYTE _line_error
       01:AD19  6D 7A 29           adc    LOW_BYTE _line_deltay
       01:AD1C  8D 7C 29           sta    LOW_BYTE _line_error
       01:AD1F  AD 7D 29           lda    HIGH_BYTE _line_error
       01:AD22  6D 7B 29           adc    HIGH_BYTE _line_deltay
       01:AD25  8D 7D 29           sta    HIGH_BYTE _line_error
                                  .endif
 1697  01:AD28  4C 89 AC            jmp   .xlp1
 1698                     
 1699  01:AD2B            .ybiglp:
 1700                             __ldw   _line_deltax
                0000              .if (1 = 2)
                                  .else
       01:AD2B  AE 78 29           ldx    _line_deltax
       01:AD2E  AD 79 29           lda    _line_deltax+1
                                  .endif
 1701                             __aslw
       01:AD31  22                 sax
       01:AD32  0A                 asl    A
       01:AD33  22                 sax
       01:AD34  2A                 rol    A
 1702                             __stw   _line_adjust
       01:AD35  8E 7E 29           stx    _line_adjust
       01:AD38  8D 7F 29           sta    _line_adjust+1
 1703                             __stw   _line_error
       01:AD3B  8E 7C 29           stx    _line_error
       01:AD3E  8D 7D 29           sta    _line_error+1
 1704                     
 1705                               subw  _line_deltay,_line_adjust
       01:AD41  38                 sec
       01:AD42  AD 7E 29           lda    LOW_BYTE _line_adjust
       01:AD45  ED 7A 29           sbc    LOW_BYTE _line_deltay
       01:AD48  8D 7E 29           sta    LOW_BYTE _line_adjust
       01:AD4B  AD 7F 29           lda    HIGH_BYTE _line_adjust
       01:AD4E  ED 7B 29           sbc    HIGH_BYTE _line_deltay
       01:AD51  8D 7F 29           sta    HIGH_BYTE _line_adjust
 1706                               subw  _line_deltay,_line_adjust
       01:AD54  38                 sec
       01:AD55  AD 7E 29           lda    LOW_BYTE _line_adjust
       01:AD58  ED 7A 29           sbc    LOW_BYTE _line_deltay
       01:AD5B  8D 7E 29           sta    LOW_BYTE _line_adjust
       01:AD5E  AD 7F 29           lda    HIGH_BYTE _line_adjust
       01:AD61  ED 7B 29           sbc    HIGH_BYTE _line_deltay
       01:AD64  8D 7F 29           sta    HIGH_BYTE _line_adjust
 1707                             
 1708                               subw  _line_deltay,_line_error
       01:AD67  38                 sec
       01:AD68  AD 7C 29           lda    LOW_BYTE _line_error
       01:AD6B  ED 7A 29           sbc    LOW_BYTE _line_deltay
       01:AD6E  8D 7C 29           sta    LOW_BYTE _line_error
       01:AD71  AD 7D 29           lda    HIGH_BYTE _line_error
       01:AD74  ED 7B 29           sbc    HIGH_BYTE _line_deltay
       01:AD77  8D 7D 29           sta    HIGH_BYTE _line_error
 1709                     
 1710                               incw  _line_deltay            ; used as counter - get both endpoints
       01:AD7A  EE 7A 29           inc    _line_deltay              ; value at stated memory
       01:AD7D  D0 03              bne    .x_00430           ; location
       01:AD7F  EE 7B 29           inc    _line_deltay+1
       01:AD82            .x_00430:
 1711                     
 1712  01:AD82            .ylp1:
 1713                               stw   _line_currx,<_bx        ; draw pixel
       01:AD82  AD 74 29           lda    LOW_BYTE _line_currx
       01:AD85  85 FA              sta    LOW_BYTE <_bx
       01:AD87  AD 75 29           lda    HIGH_BYTE _line_currx
       01:AD8A  85 FB              sta    HIGH_BYTE <_bx
 1714                               stw   _line_curry,<_cx
       01:AD8C  AD 76 29           lda    LOW_BYTE _line_curry
       01:AD8F  85 FC              sta    LOW_BYTE <_cx
       01:AD91  AD 77 29           lda    HIGH_BYTE _line_curry
       01:AD94  85 FD              sta    HIGH_BYTE <_cx
 1715  01:AD96  AE 81 29            ldx   _line_color
 1716  01:AD99  62                  cla
 1717  01:AD9A  20 22 AE            jsr   lib2_gfx_plot.3
 1718                     
 1719                               decw  _line_deltay            ; dec counter
       01:AD9D  38                 sec                    ; value at stated memory
       01:AD9E  AD 7A 29           lda    _line_deltay              ; location
       01:ADA1  E9 01              sbc    #1
       01:ADA3  8D 7A 29           sta    _line_deltay
       01:ADA6  AD 7B 29           lda    _line_deltay+1
       01:ADA9  E9 00              sbc    #0
       01:ADAB  8D 7B 29           sta    _line_deltay+1
 1720                               tstw  _line_deltay
       01:ADAE  AD 7A 29           lda   _line_deltay               ; value at stated memory
       01:ADB1  0D 7B 29           ora   _line_deltay+1             ; location is zero
 1721  01:ADB4  F0 6B               beq   .out
 1722                     
 1723                               incw  _line_curry
       01:ADB6  EE 76 29           inc    _line_curry              ; value at stated memory
       01:ADB9  D0 03              bne    .x_00435           ; location
       01:ADBB  EE 77 29           inc    _line_curry+1
       01:ADBE            .x_00435:
 1724                     
 1725  01:ADBE  AD 7D 29            lda   HIGH_BYTE _line_error
 1726  01:ADC1  30 35               bmi   .ylp2
 1727                     
 1728                               addw  _line_adjust,_line_error
                0000              .if     (2 = 3)
                                  .else
                                   ; 2-arg mode
                                   ;
       01:ADC3  18                 clc
       01:ADC4  AD 7C 29           lda    LOW_BYTE _line_error
       01:ADC7  6D 7E 29           adc    LOW_BYTE _line_adjust
       01:ADCA  8D 7C 29           sta    LOW_BYTE _line_error
       01:ADCD  AD 7D 29           lda    HIGH_BYTE _line_error
       01:ADD0  6D 7F 29           adc    HIGH_BYTE _line_adjust
       01:ADD3  8D 7D 29           sta    HIGH_BYTE _line_error
                                  .endif
 1729  01:ADD6  AD 80 29            lda   _line_xdir
 1730  01:ADD9  F0 13               beq   .ylppos
 1731                     
 1732                               decw  _line_currx
       01:ADDB  38                 sec                    ; value at stated memory
       01:ADDC  AD 74 29           lda    _line_currx              ; location
       01:ADDF  E9 01              sbc    #1
       01:ADE1  8D 74 29           sta    _line_currx
       01:ADE4  AD 75 29           lda    _line_currx+1
       01:ADE7  E9 00              sbc    #0
       01:ADE9  8D 75 29           sta    _line_currx+1
 1733  01:ADEC  80 94               bra   .ylp1
 1734                     
 1735                     .ylppos:  incw  _line_currx
       01:ADEE  EE 74 29           inc    _line_currx              ; value at stated memory
       01:ADF1  D0 03              bne    .x_00438           ; location
       01:ADF3  EE 75 29           inc    _line_currx+1
       01:ADF6            .x_00438:
 1736  01:ADF6  80 8A               bra   .ylp1
 1737                     
 1738  01:ADF8            .ylp2:
 1739                               addw  _line_deltax,_line_error
                0000              .if     (2 = 3)
                                  .else
                                   ; 2-arg mode
                                   ;
       01:ADF8  18                 clc
       01:ADF9  AD 7C 29           lda    LOW_BYTE _line_error
       01:ADFC  6D 78 29           adc    LOW_BYTE _line_deltax
       01:ADFF  8D 7C 29           sta    LOW_BYTE _line_error
       01:AE02  AD 7D 29           lda    HIGH_BYTE _line_error
       01:AE05  6D 79 29           adc    HIGH_BYTE _line_deltax
       01:AE08  8D 7D 29           sta    HIGH_BYTE _line_error
                                  .endif
 1740                               addw  _line_deltax,_line_error
                0000              .if     (2 = 3)
                                  .else
                                   ; 2-arg mode
                                   ;
       01:AE0B  18                 clc
       01:AE0C  AD 7C 29           lda    LOW_BYTE _line_error
       01:AE0F  6D 78 29           adc    LOW_BYTE _line_deltax
       01:AE12  8D 7C 29           sta    LOW_BYTE _line_error
       01:AE15  AD 7D 29           lda    HIGH_BYTE _line_error
       01:AE18  6D 79 29           adc    HIGH_BYTE _line_deltax
       01:AE1B  8D 7D 29           sta    HIGH_BYTE _line_error
                                  .endif
 1741  01:AE1E  4C 82 AD            jmp   .ylp1
 1742                     
 1743  01:AE21            .out:
 1744  01:AE21  60                  rts
 1745                     
 1746                     
 1747                     ; gfx_plot(int x [bx], int y [cx], char color [reg acc])
 1748                     ; ----
 1749                     ; Plot a point at location (x,y) in color
 1750                     ; ----
 1751                     
 1752  01:AE22            lib2_gfx_plot.3:
 1753  01:AE22  86 FE               stx   <_dl            ; color
 1754  01:AE24  20 33 AF            jsr   gfx_getaddr
 1755                     
 1756                             ; same as vm_rawread - save 21 cycles by inlining
 1757                             ;
 1758                               vreg  #1              ; video read register
       01:AE27  A9 01              lda    #1
       01:AE29  85 F7              sta    <vdc_reg
                0001               .if (2 = ARG_IMMED)
       01:AE2B  03 01               st0   #1
                                   .else
                                   .endif
 1759                               stw   <_cx,video_data ; VRAM address
       01:AE2D  A5 FC              lda    LOW_BYTE <_cx
       01:AE2F  8D 02 00           sta    LOW_BYTE video_data
       01:AE32  A5 FD              lda    HIGH_BYTE <_cx
       01:AE34  8D 03 00           sta    HIGH_BYTE video_data
 1760                               vreg  #2              ; set R/W memory mode
       01:AE37  A9 02              lda    #2
       01:AE39  85 F7              sta    <vdc_reg
                0001               .if (2 = ARG_IMMED)
       01:AE3B  03 02               st0   #2
                                   .else
                                   .endif
 1761                             __ldw   video_data
                0000              .if (1 = 2)
                                  .else
       01:AE3D  AE 02 00           ldx    video_data
       01:AE40  AD 03 00           lda    video_data+1
                                  .endif
 1762                             ;
 1763                             ; end inline
 1764                     
 1765  01:AE43  A4 F8               ldy   <_al            ; bit offset
 1766  01:AE45  1F FE 05            bbr1  <_dl,.l1
 1767  01:AE48  19 23 AF            ora   gfx_bittbl,Y    ; set bit
 1768  01:AE4B  80 03               bra   .l1a
 1769  01:AE4D  39 2B AF  .l1:      and   gfx_bittbl2,Y   ; else mask bit
 1770  01:AE50            .l1a:
 1771  01:AE50  22                  sax
 1772  01:AE51  0F FE 05            bbr0  <_dl,.l2
 1773  01:AE54  19 23 AF            ora   gfx_bittbl,Y    ; set bit
 1774  01:AE57  80 03               bra   .l2a
 1775  01:AE59  39 2B AF  .l2:      and   gfx_bittbl2,Y   ; else mask bit
 1776  01:AE5C            .l2a:
 1777                             ; same as vm_rawwrite - save >14 cycles by inlining
 1778                             ;
 1779  01:AE5C  DA                  phx
 1780  01:AE5D  AA                  tax
 1781                               vreg  #0              ; video write register
       01:AE5E  A9 00              lda    #0
       01:AE60  85 F7              sta    <vdc_reg
                0001               .if (2 = ARG_IMMED)
       01:AE62  03 00               st0   #0
                                   .else
                                   .endif
 1782                               stw   <_cx,video_data ; VRAM address
       01:AE64  A5 FC              lda    LOW_BYTE <_cx
       01:AE66  8D 02 00           sta    LOW_BYTE video_data
       01:AE69  A5 FD              lda    HIGH_BYTE <_cx
       01:AE6B  8D 03 00           sta    HIGH_BYTE video_data
 1783                               vreg  #2              ; set R/W memory mode
       01:AE6E  A9 02              lda    #2
       01:AE70  85 F7              sta    <vdc_reg
                0001               .if (2 = ARG_IMMED)
       01:AE72  03 02               st0   #2
                                   .else
                                   .endif
 1784  01:AE74  68                  pla
 1785                             __stw   video_data      ; write
       01:AE75  8E 02 00           stx    video_data
       01:AE78  8D 03 00           sta    video_data+1
 1786                             ;
 1787                             ; end inline
 1788                     
 1789                               addw  #8,<_cx         ; other half of pixel
                0000              .if     (2 = 3)
                                  .else
                                   ; 2-arg mode
                                   ;
       01:AE7B  18                 clc
       01:AE7C  A5 FC              lda    LOW_BYTE <_cx
       01:AE7E  69 08              adc    LOW_BYTE #8
       01:AE80  85 FC              sta    LOW_BYTE <_cx
       01:AE82  A5 FD              lda    HIGH_BYTE <_cx
       01:AE84  69 00              adc    HIGH_BYTE #8
       01:AE86  85 FD              sta    HIGH_BYTE <_cx
                                  .endif
 1790                     
 1791                             ; same as vm_rawread - save 21 cycles by inlining
 1792                             ;
 1793                               vreg  #1              ; video read register
       01:AE88  A9 01              lda    #1
       01:AE8A  85 F7              sta    <vdc_reg
                0001               .if (2 = ARG_IMMED)
       01:AE8C  03 01               st0   #1
                                   .else
                                   .endif
 1794                               stw   <_cx,video_data ; VRAM address
       01:AE8E  A5 FC              lda    LOW_BYTE <_cx
       01:AE90  8D 02 00           sta    LOW_BYTE video_data
       01:AE93  A5 FD              lda    HIGH_BYTE <_cx
       01:AE95  8D 03 00           sta    HIGH_BYTE video_data
 1795                               vreg  #2              ; set R/W memory mode
       01:AE98  A9 02              lda    #2
       01:AE9A  85 F7              sta    <vdc_reg
                0001               .if (2 = ARG_IMMED)
       01:AE9C  03 02               st0   #2
                                   .else
                                   .endif
 1796                             __ldw   video_data
                0000              .if (1 = 2)
                                  .else
       01:AE9E  AE 02 00           ldx    video_data
       01:AEA1  AD 03 00           lda    video_data+1
                                  .endif
 1797                             ;
 1798                             ; end inline
 1799                     
 1800  01:AEA4  A4 F8               ldy   <_al            ; bit offset
 1801  01:AEA6  3F FE 05            bbr3  <_dl,.l3
 1802  01:AEA9  19 23 AF            ora   gfx_bittbl,Y    ; set bit
 1803  01:AEAC  80 03               bra   .l3a
 1804  01:AEAE  39 2B AF  .l3:      and   gfx_bittbl2,Y   ; else mask bit
 1805  01:AEB1            .l3a:
 1806  01:AEB1  22                  sax
 1807  01:AEB2  2F FE 05            bbr2  <_dl,.l4
 1808  01:AEB5  19 23 AF            ora   gfx_bittbl,Y    ; set bit
 1809  01:AEB8  80 03               bra   .l4a
 1810  01:AEBA  39 2B AF  .l4:      and   gfx_bittbl2,Y   ; mask bit
 1811  01:AEBD            .l4a:
 1812                             ; same as vm_rawwrite - save >14 cycles by inlining
 1813                             ;
 1814  01:AEBD  DA                  phx
 1815  01:AEBE  AA                  tax
 1816                               vreg  #0              ; video write register
       01:AEBF  A9 00              lda    #0
       01:AEC1  85 F7              sta    <vdc_reg
                0001               .if (2 = ARG_IMMED)
       01:AEC3  03 00               st0   #0
                                   .else
                                   .endif
 1817                               stw   <_cx,video_data ; VRAM address
       01:AEC5  A5 FC              lda    LOW_BYTE <_cx
       01:AEC7  8D 02 00           sta    LOW_BYTE video_data
       01:AECA  A5 FD              lda    HIGH_BYTE <_cx
       01:AECC  8D 03 00           sta    HIGH_BYTE video_data
 1818                               vreg  #2              ; set R/W memory mode
       01:AECF  A9 02              lda    #2
       01:AED1  85 F7              sta    <vdc_reg
                0001               .if (2 = ARG_IMMED)
       01:AED3  03 02               st0   #2
                                   .else
                                   .endif
 1819  01:AED5  68                  pla
 1820                             __stw   video_data      ; write
       01:AED6  8E 02 00           stx    video_data
       01:AED9  8D 03 00           sta    video_data+1
 1821                             ;
 1822                             ; end inline
 1823                     
 1824  01:AEDC  60                  rts
 1825                     
 1826                     
 1827                     ; gfx_point(int x [bx], int y [cx])
 1828                     ; ----
 1829                     ; Returns color of point at location (x,y)
 1830                     ; ----
 1831                     
 1832  01:AEDD            lib2_gfx_point.2:
 1833  01:AEDD  20 33 AF            jsr   gfx_getaddr
 1834  01:AEE0  64 F9               stz   <_ah            ; will be color
 1835                             __ldw   <_cx            ; VRAM address
                0000              .if (1 = 2)
                                  .else
       01:AEE2  A6 FC              ldx    <_cx
       01:AEE4  A5 FD              lda    <_cx+1
                                  .endif
 1836  01:AEE6  20 A0 F5            jsr   readvram
 1837                     
 1838  01:AEE9  A4 F8               ldy   <_al            ; bit offset
 1839  01:AEEB  39 23 AF            and   gfx_bittbl,Y
 1840  01:AEEE  F0 02               beq   .l1
 1841  01:AEF0  97 F9               smb1  <_ah
 1842  01:AEF2  8A        .l1:      txa
 1843  01:AEF3  39 23 AF            and   gfx_bittbl,Y
 1844  01:AEF6  F0 02               beq   .l2
 1845  01:AEF8  87 F9               smb0  <_ah
 1846  01:AEFA            .l2:
 1847                               addw  #8,<_cx
                0000              .if     (2 = 3)
                                  .else
                                   ; 2-arg mode
                                   ;
       01:AEFA  18                 clc
       01:AEFB  A5 FC              lda    LOW_BYTE <_cx
       01:AEFD  69 08              adc    LOW_BYTE #8
       01:AEFF  85 FC              sta    LOW_BYTE <_cx
       01:AF01  A5 FD              lda    HIGH_BYTE <_cx
       01:AF03  69 00              adc    HIGH_BYTE #8
       01:AF05  85 FD              sta    HIGH_BYTE <_cx
                                  .endif
 1848                             __ldw   <_cx            ; VRAM address part 2
                0000              .if (1 = 2)
                                  .else
       01:AF07  A6 FC              ldx    <_cx
       01:AF09  A5 FD              lda    <_cx+1
                                  .endif
 1849  01:AF0B  20 A0 F5            jsr   readvram
 1850                     
 1851  01:AF0E  A4 F8               ldy   <_al
 1852  01:AF10  39 23 AF            and   gfx_bittbl,Y
 1853  01:AF13  F0 02               beq   .l3
 1854  01:AF15  B7 F9               smb3  <_ah
 1855  01:AF17  8A        .l3:      txa
 1856  01:AF18  39 23 AF            and   gfx_bittbl,Y
 1857  01:AF1B  F0 02               beq   .l4
 1858  01:AF1D  A7 F9               smb2  <_ah
 1859  01:AF1F            .l4:
 1860  01:AF1F  A6 F9               ldx   <_ah
 1861  01:AF21  62                  cla
 1862  01:AF22  60                  rts
 1863                     
 1864                     
 1865  01:AF23            gfx_bittbl:
 1866  01:AF23  80 40 20            .db   $80,$40,$20,$10,$08,$04,$02,$01
       01:AF26  10 08 04  
       01:AF29  02 01     
 1867  01:AF2B            gfx_bittbl2:
 1868  01:AF2B  7F BF DF            .db   $7f,$bf,$df,$ef,$f7,$fb,$fd,$fe
       01:AF2E  EF F7 FB  
       01:AF31  FD FE     
 1869                     
 1870                     
 1871                     ; gfx_getaddr
 1872                     ; ----
 1873                     ; Utility routine to switch x/y pixel
 1874                     ; co-ordinates into VRAM addr and bit #
 1875                     ; ----
 1876                     
 1877  01:AF33            gfx_getaddr:
 1878  01:AF33  A5 FC               lda   <_cl
 1879  01:AF35  29 07               and   #7
 1880  01:AF37  85 F8               sta   <_al    ; al = lines from tile base
 1881                     
 1882  01:AF39  A5 FA               lda   <_bl
 1883  01:AF3B  29 07               and   #7
 1884  01:AF3D  48                  pha           ; = bit offset
 1885                     
 1886                             __ldw   <_bx
                0000              .if (1 = 2)
                                  .else
       01:AF3E  A6 FA              ldx    <_bx
       01:AF40  A5 FB              lda    <_bx+1
                                  .endif
 1887                             __lsrw          ; should be only 2 bits in MSB are possible
       01:AF42  4A                lsr     A
       01:AF43  22                sax
       01:AF44  6A                ror     A
       01:AF45  22                sax
 1888                             __lsrw          ; but we'll shift 3 times anyway
       01:AF46  4A                lsr     A
       01:AF47  22                sax
       01:AF48  6A                ror     A
       01:AF49  22                sax
 1889                             __lsrw
       01:AF4A  4A                lsr     A
       01:AF4B  22                sax
       01:AF4C  6A                ror     A
       01:AF4D  22                sax
 1890  01:AF4E  DA                  phx           ; X = character column
 1891                     
 1892                             __ldw   <_cx
                0000              .if (1 = 2)
                                  .else
       01:AF4F  A6 FC              ldx    <_cx
       01:AF51  A5 FD              lda    <_cx+1
                                  .endif
 1893                             __lsrw          ; should be only 2 bits in MSB are possible
       01:AF53  4A                lsr     A
       01:AF54  22                sax
       01:AF55  6A                ror     A
       01:AF56  22                sax
 1894                             __lsrw          ; but we'll shift 3 times anyway
       01:AF57  4A                lsr     A
       01:AF58  22                sax
       01:AF59  6A                ror     A
       01:AF5A  22                sax
 1895                             __lsrw
       01:AF5B  4A                lsr     A
       01:AF5C  22                sax
       01:AF5D  6A                ror     A
       01:AF5E  22                sax
 1896  01:AF5F  8A                  txa           ; A = character row
 1897                     
 1898  01:AF60  FA                  plx
 1899  01:AF61  20 26 E4            jsr   calc_vram_addr
 1900                     
 1901                             __ldw   <_di            ; to get BAT addr
                0000              .if (1 = 2)
                                  .else
       01:AF64  A6 F0              ldx    <_di
       01:AF66  A5 F1              lda    <_di+1
                                  .endif
 1902  01:AF68  20 A0 F5            jsr   readvram        ; read BAT value
 1903                             __aslw                  ; change into VRAM tile addr
       01:AF6B  22                 sax
       01:AF6C  0A                 asl    A
       01:AF6D  22                 sax
       01:AF6E  2A                 rol    A
 1904                             __aslw
       01:AF6F  22                 sax
       01:AF70  0A                 asl    A
       01:AF71  22                 sax
       01:AF72  2A                 rol    A
 1905                             __aslw
       01:AF73  22                 sax
       01:AF74  0A                 asl    A
       01:AF75  22                 sax
       01:AF76  2A                 rol    A
 1906                             __aslw                  ; cx = VRAM addr start of tile
       01:AF77  22                 sax
       01:AF78  0A                 asl    A
       01:AF79  22                 sax
       01:AF7A  2A                 rol    A
 1907                     
 1908  01:AF7B  22                  sax
 1909  01:AF7C  18                  clc                   ; add row within tile
 1910  01:AF7D  65 F8               adc   <_al
 1911  01:AF7F  22                  sax
 1912  01:AF80  69 00               adc   #0
 1913                             __stw   <_cx
       01:AF82  86 FC              stx    <_cx
       01:AF84  85 FD              sta    <_cx+1
 1914                     
 1915  01:AF86  68                  pla
 1916  01:AF87  85 F8               sta   <_al            ; al = bit offset
 1917                     
 1918  01:AF89  60                  rts
 1919                     
 1920                     ; Change back to original LIB1_BANK context
 1921                     
 1922           0000               .bank  LIB1_BANK
 1923                     
 1924                     
 1925                     
#[2]   startup.asm
#[3]   huc_math.asm
 1218                             .include "huc_math.asm"
    1                     ;
    2                     ; HUC_MATH.ASM  -  HuC Math Library
    3                     ;
    4                     
    5                     ; abs(int val)
    6                     ; ---
    7                     
    8  00:F697            _abs:
    9  00:F697  A8                tay
   10  00:F698  10 0B             bpl     .l1
   11  00:F69A  22                sax
   12  00:F69B  49 FF             eor     #$FF
   13                             add     #1
                0000              .if (1 = 2)            ; register A (handle carry
                                  .else
       00:F69D  18                 clc
       00:F69E  69 01              adc    #1
                                  .endif
   14  00:F6A0  22                sax
   15  00:F6A1  49 FF             eor     #$FF
   16  00:F6A3  69 00             adc     #0
   17  00:F6A5            .l1:
   18  00:F6A5  60                rts
   19                     
   20                     ; mov32(void *dst [di], void *src)
   21                     ; ----
   22                     
   23  00:F6A6            _mov32.2:
   24                             __stw   <_si
       00:F6A6  86 EE              stx    <_si
       00:F6A8  85 EF              sta    <_si+1
   25  00:F6AA            _mov32.sub:
   26  00:F6AA  A0 03               ldy   #3
   27  00:F6AC  B1 EE     .l1:      lda   [_si],Y
   28  00:F6AE  91 F0               sta   [_di],Y
   29  00:F6B0  88                  dey
   30  00:F6B1  10 F9               bpl   .l1
   31  00:F6B3  60                  rts
   32                     
   33                     ; add32(void *dst [di], void *src) /* ax|bx */
   34                     ; ----
   35                     
   36  00:F6B4            _add32.2:
   37                             __stw   <_si
       00:F6B4  86 EE              stx    <_si
       00:F6B6  85 EF              sta    <_si+1
   38  00:F6B8  18                  clc
   39  00:F6B9  C2                  cly
   40  00:F6BA  A2 04               ldx   #4
   41  00:F6BC  B1 F0     .l1:      lda   [_di],Y
   42  00:F6BE  71 EE               adc   [_si],Y
   43  00:F6C0  91 F0               sta   [_di],Y
   44  00:F6C2  C8                  iny
   45  00:F6C3  CA                  dex
   46  00:F6C4  D0 F6               bne   .l1
   47  00:F6C6  60                  rts
   48                     
   49                     ; sub32(void *dst [di], void *src)
   50                     ; ----
   51                     
   52  00:F6C7            _sub32.2:
   53                             __stw   <_si
       00:F6C7  86 EE              stx    <_si
       00:F6C9  85 EF              sta    <_si+1
   54  00:F6CB  38                  sec
   55  00:F6CC  C2                  cly
   56  00:F6CD  A2 04               ldx   #4
   57  00:F6CF  B1 F0     .l1:      lda   [_di],Y
   58  00:F6D1  F1 EE               sbc   [_si],Y
   59  00:F6D3  91 F0               sta   [_di],Y
   60  00:F6D5  C8                  iny
   61  00:F6D6  CA                  dex
   62  00:F6D7  D0 F6               bne   .l1
   63  00:F6D9  60                  rts
   64                     
   65                     ; mul32(void *dst [bp], void *src)
   66                     ; ----
   67                     
   68  00:F6DA            _mul32.2:
   69                             __stw   <_si
       00:F6DA  86 EE              stx    <_si
       00:F6DC  85 EF              sta    <_si+1
   70                               stw   #_ax,<_di
       00:F6DE  A9 F8              lda    LOW_BYTE #_ax
       00:F6E0  85 F0              sta    LOW_BYTE <_di
       00:F6E2  A9 20              lda    HIGH_BYTE #_ax
       00:F6E4  85 F1              sta    HIGH_BYTE <_di
   71  00:F6E6  20 AA F6            jsr   _mov32.sub
   72                               stw   <_bp,<_si
       00:F6E9  A5 EC              lda    LOW_BYTE <_bp
       00:F6EB  85 EE              sta    LOW_BYTE <_si
       00:F6ED  A5 ED              lda    HIGH_BYTE <_bp
       00:F6EF  85 EF              sta    HIGH_BYTE <_si
   73                               stw   #_cx,<_di
       00:F6F1  A9 FC              lda    LOW_BYTE #_cx
       00:F6F3  85 F0              sta    LOW_BYTE <_di
       00:F6F5  A9 20              lda    HIGH_BYTE #_cx
       00:F6F7  85 F1              sta    HIGH_BYTE <_di
   74  00:F6F9  20 AA F6            jsr   _mov32.sub
   75  00:F6FC  20 32 E7            jsr    mulu32
   76                               stw   <_bp,<_di
       00:F6FF  A5 EC              lda    LOW_BYTE <_bp
       00:F701  85 F0              sta    LOW_BYTE <_di
       00:F703  A5 ED              lda    HIGH_BYTE <_bp
       00:F705  85 F1              sta    HIGH_BYTE <_di
   77                               stw   #_cx,<_si
       00:F707  A9 FC              lda    LOW_BYTE #_cx
       00:F709  85 EE              sta    LOW_BYTE <_si
       00:F70B  A9 20              lda    HIGH_BYTE #_cx
       00:F70D  85 EF              sta    HIGH_BYTE <_si
   78  00:F70F  4C AA F6            jmp   _mov32.sub
   79                     
   80                     ; div32(void *dst [di], void *src)
   81                     ; ----
   82                     
   83  00:F712            _div32.2:
   84  00:F712  60                  rts
   85                     
   86                     ; com32(void *dst)
   87                     ; ----
   88                     
   89  00:F713            _com32.1:
   90                             __stw   <_di
       00:F713  86 F0              stx    <_di
       00:F715  85 F1              sta    <_di+1
   91  00:F717  A0 03               ldy   #3
   92  00:F719  B1 F0     .l1:      lda   [_di],Y
   93  00:F71B  49 FF               eor   #$FF
   94  00:F71D  91 F0               sta   [_di],Y
   95  00:F71F  88                  dey
   96  00:F720  10 F7               bpl   .l1
   97  00:F722  60                  rts
   98                             
   99                     ; cmp32(void *dst [di], void *src)
  100                     ; ----
  101                     
  102  00:F723            _cmp32.2:
  103                             __stw   <_si
       00:F723  86 EE              stx    <_si
       00:F725  85 EF              sta    <_si+1
  104  00:F727  A0 03               ldy   #3
  105  00:F729  B1 F0     .l1:      lda   [_di],Y
  106  00:F72B  D1 EE               cmp   [_si],Y
  107  00:F72D  D0 06               bne   .l2
  108  00:F72F  88                  dey
  109  00:F730  10 F7               bpl   .l1
  110                               ; --
  111  00:F732  82                  clx
  112  00:F733  62                  cla
  113  00:F734  60                  rts
  114                               ; --
  115                     .l2:      blo   .l3
       00:F735  90 04              bcc    .l3
  116  00:F737  A2 01               ldx   #$01
  117  00:F739  62                  cla
  118  00:F73A  60                  rts
  119                               ; --
  120  00:F73B  A2 FF     .l3:      ldx   #$FF
  121  00:F73D  8A                  txa
  122  00:F73E  60                  rts
  123                     
  124                     ; bcd_init(char *dst [bx], char digits)
  125                     ; ----
  126                     
  127  00:F73F            _bcd_init.2:
  128                               ; -- check digit number (max. 16)
  129  00:F73F  8A                  txa
  130  00:F740  C9 10               cmp   #16
  131                               blo   .l1
       00:F742  90 02              bcc    .l1
  132  00:F744  A9 10               lda   #16
  133  00:F746  1A        .l1:      inc   A
  134  00:F747  4A                  lsr   A
  135  00:F748  09 80               ora   #$80
  136  00:F74A  92 FA               sta   [_bx]
  137  00:F74C            _bcd_init.clear:
  138                               ; -- clear bcd number
  139  00:F74C  B2 FA               lda   [_bx]
  140  00:F74E  29 1F               and   #$1F
  141  00:F750  A8                  tay
  142  00:F751  62                  cla
  143  00:F752  91 FA     .l2:      sta   [_bx],Y
  144  00:F754  88                  dey
  145  00:F755  D0 FB               bne   .l2
  146  00:F757  60                  rts
  147                     
  148                     ; bcd_set(char *dst [bx], char *src)
  149                     ; bcd_mov(char *dst [bx], char *src)
  150                     ; ----
  151                     
  152  00:F758            _bcd_set.2:
  153  00:F758            _bcd_mov.2:
  154                             __stw   <_si
       00:F758  86 EE              stx    <_si
       00:F75A  85 EF              sta    <_si+1
  155  00:F75C  05 EE               ora   <_si
  156  00:F75E  F0 EC               beq   _bcd_init.clear
  157                               ; -- check dst
  158  00:F760  B2 FA               lda   [_bx]
  159  00:F762  10 0B               bpl   .x1
  160  00:F764  29 1F               and   #$1F
  161  00:F766  F0 07               beq   .x1
  162  00:F768  AA                  tax
  163                               ; -- check src type
  164  00:F769  B2 EE               lda   [_si]
  165  00:F76B  10 03               bpl   _bcd_set.ascii
  166  00:F76D  80 33               bra   _bcd_set.bcd
  167  00:F76F  60        .x1:      rts
  168                         ; ----
  169                         ; ... from an ascii string (ie. "100")
  170                         ;
  171  00:F770            _bcd_set.ascii:
  172                               ; -- get string length
  173  00:F770  C2                  cly
  174  00:F771  B1 EE     .l1:      lda   [_si],Y
  175  00:F773  C9 30               cmp   #48
  176                               blo   .l2
       00:F775  90 07              bcc    .l2
  177  00:F777  C9 3A               cmp   #58
  178                               bhs   .l2
       00:F779  B0 03              bcs    .l2
  179  00:F77B  C8                  iny
  180  00:F77C  80 F3               bra   .l1
  181                               ; -- check if the string is empty 
  182  00:F77E  98        .l2:      tya
  183  00:F77F  F0 CB               beq   _bcd_init.clear
  184                               ; -- copy number
  185  00:F781  62        .l3:      cla
  186  00:F782  88                  dey
  187  00:F783  30 15               bmi   .l4
  188  00:F785  B1 EE               lda   [_si],Y
  189                               sub   #48
                0000              .if (1 = 2)            ; from register A (handle
                                  .else
       00:F787  38                 sec
       00:F788  E9 30              sbc    #48
                                  .endif
  190  00:F78A  85 FE               sta   <_dl
  191  00:F78C  88                  dey
  192  00:F78D  30 0B               bmi   .l4
  193  00:F78F  B1 EE               lda   [_si],Y
  194                               sub   #48
                0000              .if (1 = 2)            ; from register A (handle
                                  .else
       00:F791  38                 sec
       00:F792  E9 30              sbc    #48
                                  .endif
  195  00:F794  0A                  asl   A
  196  00:F795  0A                  asl   A
  197  00:F796  0A                  asl   A
  198  00:F797  0A                  asl   A
  199  00:F798  05 FE               ora   <_dl
  200  00:F79A  02        .l4:      sxy
  201  00:F79B  91 FA               sta   [_bx],Y
  202  00:F79D  02                  sxy
  203  00:F79E  CA                  dex
  204  00:F79F  D0 E0               bne   .l3
  205  00:F7A1  60                  rts
  206                     
  207                         ; ----
  208                         ; ... from another bcd number
  209                         ;
  210  00:F7A2            _bcd_set.bcd:
  211                               ; -- get src size
  212  00:F7A2  B2 EE               lda   [_si]
  213  00:F7A4  10 18               bpl   .x1
  214  00:F7A6  29 1F               and   #$1F
  215  00:F7A8  F0 14               beq   .x1
  216  00:F7AA  A8                  tay
  217                               ; -- copy number
  218  00:F7AB  B1 EE     .l1:      lda   [_si],Y
  219  00:F7AD  02                  sxy
  220  00:F7AE  91 FA               sta   [_bx],Y
  221  00:F7B0  88                  dey
  222  00:F7B1  F0 0B               beq   .x1
  223  00:F7B3  02                  sxy
  224  00:F7B4  88                  dey
  225  00:F7B5  D0 F4               bne   .l1
  226                               ; -- adjust number
  227  00:F7B7  02                  sxy
  228  00:F7B8  62                  cla
  229  00:F7B9  91 FA     .l2:      sta   [_bx],Y
  230  00:F7BB  88                  dey
  231  00:F7BC  D0 FB               bne   .l2
  232  00:F7BE  60        .x1:      rts
  233                     
  234                     ; bcd_add(char *dst [di], char *src)
  235                     ; ----
  236                     
  237  00:F7BF            _bcd_add.2:
  238                             __stw   <_si
       00:F7BF  86 EE              stx    <_si
       00:F7C1  85 EF              sta    <_si+1
  239  00:F7C3  05 EE               ora   <_si
  240  00:F7C5  F0 3D               beq   .x1
  241                               ; -- check dst
  242  00:F7C7  B2 F0               lda   [_di]
  243  00:F7C9  10 39               bpl   .x1
  244  00:F7CB  29 1F               and   #$1F
  245  00:F7CD  F0 35               beq   .x1
  246  00:F7CF  AA                  tax
  247  00:F7D0  86 FC               stx   <_cl
  248                               ; -- check src
  249  00:F7D2  B2 EE               lda   [_si]
  250  00:F7D4  30 19               bmi   .l1
  251                               ; -- convert ascii string
  252                               stw   #__temp,<_bx
       00:F7D6  A9 03              lda    LOW_BYTE #__temp
       00:F7D8  85 FA              sta    LOW_BYTE <_bx
       00:F7DA  A9 20              lda    HIGH_BYTE #__temp
       00:F7DC  85 FB              sta    HIGH_BYTE <_bx
  253  00:F7DE  20 70 F7            jsr   _bcd_set.ascii
  254                               stw   #__temp,<_si
       00:F7E1  A9 03              lda    LOW_BYTE #__temp
       00:F7E3  85 EE              sta    LOW_BYTE <_si
       00:F7E5  A9 20              lda    HIGH_BYTE #__temp
       00:F7E7  85 EF              sta    HIGH_BYTE <_si
  255  00:F7E9  A6 FC               ldx   <_cl
  256  00:F7EB  A4 FC               ldy   <_cl
  257  00:F7ED  80 07               bra   .l2
  258                               ; -- get src size
  259  00:F7EF  29 1F     .l1:      and   #$1F
  260  00:F7F1  F0 11               beq   .x1
  261  00:F7F3  A8                  tay
  262                               ; -- add numbers
  263  00:F7F4  18                  clc
  264  00:F7F5  F8                  sed
  265  00:F7F6  B1 F0     .l2:      lda   [_di],Y
  266  00:F7F8  02                  sxy
  267  00:F7F9  71 F0               adc   [_di],Y
  268  00:F7FB  91 F0               sta   [_di],Y
  269  00:F7FD  CA                  dex
  270  00:F7FE  F0 0C               beq   .l4
  271  00:F800  02                  sxy
  272  00:F801  CA                  dex
  273  00:F802  D0 F2               bne   .l2
  274                               ; --
  275  00:F804  D8        .x1:      cld
  276  00:F805  60                  rts
  277                               ; -- carry
  278  00:F806  B1 F0     .l3:      lda   [_di],Y
  279  00:F808  69 00               adc   #0
  280  00:F80A  91 F0               sta   [_di],Y
  281  00:F80C  90 F6     .l4:      bcc   .x1
  282  00:F80E  88                  dey
  283  00:F80F  D0 F5               bne   .l3
  284  00:F811  D8                  cld
  285  00:F812  60                  rts
  286                     
#[2]   startup.asm
#[3]   huc_bram.asm
 1219                             .include "huc_bram.asm"
    1                     ;
    2                     ; HUC_BRAM.ASM  -  HuC Backup RAM Library
    3                     ;
    4                     
    5           2982                      .bss
    6  --:2982            _bm_mpr4:       .ds 1
    7  --:2983            _bm_error:      .ds 1
    8           F813                      .code
    9                     
   10                     ; NOTE: the BRAM format is as follows:
   11                     ;
   12                     ; BRAM bank header (0x10 bytes):
   13                     ; ------------------------------
   14                     ; - Header tag (4 bytes) = 'HUBM'
   15                     ;
   16                     ; - Pointer to 1st byte after BRAM (2 byte int)
   17                     ;   Note: relative to 0x8000 segment, hex example: 00 88 ($8800)
   18                     ;
   19                     ; - Pointer to next available BRAM slot (2 byte int)
   20                     ;   Note: relative to 0x8000 segment, hex example: 22 80 ($8022)
   21                     ;
   22                     ; - Zeroes (8 bytes)
   23                     ;
   24                     ; BRAM Entry Header (0x10 bytes):
   25                     ; -------------------------------
   26                     ; - Size of entry (2 bytes), hex example: 12 00 ($0012)
   27                     ;   This size includes the 0x10 bytes used by this header information
   28                     ;
   29                     ; - Checksum (2 bytes)
   30                     ;   This number added to the data should total to 0
   31                     ;
   32                     ; - Name (12 bytes)
   33                     ;   This subdivides into:
   34                     ;   - Unique ID (2 bytes); I have only ever seen 00 00 in this entry
   35                     ;     However, it appears to be an integral part of the name
   36                     ;   - ASCII Name (10 bytes)
   37                     ;     This should be padded with spaces
   38                     ;
   39                     ; BRAM Entry:
   40                     ; -----------
   41                     ; - Miscellaneous data, size described by header parameters
   42                     ;
   43                     ; BRAM Entry Trailer (0x02 bytes):
   44                     ; --------------------------------
   45                     ; - Zeores (2 bytes)
   46                     ;   Technically, this trailer is "not used", but rather a terminator
   47                     ;   to the linked list.  The BRAM bank header points at it by the
   48                     ;   'next available slot' pointer
   49                     ;
   50                     
   51                     
   52                     ; bm_check()
   53                     ; ---
   54                     ; Determine whether BRAM exists on this system
   55                     ; without damaging contents on BRAM
   56                     ;
   57                     
   58  00:F813            _bm_check:
   59  00:F813  20 44 FA            jsr   _bm_unlock
   60                     
   61                               stw   #$8000,<_di     ; test area at $8000
       00:F816  A9 00              lda    LOW_BYTE #$8000
       00:F818  85 F0              sta    LOW_BYTE <_di
       00:F81A  A9 80              lda    HIGH_BYTE #$8000
       00:F81C  85 F1              sta    HIGH_BYTE <_di
   62  00:F81E  20 34 F8            jsr   _bm_testram
   63                     
   64                               ; -- result
   65  00:F821  20 32 FA            jsr   _bm_disable
   66  00:F824  E0 00               cpx   #0
   67  00:F826  D0 08               bne   .err
   68                               ; -- ok
   69  00:F828  9C 83 29            stz   _bm_error
   70  00:F82B  A2 01               ldx   #1
   71  00:F82D  62                  cla
   72  00:F82E  18                  clc
   73  00:F82F  60                  rts
   74                               ; -- no bram
   75  00:F830  82        .err:     clx
   76  00:F831  62                  cla
   77  00:F832  38                  sec
   78  00:F833  60                  rts
   79                     
   80                     
   81                     ; bm_testram
   82                     ; ---
   83                     ; internal function to test whether BRAM exists at a location
   84                     ; input  = _di (pointer to memory area to test)
   85                     ; output = register x (# errors)
   86                     ;
   87                     
   88  00:F834            _bm_testram:
   89                               ; -- swap bits
   90  00:F834  A0 07               ldy   #7
   91  00:F836  B1 F0     .l1:      lda   [_di],Y
   92  00:F838  49 FF               eor   #$FF
   93  00:F83A  99 F8 20            sta   _ax,Y
   94  00:F83D  91 F0               sta   [_di],Y
   95  00:F83F  88                  dey
   96  00:F840  10 F4               bpl   .l1
   97                               ; -- cmp
   98  00:F842  82                  clx
   99  00:F843  A0 07               ldy   #7
  100  00:F845  B9 F8 20  .l2:      lda   _ax,Y
  101  00:F848  D1 F0               cmp   [_di],Y
  102  00:F84A  F0 01               beq   .l3
  103  00:F84C  E8                  inx
  104  00:F84D  49 FF     .l3:      eor   #$FF
  105  00:F84F  91 F0               sta   [_di],Y
  106  00:F851  88                  dey
  107  00:F852  10 F1               bpl   .l2
  108                     
  109  00:F854  60                  rts
  110                     
  111                     
  112                     ; bm_format()
  113                     ; ---
  114                     ; If BRAM is already formatted (*_PROPERLY_*), return OK
  115                     ; Otherwise, set header info, and set limit of BRAM to
  116                     ; maximum amount of memory available on this hardware
  117                     ;
  118                     
  119  00:F855            _bm_format:
  120  00:F855  20 20 FA            jsr   _bm_enable
  121  00:F858  90 30               bcc   .ok
  122                               ; -- format
  123  00:F85A  A2 07               ldx   #7
  124  00:F85C  BD AC F9  .l1:      lda   _bm_id,X
  125  00:F85F  9D 00 80            sta   $8000,X
  126  00:F862  CA                  dex
  127  00:F863  10 F7               bpl   .l1
  128  00:F865  9C 10 80            stz   $8010
  129  00:F868  9C 11 80            stz   $8011
  130                     
  131                               stw   #$8000,<_di     ; test area at $8000
       00:F86B  A9 00              lda    LOW_BYTE #$8000
       00:F86D  85 F0              sta    LOW_BYTE <_di
       00:F86F  A9 80              lda    HIGH_BYTE #$8000
       00:F871  85 F1              sta    HIGH_BYTE <_di
  132  00:F873  20 34 F8  .l2:      jsr   _bm_testram
  133  00:F876  E0 00               cpx   #0
  134  00:F878  D0 0B               bne   .setsz
  135  00:F87A  A5 F1               lda   <_di+1
  136  00:F87C  C9 A0               cmp   #$A0            ; and keep going until either
  137  00:F87E  F0 05               beq   .setsz          ; (a) bad memory, or
  138  00:F880  1A                  inc   A               ; (b) next bank
  139  00:F881  85 F1               sta   <_di+1
  140  00:F883  80 EE               bra   .l2
  141                     
  142  00:F885  A5 F1     .setsz:   lda   <_di+1
  143  00:F887  8D 05 80            sta   $8005
  144                     
  145                               ; -- ok
  146  00:F88A  20 32 FA  .ok:      jsr   _bm_disable
  147  00:F88D  9C 83 29            stz   _bm_error
  148  00:F890  82                  clx
  149  00:F891  62                  cla
  150  00:F892  18                  clc
  151  00:F893  60                  rts
  152                     
  153                     
  154                     ; bm_free()
  155                     ; ---
  156                     ; Returns (int) number of user bytes available in BRAM
  157                     ; BRAM header entry and trailer overhead is already deducted
  158                     ;
  159                     
  160  00:F894            _bm_free:
  161  00:F894  20 20 FA            jsr   _bm_enable
  162  00:F897  B0 3A               bcs   .err
  163                               ; -- calculate free space
  164                               stw   $8004,<_cx
       00:F899  AD 04 80           lda    LOW_BYTE $8004
       00:F89C  85 FC              sta    LOW_BYTE <_cx
       00:F89E  AD 05 80           lda    HIGH_BYTE $8004
       00:F8A1  85 FD              sta    HIGH_BYTE <_cx
  165                               subw  $8006,<_cx
       00:F8A3  38                 sec
       00:F8A4  A5 FC              lda    LOW_BYTE <_cx
       00:F8A6  ED 06 80           sbc    LOW_BYTE $8006
       00:F8A9  85 FC              sta    LOW_BYTE <_cx
       00:F8AB  A5 FD              lda    HIGH_BYTE <_cx
       00:F8AD  ED 07 80           sbc    HIGH_BYTE $8006
       00:F8B0  85 FD              sta    HIGH_BYTE <_cx
  166                               subw  #$12,<_cx
       00:F8B2  38                 sec
       00:F8B3  A5 FC              lda    LOW_BYTE <_cx
       00:F8B5  E9 12              sbc    LOW_BYTE #$12
       00:F8B7  85 FC              sta    LOW_BYTE <_cx
       00:F8B9  A5 FD              lda    HIGH_BYTE <_cx
       00:F8BB  E9 00              sbc    HIGH_BYTE #$12
       00:F8BD  85 FD              sta    HIGH_BYTE <_cx
  167  00:F8BF  A5 FD               lda   <_ch
  168  00:F8C1  10 04               bpl   .ok
  169                               stwz  <_cx
       00:F8C3  64 FC              stz    LOW_BYTE <_cx
       00:F8C5  64 FD              stz    HIGH_BYTE <_cx
  170                               ; -- ok
  171  00:F8C7  20 32 FA  .ok:      jsr   _bm_disable
  172  00:F8CA  9C 83 29            stz   _bm_error
  173                             __ldw   <_cx
                0000              .if (1 = 2)
                                  .else
       00:F8CD  A6 FC              ldx    <_cx
       00:F8CF  A5 FD              lda    <_cx+1
                                  .endif
  174  00:F8D1  18                  clc
  175  00:F8D2  60                  rts
  176                               ; -- error, bram not formated
  177  00:F8D3  8D 83 29  .err:     sta   _bm_error
  178  00:F8D6  20 32 FA            jsr   _bm_disable
  179  00:F8D9  A9 FF               lda   #$FF
  180  00:F8DB  AA                  tax
  181  00:F8DC  38                  sec
  182  00:F8DD  60                  rts
  183                     
  184                     
  185                     ; bm_size()
  186                     ; ---
  187                     ; Returns (int) number of bytes in BRAM - should normally
  188                     ; be 2K, but can be as large as 8KB
  189                     
  190  00:F8DE            _bm_size:
  191  00:F8DE  20 20 FA            jsr   _bm_enable
  192  00:F8E1  B0 33               bcs   .err
  193                               ; -- calculate free space
  194                               stw   $8004,<_cx
       00:F8E3  AD 04 80           lda    LOW_BYTE $8004
       00:F8E6  85 FC              sta    LOW_BYTE <_cx
       00:F8E8  AD 05 80           lda    HIGH_BYTE $8004
       00:F8EB  85 FD              sta    HIGH_BYTE <_cx
  195                               subw  #$8000,<_cx
       00:F8ED  38                 sec
       00:F8EE  A5 FC              lda    LOW_BYTE <_cx
       00:F8F0  E9 00              sbc    LOW_BYTE #$8000
       00:F8F2  85 FC              sta    LOW_BYTE <_cx
       00:F8F4  A5 FD              lda    HIGH_BYTE <_cx
       00:F8F6  E9 80              sbc    HIGH_BYTE #$8000
       00:F8F8  85 FD              sta    HIGH_BYTE <_cx
  196  00:F8FA  A5 FD               lda   <_ch
  197  00:F8FC  C9 21               cmp   #$21
  198  00:F8FE  B0 14               bcs   .err1
  199  00:F900  A5 FD               lda   <_ch
  200  00:F902  10 04               bpl   .ok
  201                               stwz  <_cx
       00:F904  64 FC              stz    LOW_BYTE <_cx
       00:F906  64 FD              stz    HIGH_BYTE <_cx
  202                               ; -- ok
  203  00:F908  20 32 FA  .ok:      jsr   _bm_disable
  204  00:F90B  9C 83 29            stz   _bm_error
  205                             __ldw   <_cx
                0000              .if (1 = 2)
                                  .else
       00:F90E  A6 FC              ldx    <_cx
       00:F910  A5 FD              lda    <_cx+1
                                  .endif
  206  00:F912  18                  clc
  207  00:F913  60                  rts
  208                               ; -- error, bram not formated
  209  00:F914  A9 FF     .err1:    lda   #$ff
  210  00:F916  8D 83 29  .err:     sta   _bm_error
  211  00:F919  20 32 FA            jsr   _bm_disable
  212  00:F91C  A9 FF               lda   #$FF
  213  00:F91E  AA                  tax
  214  00:F91F  38                  sec
  215  00:F920  60                  rts
  216                     
  217                     
  218                     ; bm_rawread(int location)
  219                     ; ---
  220                     ; Similar to peek(), but for BRAM
  221                     ; Automatically handles mapping of memory ; and address range
  222                     ;
  223  00:F921            _bm_rawread:
  224                             __stw   <_bx
       00:F921  86 FA              stx    <_bx
       00:F923  85 FB              sta    <_bx+1
  225  00:F925  A5 FB               lda   <_bh
  226  00:F927  29 1F               and   #$1F
  227  00:F929  09 80               ora   #$80
  228  00:F92B  85 FB               sta   <_bh
  229  00:F92D  20 20 FA            jsr   _bm_enable
  230  00:F930  B0 0C               bcs   .err
  231  00:F932  B2 FA               lda   [_bx]
  232  00:F934  22                  sax
  233  00:F935  9C 83 29            stz   _bm_error
  234  00:F938  20 32 FA            jsr   _bm_disable
  235  00:F93B  62                  cla
  236  00:F93C  18                  clc
  237  00:F93D  60                  rts
  238  00:F93E  8D 83 29  .err:     sta   _bm_error
  239  00:F941  20 32 FA            jsr   _bm_disable
  240  00:F944  38                  sec
  241  00:F945  60                  rts
  242                     
  243                     
  244                     ; bm_rawwrite(int location [bx], char val [reg acc])
  245                     ; ---
  246                     ; Similar to peek(), but for BRAM
  247                     ; Automatically handles mapping of memory ; and address range
  248                     ;
  249  00:F946            _bm_rawwrite.2:
  250                             __stw   <_ax
       00:F946  86 F8              stx    <_ax
       00:F948  85 F9              sta    <_ax+1
  251  00:F94A  A5 FB               lda   <_bh
  252  00:F94C  29 1F               and   #$1F
  253  00:F94E  09 80               ora   #$80
  254  00:F950  85 FB               sta   <_bh
  255  00:F952  20 20 FA            jsr   _bm_enable
  256  00:F955  B0 0E               bcs   .err
  257  00:F957  A5 F8               lda   <_al
  258  00:F959  92 FA               sta   [_bx]
  259  00:F95B  9C 83 29            stz   _bm_error
  260  00:F95E  20 32 FA            jsr   _bm_disable
  261  00:F961  62                  cla
  262  00:F962  82                  clx
  263  00:F963  18                  clc
  264  00:F964  60                  rts
  265  00:F965  8D 83 29  .err:     sta   _bm_error
  266  00:F968  20 32 FA            jsr   _bm_disable
  267  00:F96B  38                  sec
  268  00:F96C  60                  rts
  269                     
  270                     
  271                     ; bm_exist(char *name)
  272                     ; ---
  273                     ; Check for existence of BRAM file with a matching name
  274                     ; Note: name is 12 bytes; first 2 bytes are a uniqueness value
  275                     ;       (should be zeroes), and the next10 bytes are ASCII name
  276                     ;       with trailing spaces as padding
  277                     ;
  278                     
  279  00:F96D            _bm_exist:
  280                             __stw   <_bx
       00:F96D  86 FA              stx    <_bx
       00:F96F  85 FB              sta    <_bx+1
  281  00:F971  20 0E FA            jsr   _bm_open
  282  00:F974  B0 0A               bcs   .l1
  283  00:F976  20 32 FA            jsr   _bm_disable
  284  00:F979  A2 01               ldx   #1
  285  00:F97B  AD 83 29            lda   _bm_error
  286  00:F97E  F0 02               beq   .noerr
  287  00:F980  82        .l1:      clx
  288  00:F981  62                  cla
  289  00:F982  60        .noerr:   rts
  290                     
  291                     
  292                     ; bm_sizeof(char *name)
  293                     ; ---
  294                     ; Return the size of the user data in a RAM file with the given name
  295                     ; Note: name is 12 bytes; first 2 bytes are a uniqueness value
  296                     ;       (should be zeroes), and the next10 bytes are ASCII name
  297                     ;       with trailing spaces as padding
  298                     ;
  299                     
  300  00:F983            _bm_sizeof:
  301                             __stw   <_bx
       00:F983  86 FA              stx    <_bx
       00:F985  85 FB              sta    <_bx+1
  302  00:F987  20 0E FA            jsr   _bm_open
  303  00:F98A  B0 18               bcs   .l1
  304                               subw  #$10,<_cx
       00:F98C  38                 sec
       00:F98D  A5 FC              lda    LOW_BYTE <_cx
       00:F98F  E9 10              sbc    LOW_BYTE #$10
       00:F991  85 FC              sta    LOW_BYTE <_cx
       00:F993  A5 FD              lda    HIGH_BYTE <_cx
       00:F995  E9 00              sbc    HIGH_BYTE #$10
       00:F997  85 FD              sta    HIGH_BYTE <_cx
  305  00:F999  20 32 FA            jsr   _bm_disable
  306  00:F99C  9C 83 29            stz   _bm_error
  307  00:F99F  A6 FC               ldx   <_cl
  308  00:F9A1  A5 FD               lda   <_ch
  309  00:F9A3  60                  rts
  310  00:F9A4  82        .l1:      clx
  311  00:F9A5  62                  cla
  312  00:F9A6  60                  rts
  313                     
  314                     
  315                     ; bm_errno()
  316                     ; ---
  317                     ; Return error type
  318                     ;
  319                     
  320  00:F9A7            _bm_errno:
  321  00:F9A7  AE 83 29            ldx   _bm_error
  322  00:F9AA  62                  cla
  323  00:F9AB  60                  rts
  324                     
  325                     
  326  00:F9AC            _bm_id:
  327  00:F9AC  48 55 42            .db   $48,$55,$42,$4D
       00:F9AF  4D        
  328  00:F9B0  00 88 10            .db   $00,$88,$10,$80
       00:F9B3  80        
  329                     
  330                     
  331                     ; ------------------------
  332                     
  333                     ; bm_getptr(int ptr [bp], char *namebuf [reg acc])
  334                     ; ---
  335                     ; Given a pointer with the BRAM, obtain the name of the entry
  336                     ; and the pointer to the next entry
  337                     ; Use BRAM_START for first entry
  338                     ;
  339                     
  340  00:F9B4            _bm_getptr.2:
  341                               maplibfunc    lib2_bm_getptr.2
       00:F9B4  A8                 tay
       00:F9B5  43 20              tma  #page(lib2_bm_getptr.2)
       00:F9B7  48                 pha
       00:F9B8  A9 01              lda  #bank(lib2_bm_getptr.2)
       00:F9BA  53 20              tam  #page(lib2_bm_getptr.2)
       00:F9BC  98                 tya
       00:F9BD  20 8A AF           jsr  lib2_bm_getptr.2
       00:F9C0  A8                 tay
       00:F9C1  68                 pla
       00:F9C2  53 20              tam  #page(lib2_bm_getptr.2)
       00:F9C4  98                 tya
  342  00:F9C5  60                  rts
  343                     
  344                     
  345                     ; bm_delete(char *namebuf)
  346                     ; ---
  347                     ; Delete the entry specified by the name provided
  348                     ;
  349                     
  350  00:F9C6            _bm_delete:
  351                               maplibfunc    lib2_bm_delete
       00:F9C6  A8                 tay
       00:F9C7  43 20              tma  #page(lib2_bm_delete)
       00:F9C9  48                 pha
       00:F9CA  A9 01              lda  #bank(lib2_bm_delete)
       00:F9CC  53 20              tam  #page(lib2_bm_delete)
       00:F9CE  98                 tya
       00:F9CF  20 E0 AF           jsr  lib2_bm_delete
       00:F9D2  A8                 tay
       00:F9D3  68                 pla
       00:F9D4  53 20              tam  #page(lib2_bm_delete)
       00:F9D6  98                 tya
  352  00:F9D7  60                  rts
  353                     
  354                     
  355                     ; bm_read(char *buf [di], char *name [bx], int offset [bp], int nb)
  356                     ; ---
  357                     ; Given a name of a file, grab some info from the file
  358                     ;
  359                     
  360  00:F9D8            _bm_read.4:
  361                               maplibfunc    lib2_bm_read.4
       00:F9D8  A8                 tay
       00:F9D9  43 20              tma  #page(lib2_bm_read.4)
       00:F9DB  48                 pha
       00:F9DC  A9 01              lda  #bank(lib2_bm_read.4)
       00:F9DE  53 20              tam  #page(lib2_bm_read.4)
       00:F9E0  98                 tya
       00:F9E1  20 3F B0           jsr  lib2_bm_read.4
       00:F9E4  A8                 tay
       00:F9E5  68                 pla
       00:F9E6  53 20              tam  #page(lib2_bm_read.4)
       00:F9E8  98                 tya
  362  00:F9E9  60                  rts
  363                     
  364                     
  365                     ; bm_write(char *buf [di], char *name [bx], int offset [bp], int nb)
  366                     ; ---
  367                     ; Given the name of a BRAM file, update some info inside of it
  368                     ;
  369                     
  370  00:F9EA            _bm_write.4:
  371                               maplibfunc    lib2_bm_write.4
       00:F9EA  A8                 tay
       00:F9EB  43 20              tma  #page(lib2_bm_write.4)
       00:F9ED  48                 pha
       00:F9EE  A9 01              lda  #bank(lib2_bm_write.4)
       00:F9F0  53 20              tam  #page(lib2_bm_write.4)
       00:F9F2  98                 tya
       00:F9F3  20 8E B0           jsr  lib2_bm_write.4
       00:F9F6  A8                 tay
       00:F9F7  68                 pla
       00:F9F8  53 20              tam  #page(lib2_bm_write.4)
       00:F9FA  98                 tya
  372  00:F9FB  60                  rts
  373                     
  374                     
  375                     ; bm_create(char *name [bx], int size)
  376                     ; ---
  377                     ; Create a new BRAM file, given the name and size
  378                     
  379  00:F9FC            _bm_create.2:
  380                               maplibfunc    lib2_bm_create.2
       00:F9FC  A8                 tay
       00:F9FD  43 20              tma  #page(lib2_bm_create.2)
       00:F9FF  48                 pha
       00:FA00  A9 01              lda  #bank(lib2_bm_create.2)
       00:FA02  53 20              tam  #page(lib2_bm_create.2)
       00:FA04  98                 tya
       00:FA05  20 CD B0           jsr  lib2_bm_create.2
       00:FA08  A8                 tay
       00:FA09  68                 pla
       00:FA0A  53 20              tam  #page(lib2_bm_create.2)
       00:FA0C  98                 tya
  381  00:FA0D  60                  rts
  382                     
  383                     
  384                     ; bm_open(char *name [bx])
  385                     ; ---
  386                     ; Internal function to obtain access to a named file
  387                     
  388  00:FA0E            _bm_open:
  389                               maplibfunc    lib2_bm_open
       00:FA0E  A8                 tay
       00:FA0F  43 20              tma  #page(lib2_bm_open)
       00:FA11  48                 pha
       00:FA12  A9 01              lda  #bank(lib2_bm_open)
       00:FA14  53 20              tam  #page(lib2_bm_open)
       00:FA16  98                 tya
       00:FA17  20 8D B1           jsr  lib2_bm_open
       00:FA1A  A8                 tay
       00:FA1B  68                 pla
       00:FA1C  53 20              tam  #page(lib2_bm_open)
       00:FA1E  98                 tya
  390  00:FA1F  60                  rts
  391                     
  392                     
  393                     ; bm_enable()
  394                     ; ---
  395                     ; Internal function to enable the BRAM area and do a quick check
  396                     
  397  00:FA20            _bm_enable:
  398                               maplibfunc    lib2_bm_enable
       00:FA20  A8                 tay
       00:FA21  43 20              tma  #page(lib2_bm_enable)
       00:FA23  48                 pha
       00:FA24  A9 01              lda  #bank(lib2_bm_enable)
       00:FA26  53 20              tam  #page(lib2_bm_enable)
       00:FA28  98                 tya
       00:FA29  20 10 B2           jsr  lib2_bm_enable
       00:FA2C  A8                 tay
       00:FA2D  68                 pla
       00:FA2E  53 20              tam  #page(lib2_bm_enable)
       00:FA30  98                 tya
  399  00:FA31  60                  rts
  400                     
  401                     
  402                     ; bm_disable()
  403                     ; ---
  404                     ; This internal function handles the fixup of BRAM segment/locking
  405                     
  406  00:FA32            _bm_disable:
  407                               maplibfunc    lib2_bm_disable
       00:FA32  A8                 tay
       00:FA33  43 20              tma  #page(lib2_bm_disable)
       00:FA35  48                 pha
       00:FA36  A9 01              lda  #bank(lib2_bm_disable)
       00:FA38  53 20              tam  #page(lib2_bm_disable)
       00:FA3A  98                 tya
       00:FA3B  20 38 B2           jsr  lib2_bm_disable
       00:FA3E  A8                 tay
       00:FA3F  68                 pla
       00:FA40  53 20              tam  #page(lib2_bm_disable)
       00:FA42  98                 tya
  408  00:FA43  60                  rts
  409                     
  410                     
  411                     ; bm_unlock()
  412                     ; ---
  413                     ; This internal function handles only the map/unlock of the BRAM area
  414                     
  415  00:FA44            _bm_unlock:
  416                               maplibfunc    lib2_bm_unlock
       00:FA44  A8                 tay
       00:FA45  43 20              tma  #page(lib2_bm_unlock)
       00:FA47  48                 pha
       00:FA48  A9 01              lda  #bank(lib2_bm_unlock)
       00:FA4A  53 20              tam  #page(lib2_bm_unlock)
       00:FA4C  98                 tya
       00:FA4D  20 27 B2           jsr  lib2_bm_unlock
       00:FA50  A8                 tay
       00:FA51  68                 pla
       00:FA52  53 20              tam  #page(lib2_bm_unlock)
       00:FA54  98                 tya
  417  00:FA55  60                  rts
  418                     
  419                     
  420                     ; ---------------
  421                     
  422                     ;
  423                     ; From here, we have the implementation of various
  424                     ; BRAM routines in LIB2_BANK rather than LIB1_BANK
  425                     ; for reasons of speed and size
  426                     ;
  427                     ; Their external linkages will have specified above
  428                     ; and be begin with an underscore.  The private
  429                     ; definitions will not have an underscore
  430                     ;
  431                     
  432           0001              .bank   LIB2_BANK
  433                     
  434                     ; bm_getptr(int ptr [bp], char *namebuf [reg acc])
  435                     ; ---
  436                     ; Given a pointer with the BRAM, obtain the name of the entry
  437                     ; and the pointer to the next entry
  438                     ; Use BRAM_START for first entry
  439                     ;
  440                     
  441  01:AF8A            lib2_bm_getptr.2:
  442                             __stw   <_di            ; namebuf is destination of a copy
       01:AF8A  86 F0              stx    <_di
       01:AF8C  85 F1              sta    <_di+1
  443  01:AF8E  20 10 B2            jsr   lib2_bm_enable
  444  01:AF91  B0 43               bcs   .x2
  445                     
  446                               tstw  <_bp            ; error - 0 input
       01:AF93  A5 EC              lda   <_bp               ; value at stated memory
       01:AF95  05 ED              ora   <_bp+1             ; location is zero
  447  01:AF97  F0 3D               beq   .x2
  448  01:AF99  B2 EC               lda   [_bp]
  449  01:AF9B  85 FC               sta   <_cl
  450  01:AF9D  A0 01               ldy   #1
  451  01:AF9F  B1 EC               lda   [_bp],Y
  452  01:AFA1  85 FD               sta   <_ch            ; <_cx is length of entry
  453                               tstw  <_cx
       01:AFA3  A5 FC              lda   <_cx               ; value at stated memory
       01:AFA5  05 FD              ora   <_cx+1             ; location is zero
  454  01:AFA7  F0 2C               beq   .empty
  455                     
  456                               addw  #4,<_bp,<_si    ; <_si is now ptr to name of current entry
                0001              .if     (3 = 3)
                                   ; 3-arg mode
                                   ;
       01:AFA9  18                 clc
       01:AFAA  A5 EC              lda    LOW_BYTE <_bp
       01:AFAC  69 04              adc    LOW_BYTE #4
       01:AFAE  85 EE              sta    LOW_BYTE <_si
       01:AFB0  A5 ED              lda    HIGH_BYTE <_bp
       01:AFB2  69 00              adc    HIGH_BYTE #4
       01:AFB4  85 EF              sta    HIGH_BYTE <_si
                                  .else
                                  .endif
  457  01:AFB6  62                  cla
  458  01:AFB7  A2 0C               ldx   #12
  459  01:AFB9  20 F3 E5            jsr   _memcpy.3       ; copy 12 bytes of name to namebuf
  460                               addw  <_cx,<_bp,<_ax  ; next pointer
                0001              .if     (3 = 3)
                                   ; 3-arg mode
                                   ;
       01:AFBC  18                 clc
       01:AFBD  A5 EC              lda    LOW_BYTE <_bp
       01:AFBF  65 FC              adc    LOW_BYTE <_cx
       01:AFC1  85 F8              sta    LOW_BYTE <_ax
       01:AFC3  A5 ED              lda    HIGH_BYTE <_bp
       01:AFC5  65 FD              adc    HIGH_BYTE <_cx
       01:AFC7  85 F9              sta    HIGH_BYTE <_ax
                                  .else
                                  .endif
  461  01:AFC9  20 38 B2            jsr   lib2_bm_disable
  462  01:AFCC  9C 83 29            stz   _bm_error
  463  01:AFCF  A5 F9               lda   <_ah
  464  01:AFD1  A6 F8               ldx   <_al
  465  01:AFD3  18                  clc
  466  01:AFD4  60                  rts
  467                     
  468  01:AFD5  62        .empty:   cla
  469                               
  470                               ; -- error, bram not formatted
  471  01:AFD6  8D 83 29  .x2:      sta   _bm_error
  472  01:AFD9  20 38 B2            jsr   lib2_bm_disable
  473  01:AFDC  62                  cla
  474  01:AFDD  82                  clx
  475  01:AFDE  38                  sec
  476  01:AFDF  60                  rts
  477                     
  478                     
  479                     ; bm_delete(char *namebuf)
  480                     ; ---
  481                     ; Delete the entry specified by the name provided
  482                     ;
  483                     
  484  01:AFE0            lib2_bm_delete:
  485                             __stw   <_ax
       01:AFE0  86 F8              stx    <_ax
       01:AFE2  85 F9              sta    <_ax+1
  486  01:AFE4  20 8D B1            jsr   lib2_bm_open
  487  01:AFE7  B0 55               bcs   .out
  488                               stw   $8006,<_bx      ; ptr to end
       01:AFE9  AD 06 80           lda    LOW_BYTE $8006
       01:AFEC  85 FA              sta    LOW_BYTE <_bx
       01:AFEE  AD 07 80           lda    HIGH_BYTE $8006
       01:AFF1  85 FB              sta    HIGH_BYTE <_bx
  489                               stw   <_si,<_di       ; setup currptr as dest
       01:AFF3  A5 EE              lda    LOW_BYTE <_si
       01:AFF5  85 F0              sta    LOW_BYTE <_di
       01:AFF7  A5 EF              lda    HIGH_BYTE <_si
       01:AFF9  85 F1              sta    HIGH_BYTE <_di
  490                               stw   <_dx,<_si       ; setup nextptr as src
       01:AFFB  A5 FE              lda    LOW_BYTE <_dx
       01:AFFD  85 EE              sta    LOW_BYTE <_si
       01:AFFF  A5 FF              lda    HIGH_BYTE <_dx
       01:B001  85 EF              sta    HIGH_BYTE <_si
  491                               subw  <_dx,<_bx       ; #bytes = end-next + 2
       01:B003  38                 sec
       01:B004  A5 FA              lda    LOW_BYTE <_bx
       01:B006  E5 FE              sbc    LOW_BYTE <_dx
       01:B008  85 FA              sta    LOW_BYTE <_bx
       01:B00A  A5 FB              lda    HIGH_BYTE <_bx
       01:B00C  E5 FF              sbc    HIGH_BYTE <_dx
       01:B00E  85 FB              sta    HIGH_BYTE <_bx
  492                               addw  #2,<_bx
                0000              .if     (2 = 3)
                                  .else
                                   ; 2-arg mode
                                   ;
       01:B010  18                 clc
       01:B011  A5 FA              lda    LOW_BYTE <_bx
       01:B013  69 02              adc    LOW_BYTE #2
       01:B015  85 FA              sta    LOW_BYTE <_bx
       01:B017  A5 FB              lda    HIGH_BYTE <_bx
       01:B019  69 00              adc    HIGH_BYTE #2
       01:B01B  85 FB              sta    HIGH_BYTE <_bx
                                  .endif
  493                               subw  <_cx,$8006      ; adjust ptr to end
       01:B01D  38                 sec
       01:B01E  AD 06 80           lda    LOW_BYTE $8006
       01:B021  E5 FC              sbc    LOW_BYTE <_cx
       01:B023  8D 06 80           sta    LOW_BYTE $8006
       01:B026  AD 07 80           lda    HIGH_BYTE $8006
       01:B029  E5 FD              sbc    HIGH_BYTE <_cx
       01:B02B  8D 07 80           sta    HIGH_BYTE $8006
  494  01:B02E  A5 FB               lda   <_bh
  495  01:B030  A6 FA               ldx   <_bl
  496  01:B032  20 F3 E5            jsr   _memcpy.3
  497  01:B035  20 38 B2            jsr   lib2_bm_disable
  498  01:B038  9C 83 29            stz   _bm_error
  499  01:B03B  82                  clx
  500  01:B03C  62                  cla
  501  01:B03D  18                  clc
  502  01:B03E  60        .out:     rts
  503                     
  504                     
  505                     ; bm_read(char *buf [di], char *name [bx], int offset [bp], int nb)
  506                     ; ---
  507                     ; Given a name of a file, grab some info from the file
  508                     ;
  509                     
  510  01:B03F            lib2_bm_read.4:
  511                             __stw   <_ax
       01:B03F  86 F8              stx    <_ax
       01:B041  85 F9              sta    <_ax+1
  512                               ; -- open file
  513  01:B043  20 8D B1            jsr   lib2_bm_open
  514  01:B046  B0 45               bcs   .x2
  515                               ; -- checksum test
  516  01:B048  20 43 B2            jsr   lib2_bm_checksum
  517  01:B04B  A0 02               ldy   #2
  518  01:B04D  B1 EE               lda   [_si],Y
  519                               add   <_dl
                0000              .if (1 = 2)            ; register A (handle carry
                                  .else
       01:B04F  18                 clc
       01:B050  65 FE              adc    <_dl
                                  .endif
  520  01:B052  85 FE               sta   <_dl
  521  01:B054  C8                  iny
  522  01:B055  B1 EE               lda   [_si],Y
  523  01:B057  65 FF               adc   <_dh
  524  01:B059  05 FE               ora   <_dl
  525  01:B05B  D0 25               bne   .x1
  526                               ; -- setup ptr
  527  01:B05D  20 79 B2            jsr   lib2_bm_setup_ptr
  528  01:B060  B0 14               bcs   .ok
  529                               ; -- read
  530  01:B062  C2                  cly
  531  01:B063  B1 FE     .l1:      lda   [_dx],Y
  532  01:B065  91 F0               sta   [_di],Y
  533  01:B067  C8                  iny
  534  01:B068  D0 04               bne   .l2
  535  01:B06A  E6 FF               inc   <_dx+1
  536  01:B06C  E6 F1               inc   <_di+1
  537  01:B06E  C6 FC     .l2:      dec   <_cl
  538  01:B070  D0 F1               bne   .l1
  539  01:B072  C6 FD               dec   <_ch
  540  01:B074  10 ED               bpl   .l1
  541                               ; -- ok
  542  01:B076  20 38 B2  .ok:      jsr   lib2_bm_disable
  543  01:B079  9C 83 29            stz   _bm_error
  544                             __ldw   <_ax
                0000              .if (1 = 2)
                                  .else
       01:B07C  A6 F8              ldx    <_ax
       01:B07E  A5 F9              lda    <_ax+1
                                  .endif
  545  01:B080  18                  clc
  546  01:B081  60                  rts
  547                               ; -- error, bad file checksum
  548  01:B082  A9 02     .x1:      lda   #2
  549  01:B084  8D 83 29            sta   _bm_error
  550  01:B087  20 38 B2            jsr   lib2_bm_disable
  551  01:B08A  82                  clx
  552  01:B08B  62                  cla
  553  01:B08C  38                  sec
  554  01:B08D  60        .x2:      rts
  555                     
  556                     
  557                     ; bm_write(char *buf [di], char *name [bx], int offset [bp], int nb)
  558                     ; ---
  559                     ; Given the name of a BRAM file, update some info inside of it
  560                     ;
  561                     
  562  01:B08E            lib2_bm_write.4:
  563                             __stw   <_ax
       01:B08E  86 F8              stx    <_ax
       01:B090  85 F9              sta    <_ax+1
  564                               ; -- open file
  565  01:B092  20 8D B1            jsr   lib2_bm_open
  566  01:B095  B0 35               bcs   .x1
  567                               ; -- setup ptr
  568  01:B097  20 79 B2            jsr   lib2_bm_setup_ptr
  569  01:B09A  B0 25               bcs   .ok
  570                               ; -- write data
  571  01:B09C  C2                  cly
  572  01:B09D  B1 F0     .l1:      lda   [_di],Y
  573  01:B09F  91 FE               sta   [_dx],Y
  574  01:B0A1  C8                  iny
  575  01:B0A2  D0 04               bne   .l2
  576  01:B0A4  E6 FF               inc   <_dx+1
  577  01:B0A6  E6 F1               inc   <_di+1
  578  01:B0A8  C6 FC     .l2:      dec   <_cl
  579  01:B0AA  D0 F1               bne   .l1
  580  01:B0AC  C6 FD               dec   <_ch
  581  01:B0AE  10 ED               bpl   .l1
  582                               ; -- update checksum
  583  01:B0B0  20 43 B2            jsr   lib2_bm_checksum
  584  01:B0B3  A0 02               ldy   #2
  585  01:B0B5  62                  cla
  586                               sub   <_dl
                0000              .if (1 = 2)            ; from register A (handle
                                  .else
       01:B0B6  38                 sec
       01:B0B7  E5 FE              sbc    <_dl
                                  .endif
  587  01:B0B9  91 EE               sta   [_si],Y
  588  01:B0BB  C8                  iny
  589  01:B0BC  62                  cla
  590  01:B0BD  E5 FF               sbc   <_dh
  591  01:B0BF  91 EE               sta   [_si],Y
  592                               ; -- ok
  593  01:B0C1  20 38 B2  .ok:      jsr   lib2_bm_disable
  594  01:B0C4  9C 83 29            stz   _bm_error
  595                             __ldw   <_ax
                0000              .if (1 = 2)
                                  .else
       01:B0C7  A6 F8              ldx    <_ax
       01:B0C9  A5 F9              lda    <_ax+1
                                  .endif
  596  01:B0CB  18                  clc
  597  01:B0CC  60        .x1:      rts
  598                     
  599                     
  600                     ; bm_create(char *name [bx], int size)
  601                     ; ---
  602                     ; Create a new BRAM file, given the name and size
  603                     
  604  01:B0CD            lib2_bm_create.2:
  605                             __stw   <_ax
       01:B0CD  86 F8              stx    <_ax
       01:B0CF  85 F9              sta    <_ax+1
  606  01:B0D1  20 10 B2            jsr   lib2_bm_enable
  607  01:B0D4  90 10               bcc   .go
  608  01:B0D6  80 02               bra   .x2
  609                               ; -- error, not enough ram
  610  01:B0D8  A9 05     .x1:      lda   #5
  611                               ; -- error, bram not formated
  612  01:B0DA  8D 83 29  .x2:      sta   _bm_error
  613  01:B0DD  20 38 B2            jsr   lib2_bm_disable
  614  01:B0E0  AE 83 29            ldx   _bm_error
  615  01:B0E3  62                  cla
  616  01:B0E4  38                  sec
  617  01:B0E5  60                  rts
  618                               ; -- check free space
  619                     .go:      addw  #$12,$8006,<_dx
                0001              .if     (3 = 3)
                                   ; 3-arg mode
                                   ;
       01:B0E6  18                 clc
       01:B0E7  AD 06 80           lda    LOW_BYTE $8006
       01:B0EA  69 12              adc    LOW_BYTE #$12
       01:B0EC  85 FE              sta    LOW_BYTE <_dx
       01:B0EE  AD 07 80           lda    HIGH_BYTE $8006
       01:B0F1  69 00              adc    HIGH_BYTE #$12
       01:B0F3  85 FF              sta    HIGH_BYTE <_dx
                                  .else
                                  .endif
  620                               addw  <_ax,<_dx
                0000              .if     (2 = 3)
                                  .else
                                   ; 2-arg mode
                                   ;
       01:B0F5  18                 clc
       01:B0F6  A5 FE              lda    LOW_BYTE <_dx
       01:B0F8  65 F8              adc    LOW_BYTE <_ax
       01:B0FA  85 FE              sta    LOW_BYTE <_dx
       01:B0FC  A5 FF              lda    HIGH_BYTE <_dx
       01:B0FE  65 F9              adc    HIGH_BYTE <_ax
       01:B100  85 FF              sta    HIGH_BYTE <_dx
                                  .endif
  621                               cmpw  <_dx,$8004
       01:B102  AD 05 80           lda    HIGH_BYTE $8004
       01:B105  C5 FF              cmp    HIGH_BYTE <_dx
       01:B107  D0 05              bne    .x_00543
       01:B109  AD 04 80           lda    LOW_BYTE $8004
       01:B10C  C5 FE              cmp    LOW_BYTE <_dx
       01:B10E            .x_00543:
  622                               blo   .x1
       01:B10E  90 C8              bcc    .x1
  623                               ; -- create file
  624                               stw   $8006,<_si
       01:B110  AD 06 80           lda    LOW_BYTE $8006
       01:B113  85 EE              sta    LOW_BYTE <_si
       01:B115  AD 07 80           lda    HIGH_BYTE $8006
       01:B118  85 EF              sta    HIGH_BYTE <_si
  625  01:B11A  A0 01               ldy   #1
  626  01:B11C  A5 F8               lda   <_al
  627                               add   #$10
                0000              .if (1 = 2)            ; register A (handle carry
                                  .else
       01:B11E  18                 clc
       01:B11F  69 10              adc    #$10
                                  .endif
  628  01:B121  92 EE               sta   [_si]
  629  01:B123  A5 F9               lda   <_ah
  630  01:B125  69 00               adc   #$00
  631  01:B127  91 EE               sta   [_si],Y
  632                               ; --
  633  01:B129  AD 06 80            lda   $8006
  634                               add   [_si]
                0000              .if (1 = 2)            ; register A (handle carry
                                  .else
       01:B12C  18                 clc
       01:B12D  72 EE              adc    [_si]
                                  .endif
  635  01:B12F  85 FE               sta   <_dl
  636  01:B131  8D 06 80            sta   $8006
  637  01:B134  AD 07 80            lda   $8007
  638  01:B137  71 EE               adc   [_si],Y
  639  01:B139  85 FF               sta   <_dh
  640  01:B13B  8D 07 80            sta   $8007
  641  01:B13E  62                  cla
  642  01:B13F  92 FE               sta   [_dx]
  643  01:B141  91 FE               sta   [_dx],Y
  644                               ; -- copy name
  645  01:B143  82                  clx
  646  01:B144  A0 04               ldy   #4
  647  01:B146  02        .l1:      sxy
  648  01:B147  B1 FA               lda   [_bx],Y
  649  01:B149  02                  sxy
  650  01:B14A  91 EE               sta   [_si],Y
  651  01:B14C  C8                  iny
  652  01:B14D  E8                  inx
  653  01:B14E  E0 0C               cpx   #12
  654  01:B150  D0 F4               bne   .l1
  655                               ; -- clear file
  656  01:B152  A5 F8               lda   <_al
  657  01:B154  05 F9               ora   <_ah
  658  01:B156  F0 1A               beq   .sum
  659                               stw   <_si,<_bx
       01:B158  A5 EE              lda    LOW_BYTE <_si
       01:B15A  85 FA              sta    LOW_BYTE <_bx
       01:B15C  A5 EF              lda    HIGH_BYTE <_si
       01:B15E  85 FB              sta    HIGH_BYTE <_bx
  660  01:B160  A0 10               ldy   #16
  661  01:B162  62                  cla
  662  01:B163  91 FA     .l2:      sta   [_bx],Y
  663  01:B165  C8                  iny
  664  01:B166  D0 02               bne   .l3
  665  01:B168  E6 FB               inc   <_bh
  666  01:B16A  C6 F8     .l3:      dec   <_al
  667  01:B16C  D0 F5               bne   .l2
  668  01:B16E  C6 F9               dec   <_ah
  669  01:B170  10 F1               bpl   .l2
  670                               ; -- update checksum
  671  01:B172  20 43 B2  .sum:     jsr   lib2_bm_checksum
  672  01:B175  A0 02               ldy   #2
  673  01:B177  62                  cla
  674                               sub   <_dl
                0000              .if (1 = 2)            ; from register A (handle
                                  .else
       01:B178  38                 sec
       01:B179  E5 FE              sbc    <_dl
                                  .endif
  675  01:B17B  91 EE               sta   [_si],Y
  676  01:B17D  C8                  iny
  677  01:B17E  62                  cla
  678  01:B17F  E5 FF               sbc   <_dh
  679  01:B181  91 EE               sta   [_si],Y
  680                               ; -- ok
  681  01:B183  20 38 B2  .ok:      jsr   lib2_bm_disable
  682  01:B186  9C 83 29            stz   _bm_error
  683  01:B189  82                  clx
  684  01:B18A  62                  cla
  685  01:B18B  18                  clc
  686  01:B18C  60                  rts
  687                     
  688                     
  689                     ; bm_open(char *name [bx])
  690                     ; ---
  691                     ; Internal function to obtain access to a named file
  692                     
  693  01:B18D            lib2_bm_open:
  694  01:B18D  20 10 B2            jsr   lib2_bm_enable
  695  01:B190  B0 6E               bcs   .x2
  696                               ; -- get dir entry
  697                               stw   #$8010,<_si
       01:B192  A9 10              lda    LOW_BYTE #$8010
       01:B194  85 EE              sta    LOW_BYTE <_si
       01:B196  A9 80              lda    HIGH_BYTE #$8010
       01:B198  85 EF              sta    HIGH_BYTE <_si
  698  01:B19A  B2 EE     .l1:      lda   [_si]
  699  01:B19C  85 FC               sta   <_cl
  700  01:B19E  A0 01               ldy   #1
  701  01:B1A0  B1 EE               lda   [_si],Y
  702  01:B1A2  85 FD               sta   <_ch
  703  01:B1A4  05 FC               ora   <_cl
  704  01:B1A6  F0 56               beq   .x1
  705                               addw  <_cx,<_si,<_dx
                0001              .if     (3 = 3)
                                   ; 3-arg mode
                                   ;
       01:B1A8  18                 clc
       01:B1A9  A5 EE              lda    LOW_BYTE <_si
       01:B1AB  65 FC              adc    LOW_BYTE <_cx
       01:B1AD  85 FE              sta    LOW_BYTE <_dx
       01:B1AF  A5 EF              lda    HIGH_BYTE <_si
       01:B1B1  65 FD              adc    HIGH_BYTE <_cx
       01:B1B3  85 FF              sta    HIGH_BYTE <_dx
                                  .else
                                  .endif
  706                               cmpw  <_dx,$8004
       01:B1B5  AD 05 80           lda    HIGH_BYTE $8004
       01:B1B8  C5 FF              cmp    HIGH_BYTE <_dx
       01:B1BA  D0 05              bne    .x_00552
       01:B1BC  AD 04 80           lda    LOW_BYTE $8004
       01:B1BF  C5 FE              cmp    LOW_BYTE <_dx
       01:B1C1            .x_00552:
  707                               blo   .x3
       01:B1C1  90 45              bcc    .x3
  708                               cmpw  #16,<_cx
       01:B1C3  A5 FD              lda    HIGH_BYTE <_cx
       01:B1C5  C9 00              cmp    HIGH_BYTE #16
       01:B1C7  D0 04              bne    .x_00554
       01:B1C9  A5 FC              lda    LOW_BYTE <_cx
       01:B1CB  C9 10              cmp    LOW_BYTE #16
       01:B1CD            .x_00554:
  709                               blo   .x3
       01:B1CD  90 39              bcc    .x3
  710                               ; -- compare names
  711  01:B1CF  C2                  cly
  712  01:B1D0  A2 04               ldx   #4
  713  01:B1D2  B1 FA     .l2:      lda   [_bx],Y
  714  01:B1D4  02                  sxy
  715  01:B1D5  D1 EE               cmp   [_si],Y
  716  01:B1D7  D0 16               bne   .next
  717  01:B1D9  02                  sxy
  718  01:B1DA  E8                  inx
  719  01:B1DB  C8                  iny
  720  01:B1DC  C0 0C               cpy   #12
  721                               blo   .l2
       01:B1DE  90 F2              bcc    .l2
  722                               ; -- check file size
  723  01:B1E0  A5 FD               lda   <_ch
  724  01:B1E2  D0 06               bne   .ok
  725  01:B1E4  A5 FC               lda   <_cl
  726  01:B1E6  C9 10               cmp   #16
  727  01:B1E8  F0 22               beq   .x4
  728                               ; -- ok
  729  01:B1EA  9C 83 29  .ok:      stz   _bm_error
  730  01:B1ED  18                  clc
  731  01:B1EE  60                  rts
  732                               ; -- next entry
  733                     .next:    addw  <_cx,<_si
                0000              .if     (2 = 3)
                                  .else
                                   ; 2-arg mode
                                   ;
       01:B1EF  18                 clc
       01:B1F0  A5 EE              lda    LOW_BYTE <_si
       01:B1F2  65 FC              adc    LOW_BYTE <_cx
       01:B1F4  85 EE              sta    LOW_BYTE <_si
       01:B1F6  A5 EF              lda    HIGH_BYTE <_si
       01:B1F8  65 FD              adc    HIGH_BYTE <_cx
       01:B1FA  85 EF              sta    HIGH_BYTE <_si
                                  .endif
  734  01:B1FC  80 9C               bra   .l1
  735                               ; -- error, file not found
  736  01:B1FE  A9 01     .x1:      lda   #1
  737                               ; -- error, bram not formated
  738  01:B200  8D 83 29  .x2:      sta   _bm_error
  739  01:B203  20 38 B2            jsr   lib2_bm_disable
  740  01:B206  38                  sec
  741  01:B207  60                  rts
  742                               ; -- error, directory corrupted
  743  01:B208  A9 03     .x3:      lda   #3
  744  01:B20A  80 F4               bra   .x2
  745                               ; -- error, empty file
  746  01:B20C  A9 04     .x4:      lda   #4
  747  01:B20E  80 F0               bra   .x2
  748                     
  749                     
  750                     ; bm_enable()
  751                     ; ---
  752                     ; Internal function to enable the BRAM area and do a quick check
  753                     
  754  01:B210            lib2_bm_enable:
  755  01:B210  20 27 B2            jsr   lib2_bm_unlock
  756                               ; -- check if formated
  757  01:B213  A2 03               ldx   #3
  758  01:B215  BD 00 80  .l1:      lda   $8000,X
  759  01:B218  DD AC F9            cmp   _bm_id,X
  760  01:B21B  D0 06               bne   .x1
  761  01:B21D  CA                  dex
  762  01:B21E  10 F5               bpl   .l1
  763                               ; -- ok
  764  01:B220  62                  cla
  765  01:B221  18                  clc
  766  01:B222  60                  rts
  767                               ; -- error, not formated!
  768  01:B223  A9 FF     .x1:      lda   #$FF
  769  01:B225  38                  sec
  770  01:B226  60                  rts
  771                     
  772                     
  773                     ; bm_unlock()
  774                     ; ---
  775                     ; This internal function handles only the map/unlock of the BRAM area
  776                     
  777  01:B227            lib2_bm_unlock:
  778  01:B227  78                  sei
  779  01:B228  43 10               tma   #4
  780  01:B22A  8D 82 29            sta   _bm_mpr4
  781  01:B22D  A9 F7               lda   #$F7
  782  01:B22F  53 10               tam   #4
  783  01:B231  54                  csl
  784  01:B232  A9 80               lda   #$80
  785  01:B234  8D 07 18            sta   bram_unlock
  786  01:B237  60                  rts
  787                     
  788                             
  789                     ; bm_disable()
  790                     ; ---
  791                     ; This internal function handles the fixup of BRAM segment/locking
  792                     
  793  01:B238            lib2_bm_disable:
  794  01:B238  AD 82 29            lda   _bm_mpr4
  795  01:B23B  53 10               tam   #4
  796  01:B23D  AD 03 18            lda   bram_lock
  797  01:B240  D4                  csh
  798  01:B241  58                  cli
  799  01:B242  60                  rts
  800                     
  801                     
  802                     ; bm_checksum(char *fcb [si])
  803                     ; ---
  804                     ; Internal function to generate checksum
  805                     ;
  806                     
  807  01:B243            lib2_bm_checksum:
  808                               stwz  <_dx
       01:B243  64 FE              stz    LOW_BYTE <_dx
       01:B245  64 FF              stz    HIGH_BYTE <_dx
  809                               ; -- get file size
  810  01:B247  B2 EE               lda   [_si]
  811                               sub   #4
                0000              .if (1 = 2)            ; from register A (handle
                                  .else
       01:B249  38                 sec
       01:B24A  E9 04              sbc    #4
                                  .endif
  812  01:B24C  85 FC               sta   <_cl
  813  01:B24E  A0 01               ldy   #1
  814  01:B250  B1 EE               lda   [_si],Y
  815  01:B252  E9 00               sbc   #0
  816  01:B254  85 FD               sta   <_ch
  817                               stw   <_si,<_bx
       01:B256  A5 EE              lda    LOW_BYTE <_si
       01:B258  85 FA              sta    LOW_BYTE <_bx
       01:B25A  A5 EF              lda    HIGH_BYTE <_si
       01:B25C  85 FB              sta    HIGH_BYTE <_bx
  818                               ; -- calc checksum
  819  01:B25E  A0 04               ldy   #4
  820  01:B260  B1 FA     .l1:      lda   [_bx],Y
  821                               add   <_dl
                0000              .if (1 = 2)            ; register A (handle carry
                                  .else
       01:B262  18                 clc
       01:B263  65 FE              adc    <_dl
                                  .endif
  822  01:B265  85 FE               sta   <_dl
  823  01:B267  90 02               bcc   .l2
  824  01:B269  E6 FF               inc   <_dh
  825  01:B26B  C8        .l2:      iny
  826  01:B26C  D0 02               bne   .l3
  827  01:B26E  E6 FB               inc   <_bh
  828  01:B270  C6 FC     .l3:      dec   <_cl
  829  01:B272  D0 EC               bne   .l1
  830  01:B274  C6 FD               dec   <_ch
  831  01:B276  10 E8               bpl   .l1
  832  01:B278  60                  rts
  833                     
  834                     
  835                     ; bm_setup_ptr(char *fcb [si], char *buf [di], int offset [bp], int nb [ax])
  836                     ; ---
  837                     
  838  01:B279            lib2_bm_setup_ptr:
  839                               ; -- check length
  840                               tstw  <_ax
       01:B279  A5 F8              lda   <_ax               ; value at stated memory
       01:B27B  05 F9              ora   <_ax+1             ; location is zero
  841  01:B27D  F0 21               beq   .x1
  842                               ; -- check ptr
  843                               tstw  <_di
       01:B27F  A5 F0              lda   <_di               ; value at stated memory
       01:B281  05 F1              ora   <_di+1             ; location is zero
  844  01:B283  F0 1B               beq   .x1
  845                               ; -- check offset
  846                               addw  #16,<_bp,<_bx
                0001              .if     (3 = 3)
                                   ; 3-arg mode
                                   ;
       01:B285  18                 clc
       01:B286  A5 EC              lda    LOW_BYTE <_bp
       01:B288  69 10              adc    LOW_BYTE #16
       01:B28A  85 FA              sta    LOW_BYTE <_bx
       01:B28C  A5 ED              lda    HIGH_BYTE <_bp
       01:B28E  69 00              adc    HIGH_BYTE #16
       01:B290  85 FB              sta    HIGH_BYTE <_bx
                                  .else
                                  .endif
  847  01:B292  A0 01               ldy   #1
  848  01:B294  A5 FB               lda   <_bh
  849  01:B296  D1 EE               cmp   [_si],Y
  850  01:B298  D0 04               bne   .l1
  851  01:B29A  A5 FA               lda   <_bl
  852  01:B29C  D2 EE               cmp   [_si]
  853                     .l1:      blo   .l2
       01:B29E  90 06              bcc    .l2
  854                               ; -- eof
  855                     .x1:      stwz  <_ax
       01:B2A0  64 F8              stz    LOW_BYTE <_ax
       01:B2A2  64 F9              stz    HIGH_BYTE <_ax
  856  01:B2A4  38                  sec
  857  01:B2A5  60                  rts
  858                               ; -- set base ptr
  859                     .l2:      addw  <_bx,<_si,<_dx
                0001              .if     (3 = 3)
                                   ; 3-arg mode
                                   ;
       01:B2A6  18                 clc
       01:B2A7  A5 EE              lda    LOW_BYTE <_si
       01:B2A9  65 FA              adc    LOW_BYTE <_bx
       01:B2AB  85 FE              sta    LOW_BYTE <_dx
       01:B2AD  A5 EF              lda    HIGH_BYTE <_si
       01:B2AF  65 FB              adc    HIGH_BYTE <_bx
       01:B2B1  85 FF              sta    HIGH_BYTE <_dx
                                  .else
                                  .endif
  860                               ; -- check length
  861                               addw  <_ax,<_bx
                0000              .if     (2 = 3)
                                  .else
                                   ; 2-arg mode
                                   ;
       01:B2B3  18                 clc
       01:B2B4  A5 FA              lda    LOW_BYTE <_bx
       01:B2B6  65 F8              adc    LOW_BYTE <_ax
       01:B2B8  85 FA              sta    LOW_BYTE <_bx
       01:B2BA  A5 FB              lda    HIGH_BYTE <_bx
       01:B2BC  65 F9              adc    HIGH_BYTE <_ax
       01:B2BE  85 FB              sta    HIGH_BYTE <_bx
                                  .endif
  862  01:B2C0  B2 EE               lda   [_si]
  863                               sub   <_bl
                0000              .if (1 = 2)            ; from register A (handle
                                  .else
       01:B2C2  38                 sec
       01:B2C3  E5 FA              sbc    <_bl
                                  .endif
  864  01:B2C5  85 FA               sta   <_bl
  865  01:B2C7  B1 EE               lda   [_si],Y
  866  01:B2C9  E5 FB               sbc   <_bh
  867  01:B2CB  85 FB               sta   <_bh
  868  01:B2CD  10 0D               bpl   .ok
  869                               ; -- adjust size
  870                               addw  <_bx,<_ax
                0000              .if     (2 = 3)
                                  .else
                                   ; 2-arg mode
                                   ;
       01:B2CF  18                 clc
       01:B2D0  A5 F8              lda    LOW_BYTE <_ax
       01:B2D2  65 FA              adc    LOW_BYTE <_bx
       01:B2D4  85 F8              sta    LOW_BYTE <_ax
       01:B2D6  A5 F9              lda    HIGH_BYTE <_ax
       01:B2D8  65 FB              adc    HIGH_BYTE <_bx
       01:B2DA  85 F9              sta    HIGH_BYTE <_ax
                                  .endif
  871                     .ok:      stw   <_ax,<_cx
       01:B2DC  A5 F8              lda    LOW_BYTE <_ax
       01:B2DE  85 FC              sta    LOW_BYTE <_cx
       01:B2E0  A5 F9              lda    HIGH_BYTE <_ax
       01:B2E2  85 FD              sta    HIGH_BYTE <_cx
  872  01:B2E4  18                  clc
  873  01:B2E5  60                  rts
  874                     
  875                     ;
  876                     ; restore the context of the library routines
  877                     ; in LIB1_BANK
  878                     ;
  879           0000              .bank   LIB1_BANK
  880                     
#[2]   startup.asm
#[3]   huc_misc.asm
 1220                             .include "huc_misc.asm"
    1                     ;
    2                     ; HUC_MISC.ASM  -  HuC Misc Library
    3                     ;
    4                     
    5                     
    6                     ; joy(char number)
    7                     ; ----
    8                     
    9  00:FA56            _joy:
   10  00:FA56  02                  sxy
   11  00:FA57  BE 28 22            ldx   joy,Y
   12  00:FA5A  B9 93 26            lda   joy6,Y
   13  00:FA5D  60                  rts
   14                     
   15                     ; joytrg(char number)
   16                     ; ----
   17                     
   18  00:FA5E            _joytrg:
   19  00:FA5E  02                  sxy
   20  00:FA5F  BE 2D 22            ldx   joytrg,Y
   21  00:FA62  B9 98 26            lda   joytrg6,Y
   22  00:FA65  60                  rts
   23                     
   24                     ; joyold(char number)
   25                     ; ----
   26                     
   27  00:FA66            _joyold:
   28  00:FA66  02                  sxy
   29  00:FA67  BE 32 22            ldx   joyold,Y
   30  00:FA6A  B9 9D 26            lda   joyold6,Y
   31  00:FA6D  60                  rts
   32                     
   33                     ; joybuf(char number)
   34                     ; ----
   35                     
   36  00:FA6E            _joybuf:
   37  00:FA6E  02                  sxy
   38  00:FA6F  BE 81 26            ldx   joybuf,Y
   39  00:FA72  B9 A2 26            lda   joybuf6,Y
   40  00:FA75  60                  rts
   41                     
   42                     
   43                     ; mouse functions
   44                     ; only available if '#define SUPPORT_MOUSE 1' is used
   45                     ; ----
   46                     
   47           0001              .ifdef SUPPORT_MOUSE
   48                     
   49                     ; mouse_exists() - returns true/false (true = 1)
   50                     ; ----
   51                     
   52  00:FA76            _mouse_exists:
   53  00:FA76  AE 84 29            ldx   msflag
   54  00:FA79  62                  cla
   55  00:FA7A  60                  rts
   56                     
   57                     ; mouse_disable() - turns off mouse support
   58                     ; ----
   59                     
   60  00:FA7B            _mouse_disable:
   61  00:FA7B  62                  cla
   62  00:FA7C  82                  clx
   63  00:FA7D  8D 84 29            sta   msflag
   64  00:FA80  60                  rts
   65                     
   66                     ; mouse_enable() - turns on mouse support, if mouse detected
   67                     ;                - return true/false (true=1) if mouse exists
   68                     ; ----
   69                     
   70  00:FA81            _mouse_enable:
   71  00:FA81  20 A0 FB            jsr   mousinit
   72  00:FA84  22                  sax
   73  00:FA85  62                  cla
   74  00:FA86  60                  rts
   75                     
   76                     ; mouse_x() - returns x/y delta (int)
   77                     ; ----
   78                     
   79  00:FA87            _mouse_x:
   80  00:FA87  AE 86 29            ldx   mshorz
   81  00:FA8A  10 08               bpl   mouspos
   82  00:FA8C  A9 FF     mousneg:  lda   #$ff
   83  00:FA8E  60                  rts
   84                     
   85                     ; mouse_y() - returns y delta (int)
   86                     ; ----
   87                     
   88  00:FA8F            _mouse_y:
   89  00:FA8F  AE 85 29            ldx   msvert
   90  00:FA92  30 F8               bmi   mousneg
   91  00:FA94  62        mouspos:  cla
   92  00:FA95  60                  rts
   93                     
   94                             .endif          ; SUPPORT_MOUSE
   95                     
   96                     
   97                     ; set_joy_callback(char num [dl], char mask [al], char keys [ah], int proc [bl:si])
   98                     ; ----
   99                     
  100  00:FA96            _set_joy_callback.4:
  101  00:FA96  9C 88 26            stz   joycallback
  102  00:FA99  A5 FA               lda   <_bl
  103  00:FA9B  8D 8B 26            sta   joycallback+3
  104                             __ldw   <_si
                0000              .if (1 = 2)
                                  .else
       00:FA9E  A6 EE              ldx    <_si
       00:FAA0  A5 EF              lda    <_si+1
                                  .endif
  105                             __stw   joycallback+4
       00:FAA2  8E 8C 26           stx    joycallback+4
       00:FAA5  8D 8D 26           sta    joycallback+4+1
  106  00:FAA8  05 EE               ora   <_si
  107  00:FAAA  F0 0F               beq   .l1
  108  00:FAAC  A5 F9               lda   <_ah
  109  00:FAAE  8D 8A 26            sta   joycallback+2
  110  00:FAB1  A5 F8               lda   <_al
  111  00:FAB3  8D 89 26            sta   joycallback+1
  112  00:FAB6  A9 80               lda   #$80
  113  00:FAB8  8D 88 26            sta   joycallback
  114  00:FABB  60        .l1:      rts
  115                     
  116                     ; get_joy_events(char num, int rst)
  117                     ; ----
  118                     ; return all the collected joypad events
  119                     ; ----
  120                     
  121  00:FABC            _get_joy_events.2:
  122  00:FABC  A4 F8               ldy   <_al
  123  00:FABE  E0 00               cpx   #0
  124  00:FAC0  D0 06               bne   _get_joy_events.sub
  125  00:FAC2  BE 81 26            ldx   joybuf,Y
  126  00:FAC5  62                  cla
  127  00:FAC6  60                  rts
  128  00:FAC7            _get_joy_events.1:
  129  00:FAC7  02                  sxy
  130  00:FAC8            _get_joy_events.sub:
  131  00:FAC8  BE 81 26            ldx   joybuf,Y
  132  00:FACB  62                  cla
  133  00:FACC  99 81 26            sta   joybuf,Y
  134  00:FACF  60                  rts
  135                     
  136                     ; clear_joy_events(char mask)
  137                     ; ----
  138                     
  139  00:FAD0            _clear_joy_events:
  140  00:FAD0  86 F8               stx   <_al
  141  00:FAD2  C2                  cly
  142  00:FAD3  78                  sei
  143  00:FAD4  46 F8     .l1:      lsr   <_al
  144  00:FAD6  90 15               bcc   .l2
  145  00:FAD8  62                  cla
  146  00:FAD9  99 81 26            sta   joybuf,Y
  147  00:FADC  99 A2 26            sta   joybuf6,Y
  148  00:FADF  99 2D 22            sta   joytrg,Y
  149  00:FAE2  99 98 26            sta   joytrg6,Y
  150  00:FAE5  A9 FF               lda   #$FF
  151  00:FAE7  99 32 22            sta   joyold,Y
  152  00:FAEA  99 9D 26            sta   joyold6,Y
  153  00:FAED  C8        .l2:      iny
  154  00:FAEE  C0 05               cpy   #5
  155                               blo   .l1
       00:FAF0  90 E2              bcc    .l1
  156  00:FAF2  58                  cli
  157  00:FAF3  60                  rts
  158                     
  159                     
  160                     ; clock_hh()
  161                     ; ----
  162  00:FAF4            _clock_hh:
  163  00:FAF4  62                  cla
  164  00:FAF5  AE 8F 26            ldx   clock_hh
  165  00:FAF8  60                  rts
  166                     
  167                     ; clock_mm()
  168                     ; ----
  169  00:FAF9            _clock_mm:
  170  00:FAF9  62                  cla
  171  00:FAFA  AE 90 26            ldx   clock_mm
  172  00:FAFD  60                  rts
  173                     
  174                     ; clock_ss()
  175                     ; ----
  176  00:FAFE            _clock_ss:
  177  00:FAFE  62                  cla
  178  00:FAFF  AE 91 26            ldx   clock_ss
  179  00:FB02  60                  rts
  180                     
  181                     ; clock_tt()
  182                     ; ----
  183  00:FB03            _clock_tt:
  184  00:FB03  62                  cla
  185  00:FB04  AE 92 26            ldx   clock_tt
  186  00:FB07  60                  rts
  187                     
  188                     ; clock_reset()
  189                     ; ----
  190  00:FB08            _clock_reset:
  191  00:FB08  9C 8F 26            stz   clock_hh
  192  00:FB0B  9C 90 26            stz   clock_mm
  193  00:FB0E  9C 91 26            stz   clock_ss
  194  00:FB11  9C 92 26            stz   clock_tt
  195  00:FB14  60                  rts
  196                     
  197                     
  198                     ; poke(int offset bx, char val)
  199                     ; ----
  200                     
  201  00:FB15            _poke.2:
  202  00:FB15  8A                  txa
  203  00:FB16  92 FA               sta   [_bx]
  204  00:FB18  60                  rts
  205                     
  206                     ; poke/pokew(int offset bx, int val)
  207                     ; ----
  208                     
  209  00:FB19            _pokew.2:
  210  00:FB19  22                  sax
  211  00:FB1A  92 FA               sta   [_bx]
  212  00:FB1C  A0 01               ldy   #1
  213  00:FB1E  22                  sax
  214  00:FB1F  91 FA               sta   [_bx],Y
  215  00:FB21  60                  rts
  216                     
  217                     ; peek(int offset)
  218                     ; ----
  219                     
  220  00:FB22            _peek:
  221                             __stw   <__ptr
       00:FB22  86 0B              stx    <__ptr
       00:FB24  85 0C              sta    <__ptr+1
  222  00:FB26  B2 0B               lda   [__ptr]
  223  00:FB28  AA                  tax
  224  00:FB29  62                  cla
  225  00:FB2A  60                  rts
  226                     
  227                     ; peekw(int offset)
  228                     ; ----
  229                     
  230  00:FB2B            _peekw:
  231                             __stw   <__ptr
       00:FB2B  86 0B              stx    <__ptr
       00:FB2D  85 0C              sta    <__ptr+1
  232  00:FB2F  B2 0B               lda   [__ptr]
  233  00:FB31  AA                  tax
  234  00:FB32  A0 01               ldy   #1
  235  00:FB34  B1 0B               lda   [__ptr],Y
  236  00:FB36  60                  rts
  237                     
  238                     ; farpeekb(far void *base)
  239                     ; ----
  240                     
  241  00:FB37            _farpeekb.1:
  242  00:FB37  A5 0D               lda   <__fbank
  243  00:FB39  53 08               tam   #3
  244  00:FB3B  A5 0F               lda   <__fptr+1
  245  00:FB3D  29 1F               and   #$1F
  246  00:FB3F  09 60               ora   #$60
  247  00:FB41  85 0F               sta   <__fptr+1
  248  00:FB43  B2 0E               lda   [__fptr]
  249  00:FB45  AA                  tax
  250  00:FB46  62                  cla
  251  00:FB47  60                  rts
  252                     
  253                     ; farpeekw(far void *base)
  254                     ; ----
  255                     
  256  00:FB48            _farpeekw.1:
  257  00:FB48  A5 0D               lda   <__fbank
  258  00:FB4A  53 08               tam   #3
  259  00:FB4C  A5 0F               lda   <__fptr+1
  260  00:FB4E  29 1F               and   #$1F
  261  00:FB50  09 60               ora   #$60
  262  00:FB52  85 0F               sta   <__fptr+1
  263  00:FB54  80 09               bra   _farpeekw.sub
  264  00:FB56            _farpeekw.fast:
  265  00:FB56  53 08               tam   #3
  266  00:FB58  8A                  txa
  267  00:FB59  29 1F               and   #$1F
  268  00:FB5B  09 60               ora   #$60
  269  00:FB5D  85 0F               sta   <__fptr+1
  270  00:FB5F            _farpeekw.sub:
  271  00:FB5F  B2 0E               lda   [__fptr]
  272  00:FB61  AA                  tax
  273  00:FB62  E6 0E               inc   <__fptr
  274  00:FB64  90 08               bcc   .l1
  275  00:FB66  E6 0F               inc   <__fptr+1
  276  00:FB68  10 04               bpl   .l1
  277  00:FB6A  A9 60               lda   #$60
  278  00:FB6C  85 0F               sta   <__fptr+1
  279  00:FB6E            .l1:
  280  00:FB6E  B2 0E               lda   [__fptr]
  281  00:FB70  60                  rts
  282                     
  283                     ; farmemget(void *dst, far void *base, int len)
  284                     ; ----
  285                     
  286  00:FB71            _farmemget.3:
  287                               maplibfunc    lib2_farmemget.3
       00:FB71  A8                 tay
       00:FB72  43 20              tma  #page(lib2_farmemget.3)
       00:FB74  48                 pha
       00:FB75  A9 01              lda  #bank(lib2_farmemget.3)
       00:FB77  53 20              tam  #page(lib2_farmemget.3)
       00:FB79  98                 tya
       00:FB7A  20 E6 B2           jsr  lib2_farmemget.3
       00:FB7D  A8                 tay
       00:FB7E  68                 pla
       00:FB7F  53 20              tam  #page(lib2_farmemget.3)
       00:FB81  98                 tya
  288  00:FB82  60                  rts
  289                     
  290                     ; The following function was too large to stay
  291                     ; in LIB1_BANK, so it is placed in LIB2_BANK
  292                     ; and must be mapped in and out when used.
  293                     
  294                     ; Code after this routine should be back in LIB1_BANK
  295                     
  296           0001               .bank  LIB2_BANK
  297                     
  298  01:B2E6            lib2_farmemget.3:
  299                     
  300                             __stw   <_cx
       01:B2E6  86 FC              stx    <_cx
       01:B2E8  85 FD              sta    <_cx+1
  301  01:B2EA  A5 0D               lda   <__fbank
  302  01:B2EC  53 08               tam   #3
  303                     
  304                         ; ----
  305                         ; split transfer if needed
  306                         ;
  307                               ; -- clip length (max. 8KB)
  308                               cmpw  #$2000,<_cx
       01:B2EE  A5 FD              lda    HIGH_BYTE <_cx
       01:B2F0  C9 20              cmp    HIGH_BYTE #$2000
       01:B2F2  D0 04              bne    .x_00579
       01:B2F4  A5 FC              lda    LOW_BYTE <_cx
       01:B2F6  C9 00              cmp    LOW_BYTE #$2000
       01:B2F8            .x_00579:
  309                               blo   .t1
       01:B2F8  90 08              bcc    .t1
  310                               stw   #$2000,<_cx
       01:B2FA  A9 00              lda    LOW_BYTE #$2000
       01:B2FC  85 FC              sta    LOW_BYTE <_cx
       01:B2FE  A9 20              lda    HIGH_BYTE #$2000
       01:B300  85 FD              sta    HIGH_BYTE <_cx
  311                               ; -- check length
  312  01:B302  A5 0E     .t1:      lda   <__fptr
  313                               add   <_cl
                0000              .if (1 = 2)            ; register A (handle carry
                                  .else
       01:B304  18                 clc
       01:B305  65 FC              adc    <_cl
                                  .endif
  314  01:B307  85 F8               sta   <_al
  315  01:B309  A5 0F               lda   <__fptr+1
  316  01:B30B  29 1F               and   #$1F
  317  01:B30D  65 FD               adc   <_ch
  318  01:B30F  85 F9               sta   <_ah
  319  01:B311  C9 20               cmp   #$20
  320                               blo   .t2
       01:B313  90 15              bcc    .t2
  321                               ; -- calculate second-half size
  322  01:B315  29 1F               and   #$1F
  323  01:B317  85 FF               sta   <_dh
  324  01:B319  A5 F8               lda   <_al
  325  01:B31B  85 FE               sta   <_dl
  326                               subw  <_dx,<_cx
       01:B31D  38                 sec
       01:B31E  A5 FC              lda    LOW_BYTE <_cx
       01:B320  E5 FE              sbc    LOW_BYTE <_dx
       01:B322  85 FC              sta    LOW_BYTE <_cx
       01:B324  A5 FD              lda    HIGH_BYTE <_cx
       01:B326  E5 FF              sbc    HIGH_BYTE <_dx
       01:B328  85 FD              sta    HIGH_BYTE <_cx
  327                               ; -- remap src ptr
  328  01:B32A  A5 0F     .t2:      lda   <__fptr+1
  329  01:B32C  29 1F               and   #$1F
  330  01:B32E  09 60               ora   #$60
  331  01:B330  85 0F               sta   <__fptr+1
  332                     
  333                         ; ----
  334                         ; copy a block
  335                         ;
  336  01:B332  82                  clx
  337  01:B333  C2                  cly
  338  01:B334  C6 FD               dec   <_ch
  339  01:B336  30 1C               bmi   .l4
  340                               ; -- main loop
  341  01:B338  B1 0E     .l1:      lda   [__fptr],Y
  342  01:B33A  91 FA               sta   [_bx],Y
  343  01:B33C  C8                  iny
  344  01:B33D  CA                  dex
  345  01:B33E  D0 F8               bne   .l1
  346                               ; -- inc dst ptr
  347  01:B340  C0 00               cpy   #0
  348  01:B342  F0 08               beq   .l2
  349  01:B344  98                  tya
  350                               add   <_bl
                0000              .if (1 = 2)            ; register A (handle carry
                                  .else
       01:B345  18                 clc
       01:B346  65 FA              adc    <_bl
                                  .endif
  351  01:B348  85 FA               sta   <_bl
  352  01:B34A  90 02               bcc   .l3
  353  01:B34C  E6 FB     .l2:      inc   <_bh
  354                               ; -- inc src ptr
  355  01:B34E  E6 0F     .l3:      inc   <__fptr+1
  356                               ; -- next chunk
  357  01:B350  C6 FD               dec   <_ch
  358  01:B352  10 E4               bpl   .l1
  359  01:B354  A6 FC     .l4:      ldx   <_cl
  360  01:B356  64 FC               stz   <_cl
  361  01:B358  D0 DE               bne   .l1
  362                     
  363                         ; ----
  364                         ; second half
  365                         ;
  366                               tstw  <_dx
       01:B35A  A5 FE              lda   <_dx               ; value at stated memory
       01:B35C  05 FF              ora   <_dx+1             ; location is zero
  367  01:B35E  F0 17               beq   .l5
  368                               ; -- reload dst and cnt
  369                               stw   <_dx,<_cx
       01:B360  A5 FE              lda    LOW_BYTE <_dx
       01:B362  85 FC              sta    LOW_BYTE <_cx
       01:B364  A5 FF              lda    HIGH_BYTE <_dx
       01:B366  85 FD              sta    HIGH_BYTE <_cx
  370                               stw   #$6000,<__fptr
       01:B368  A9 00              lda    LOW_BYTE #$6000
       01:B36A  85 0E              sta    LOW_BYTE <__fptr
       01:B36C  A9 60              lda    HIGH_BYTE #$6000
       01:B36E  85 0F              sta    HIGH_BYTE <__fptr
  371                               ; -- inc bank
  372  01:B370  43 08               tma   #3
  373  01:B372  1A                  inc   A
  374  01:B373  53 08               tam   #3
  375  01:B375  80 C1               bra   .l1
  376                     
  377                         ; ----
  378                         ; exit
  379                         ;
  380  01:B377  60        .l5:      rts
  381                     
  382                     ; The preceding function was too large to stay
  383                     ; in LIB1_BANK, so it is placed in LIB2_BANK
  384                     ; and must be mapped in and out when used.
  385                     
  386                     ; Code after this routine should be back in LIB1_BANK
  387                     
  388           0000               .bank  LIB1_BANK
  389                     
  390                     
  391                     ; srand(int seed)
  392                     ; srand32.2(int seed1 [dx], int seed2 [cx])
  393                     ; ---------------
  394                     ; set the seed number for the psuedo-random number generator
  395                     
  396  00:FB83            _srand:
  397                             __stw   <_dx
       00:FB83  86 FE              stx    <_dx
       00:FB85  85 FF              sta    <_dx+1
  398                             __stw   <_cx
       00:FB87  86 FC              stx    <_cx
       00:FB89  85 FD              sta    <_cx+1
  399                     
  400  00:FB8B            _srand32.2:
  401  00:FB8B  20 7B E7            jsr   srand
  402  00:FB8E  60                  rts
  403                     
  404                     ; rand()
  405                     ; ----
  406                     ; get a 16-bit random number
  407                     
  408  00:FB8F            _rand:
  409  00:FB8F  20 A1 E7            jsr   rand
  410                             __ldw   <_dx
                0000              .if (1 = 2)
                                  .else
       00:FB92  A6 FE              ldx    <_dx
       00:FB94  A5 FF              lda    <_dx+1
                                  .endif
  411  00:FB96  60                  rts
  412                     
  413                     
  414                     ; random(char limit)
  415                     ; --- 
  416                     ; get a random number where 0 <= n < limit
  417                     ; (and limit < 128)
  418                     
  419  00:FB97            _random:
  420  00:FB97  22                  sax
  421  00:FB98  29 7F               and   #$7f
  422  00:FB9A  20 18 E8            jsr   random
  423  00:FB9D  22                  sax
  424  00:FB9E  62                  cla
  425  00:FB9F  60                  rts
  426                     
#[2]   startup.asm
 1221                            .endif   ; HUC
 1222                     
 1223           0001             .ifdef SUPPORT_MOUSE
#[3]   mouse.asm
 1224                             .include "mouse.asm"
    1                     ;- The mouse is read 4 successive times, in order to assemble the mouse data
    2                     ;(horiz most-significant-nybble/horiz LSN/vert MSN/vert LSN).
    3                     ;- values are deltas, and reading the mouse every VSYNC is normal
    4                     ;- For vertical movement, up is positive, down is negative
    5                     ;- For horizontal movement, left is positive, right is negative
    6                     ;- I was not able to yield a delta value greater than 0x25 (hexadecimal)
    7                     ;during a 1-VSYNC interval  (I didn't try all *that* hard though).  This
    8                     ;should give you an idea of the sensitivity.
    9                     
   10                     ;
   11                     ;  PCE mouse driver source
   12                     ;
   13                     
   14           2984              .bss
   15  --:2984            msflag: .ds 1
   16  --:2985            msvert: .ds 1
   17  --:2986            mshorz: .ds 1
   18                     
   19           FBA0              .code
   20                     
   21                     ;
   22                     ; These stub interfaces are available from LIB1_BANK
   23                     ; But the real guts are in LIB2_BANK
   24                     ;
   25  00:FBA0            mousinit:
   26                             maplibfunc      lib2_mousinit
       00:FBA0  A8                 tay
       00:FBA1  43 20              tma  #page(lib2_mousinit)
       00:FBA3  48                 pha
       00:FBA4  A9 01              lda  #bank(lib2_mousinit)
       00:FBA6  53 20              tam  #page(lib2_mousinit)
       00:FBA8  98                 tya
       00:FBA9  20 78 B3           jsr  lib2_mousinit
       00:FBAC  A8                 tay
       00:FBAD  68                 pla
       00:FBAE  53 20              tam  #page(lib2_mousinit)
       00:FBB0  98                 tya
   27  00:FBB1  60                rts
   28                     
   29  00:FBB2            mousread:
   30                             maplibfunc      lib2_mousread
       00:FBB2  A8                 tay
       00:FBB3  43 20              tma  #page(lib2_mousread)
       00:FBB5  48                 pha
       00:FBB6  A9 01              lda  #bank(lib2_mousread)
       00:FBB8  53 20              tam  #page(lib2_mousread)
       00:FBBA  98                 tya
       00:FBBB  20 07 B4           jsr  lib2_mousread
       00:FBBE  A8                 tay
       00:FBBF  68                 pla
       00:FBC0  53 20              tam  #page(lib2_mousread)
       00:FBC2  98                 tya
   31  00:FBC3  60                rts
   32                     
   33                     
   34                     ;
   35                     ; These functions are available in bank 2 of the
   36                     ; library:
   37                     ;
   38           0001              .bank   LIB2_BANK
   39                     
   40                     ;
   41                     ; detect and initialize the mouse
   42                     ;
   43  01:B378            lib2_mousinit:
   44  01:B378  A9 20             lda   #$20      ; reset resource-usage flag
   45  01:B37A  04 F5             tsb   <irq_m    ; to skip joystick read portion of vsync
   46                     
   47  01:B37C  9C 28 22          stz   joy       ; clear joypad memory area
   48  01:B37F  73 28 22          tii   joy, joy+1, $4
       01:B382  29 22 04  
       01:B385  00        
   49                     
   50  01:B386  9C 2D 22          stz   joytrg    ; clear joypad memory area
   51  01:B389  73 2D 22          tii   joytrg, joytrg+1, $4
       01:B38C  2E 22 04  
       01:B38F  00        
   52                     
   53  01:B390  9C 32 22          stz   joyold    ; clear joypad memory area
   54  01:B393  73 32 22          tii   joyold, joyold+1, $4
       01:B396  33 22 04  
       01:B399  00        
   55                     
   56  01:B39A  9C 81 26          stz   joybuf    ; clear joypad memory area
   57  01:B39D  73 81 26          tii   joybuf, joybuf+1, $4
       01:B3A0  82 26 04  
       01:B3A3  00        
   58                     
   59  01:B3A4  9C 93 26          stz   joy6      ; clear joypad memory area
   60  01:B3A7  73 93 26          tii   joy6, joy6+1, $4
       01:B3AA  94 26 04  
       01:B3AD  00        
   61                     
   62  01:B3AE  9C 98 26          stz   joytrg6   ; clear joypad memory area
   63  01:B3B1  73 98 26          tii   joytrg6, joytrg6+1, $4
       01:B3B4  99 26 04  
       01:B3B7  00        
   64                     
   65  01:B3B8  9C 9D 26          stz   joyold6   ; clear joypad memory area
   66  01:B3BB  73 9D 26          tii   joyold6, joyold6+1, $4
       01:B3BE  9E 26 04  
       01:B3C1  00        
   67                     
   68  01:B3C2  9C A2 26          stz   joybuf6   ; clear joypad memory area
   69  01:B3C5  73 A2 26          tii   joybuf6, joybuf6+1, $4
       01:B3C8  A3 26 04  
       01:B3CB  00        
   70                     
   71  01:B3CC  9C 85 29          stz   msvert
   72  01:B3CF  9C 86 29          stz   mshorz
   73  01:B3D2  9C 84 29          stz   msflag
   74                     
   75  01:B3D5  62                cla             ; counter of 'good' reads (where vertical == 0)
   76  01:B3D6  A2 0A             ldx   #$0A      ; try 10 iterations
   77  01:B3D8  48        .loop1: pha
   78  01:B3D9  DA                phx
   79  01:B3DA  A9 01             lda   #1
   80                     ;       jsr   wait_vsync        ; wait for 1 vsync frame
   81  01:B3DC  20 07 B4          jsr   lib2_mousread     ; read mouse
   82  01:B3DF  FA                plx
   83  01:B3E0  68                pla
   84  01:B3E1  AC 85 29          ldy   msvert    ; read mouse vertical axis movement
   85  01:B3E4  D0 01             bne   .l1       ; if (val == 0), inc counter
   86  01:B3E6  1A                inc   a
   87  01:B3E7  CA        .l1:    dex
   88  01:B3E8  D0 EE             bne   .loop1    ; next iteration
   89                     
   90  01:B3EA  C9 00             cmp   #$00      ; if #$00 value found even once (out of 10 times)
   91  01:B3EC  D0 0F             bne   .mous     ; then return(1)
   92                     
   93  01:B3EE  A9 20             lda   #$20      ; reset #$20 bit of $F5
   94  01:B3F0  14 F5             trb   <irq_m
   95  01:B3F2  62                cla             ; bad return code
   96  01:B3F3  8D 84 29          sta   msflag
   97  01:B3F6  9C 85 29          stz   msvert
   98  01:B3F9  9C 86 29          stz   mshorz
   99  01:B3FC  60                rts
  100                     
  101  01:B3FD            .mous:
  102  01:B3FD  A9 20             lda   #$20      ; reset #$20 bit of $F5
  103  01:B3FF  14 F5             trb   <irq_m
  104  01:B401  A9 01             lda   #$01      ; good return code
  105  01:B403  8D 84 29          sta   msflag
  106  01:B406  60                rts
  107                     
  108                     ;
  109                     ; actual mechanics of reading mouse
  110                     ;
  111  01:B407            lib2_mousread:
  112  01:B407  A2 04             ldx   #$04      ; # iterations (actually 5)
  113  01:B409  BD 28 22  .loop1: lda   joy,X     ; copy 'current' value to 'previous' value
  114  01:B40C  9D 32 22          sta   joyold,X
  115  01:B40F  CA                dex
  116  01:B410  10 F7             bpl  .loop1
  117                     
  118  01:B412  9C 28 22          stz   joy       ; initialize joypad #1's value
  119                     
  120  01:B415  A9 01             lda   #$01      ; reset joypad port# to joystick #1
  121  01:B417  8D 00 10          sta   joyport
  122  01:B41A  A9 03             lda   #$03
  123  01:B41C  8D 00 10          sta   joyport
  124  01:B41F  A9 01             lda   #$01
  125  01:B421  8D 00 10          sta   joyport
  126                     
  127  01:B424  20 9C B4          jsr   delay240  ; delay 240 CPU cycles
  128                     
  129  01:B427  AD 00 10          lda   joyport   ; read joystick port
  130  01:B42A  0A                asl   a ; upper nybble of 8-bit value - shift it
  131  01:B42B  0A                asl   a
  132  01:B42C  0A                asl   a
  133  01:B42D  0A                asl   a
  134  01:B42E  8D 86 29          sta   mshorz    ; store it
  135  01:B431  20 A9 B4          jsr   msbutt    ; read buttons (toggle port/read other nybble)
  136                     
  137  01:B434  A9 01             lda   #$01      ; reset joystick port again (to stick #1)
  138  01:B436  8D 00 10          sta   joyport
  139  01:B439  A9 03             lda   #$03
  140  01:B43B  8D 00 10          sta   joyport
  141  01:B43E  A9 01             lda   #$01
  142  01:B440  8D 00 10          sta   joyport
  143                     
  144  01:B443  20 A8 B4          jsr   delay14   ; wait 14 cycles to settle (reference code says 9)
  145                     
  146  01:B446  AD 00 10          lda   joyport   ; read port
  147  01:B449  29 0F             and   #$0F      ; lower nybble of 8-bit value
  148  01:B44B  0C 86 29          tsb   mshorz    ; 'or' it into memory
  149  01:B44E  44 59             bsr   msbutt    ; read buttons (toggle port/read other nybble)
  150                     
  151  01:B450  A9 01             lda   #$01      ; reset joystick port again
  152  01:B452  8D 00 10          sta   joyport
  153  01:B455  A9 03             lda   #$03
  154  01:B457  8D 00 10          sta   joyport
  155  01:B45A  A9 01             lda   #$01
  156  01:B45C  8D 00 10          sta   joyport
  157                     
  158  01:B45F  20 A8 B4          jsr   delay14   ; wait 14 cycles to settle (reference code says 9)
  159                     
  160  01:B462  AD 00 10          lda   joyport   ; read port
  161  01:B465  0A                asl   a ; upper nybble of 8-bit value - shift it
  162  01:B466  0A                asl   a
  163  01:B467  0A                asl   a
  164  01:B468  0A                asl   a
  165  01:B469  8D 85 29          sta   msvert
  166  01:B46C  44 3B             bsr   msbutt    ; read buttons (toggle port/read other nybble)
  167                     
  168  01:B46E  A9 01             lda   #$01      ; reset joystick port again
  169  01:B470  8D 00 10          sta   joyport
  170  01:B473  A9 03             lda   #$03
  171  01:B475  8D 00 10          sta   joyport
  172  01:B478  A9 01             lda   #$01
  173  01:B47A  8D 00 10          sta   joyport
  174                     
  175  01:B47D  20 A8 B4          jsr   delay14   ; wait 14 cycles to settle (reference code says 9)
  176                     
  177  01:B480  AD 00 10          lda   joyport   ; read port
  178  01:B483  29 0F             and   #$0F      ; lower nybble of 8-bit value
  179  01:B485  0C 85 29          tsb   msvert    ; 'or' it into value
  180  01:B488  44 1F             bsr   msbutt    ; read buttons (toggle port/read other nybble)
  181                     
  182  01:B48A  AD 2D 22          lda   joytrg    ; check joystick buttons
  183  01:B48D  C9 04             cmp   #$04      ; is 'select' newly-pressed ?
  184  01:B48F  D0 0A             bne  .exit
  185  01:B491  AD 28 22          lda   joy       ; if so, are both run & select pressed ?
  186  01:B494  C9 0C             cmp   #$0C
  187  01:B496  D0 03             bne  .exit
  188  01:B498  6C 84 22          jmp   [soft_reset]      ; if yes, reboot
  189  01:B49B  60        .exit:  rts             ; else return
  190                     
  191  01:B49C            delay240:
  192  01:B49C  48                pha             ; delay loop for 240 processor cycles
  193  01:B49D  DA                phx             ; (including call/return overhead)
  194  01:B49E  62                cla
  195  01:B49F  EA                nop
  196  01:B4A0  EA        .lp:    nop
  197  01:B4A1  1A                inc     a
  198  01:B4A2  C9 15             cmp     #21
  199  01:B4A4  90 FA             bcc     .lp
  200  01:B4A6  FA                plx
  201  01:B4A7  68                pla
  202  01:B4A8            delay14:
  203  01:B4A8  60                rts
  204                     
  205  01:B4A9            msbutt:
  206  01:B4A9  9C 00 10          stz   joyport   ; toggle joystick port to read buttons
  207                     
  208  01:B4AC  20 A8 B4          jsr   delay14   ; wait 14 cycles to settle (reference code says 9)
  209                     
  210  01:B4AF  AD 00 10          lda   joyport   ; read value
  211  01:B4B2  49 FF             eor   #$FF      ; change low-active to high-active
  212  01:B4B4  29 0F             and   #$0F      ; only 4 bits
  213  01:B4B6  0C 28 22          tsb   joy       ; 'or' it into value
  214                     
  215  01:B4B9  0D 32 22          ora   joyold    ; determine 'newly-pressed' buttons
  216  01:B4BC  4D 32 22          eor   joyold
  217  01:B4BF  8D 2D 22          sta   joytrg    ; put them into 'delta'
  218  01:B4C2  60                rts
  219                     
  220           0000              .bank   LIB1_BANK       ; restore bank-context
  221                     
  222                     
#[2]   startup.asm
 1225                            .endif   ; SUPPORT_MOUSE
 1226                     
 1227           0000             .if (CDROM)
 1229                            .else
#[3]   sound.asm
 1230                             .include "sound.asm"
    1                     ; SOUND.ASM
    2                     ; ---------
    3                     ;
    4                     ; A PSG driver which is compatible with the "track data"
    5                     ; and other bytecodes as used by the CDROM System Card
    6                     ;
    7                     
    8                     
    9  00:FBC4  DA        psg_bios:       phx
   10  00:FBC5  5A                        phy
   11  00:FBC6  43 40                     tma     #PAGE(psg_on)
   12  00:FBC8  48                        pha
   13  00:FBC9  A9 02                     lda     #BANK(psg_on)
   14  00:FBCB  53 40                     tam     #PAGE(psg_on)
   15  00:FBCD  A5 FF                     lda     <_dh
   16  00:FBCF  0A                        asl     A
   17  00:FBD0  AA                        tax
   18  00:FBD1  20 DC FB                  jsr     .indir_jmp
   19  00:FBD4  AA                        tax
   20  00:FBD5  68                        pla
   21  00:FBD6  53 40                     tam     #PAGE(psg_on)
   22  00:FBD8  8A                        txa
   23  00:FBD9  7A                        ply
   24  00:FBDA  FA                        plx
   25  00:FBDB  60                        rts
   26  00:FBDC  7C DF FB  .indir_jmp:     jmp     [.functbl,X]
   27                     
   28  00:FBDF  00 C0     .functbl:       .dw     psg_on          ; psg_on       (00)
   29  00:FBE1  0D C0                     .dw     psg_off         ; psg_off      (01)
   30  00:FBE3  17 C0                     .dw     psg_init        ; psg_init     (02)
   31  00:FBE5  64 C0                     .dw     psg_bank        ; psg_bank     (03)
   32  00:FBE7  6F C0                     .dw     psg_track       ; psg_track    (04)
   33  00:FBE9  7A C0                     .dw     psg_wave        ; psg_wave     (05)
   34  00:FBEB  85 C0                     .dw     psg_env         ; psg_env      (06)
   35  00:FBED  90 C0                     .dw     psg_fm          ; psg_fm       (07)
   36  00:FBEF  9B C0                     .dw     psg_pe          ; psg_pe       (08)
   37  00:FBF1  A6 C0                     .dw     psg_pc          ; psg_pc       (09)
   38  00:FBF3  B1 C0                     .dw     psg_settempo    ; psg_settempo (0a)
   39  00:FBF5  C1 C0                     .dw     psg_play        ; psg_play     (0b)
   40  00:FBF7  C9 C0                     .dw     psg_mstat       ; psg_mstat    (0c)
   41  00:FBF9  DB C0                     .dw     psg_sstat       ; psg_sstat    (0d)
   42  00:FBFB  ED C0                     .dw     psg_mstop       ; psg_mstop    (0e)
   43  00:FBFD  2B C1                     .dw     psg_sstop       ; psg_sstop    (0f)
   44  00:FBFF  7B C1                     .dw     psg_astop       ; psg_astop    (10)
   45  00:FC01  94 C1                     .dw     psg_mvoff       ; psg_mvoff    (11)
   46  00:FC03  BC C1                     .dw     psg_cont        ; psg_cont     (12)
   47  00:FC05  F9 C1                     .dw     psg_fdout       ; psg_fdout    (13)
   48  00:FC07  0A C2                     .dw     psg_dcnt        ; psg_dcnt     (14)
   49                     
   50                     ;
   51                     ; Origin is at $C000.
   52                     ;
   53                     ; This is normally occupied by "START_BANK" when the program
   54                     ; is destined for CDROM, but should be OK for HuCard-only
   55                     ; development (note: PSG player exists in system card when
   56                     ; developing for CDROM)
   57                     ;
   58                     
   59           0002              .bank   PSG_BANK,"PSG Driver"
   60           C000              .org    $C000
   61                     
   62                     
   63                     ; ----
   64                     ; PSG_ON
   65                     ; ----
   66                     ; CDROM version takes a parameter in _al
   67                     ; 0=TIMER, 1=VSYNC
   68                     ;
   69                     ; This version will only support TIMER interrupt
   70                     ;
   71  02:C000            psg_on:
   72  02:C000  FF E7 04          bbs7    <psg_inhibit,.noturnoff
   73  02:C003  44 08             bsr     psg_off
   74  02:C005  F7 E7             smb7    <psg_inhibit
   75  02:C007            .noturnoff:
   76  02:C007  A9 01             lda     #1
   77  02:C009  8D 01 0C          sta     timer_ctrl
   78  02:C00C  60                rts
   79                     
   80                     
   81                     ; ----
   82                     ; PSG_OFF
   83                     ; ----
   84                     ;
   85                     ; turn off PSG
   86                     ; - all sound
   87                     ; - interrupt service (if TIMER)
   88                     ;
   89  02:C00D            psg_off:
   90  02:C00D  FF E7 03          bbs7    <psg_inhibit,.nostop
   91  02:C010  20 7B C1          jsr     psg_astop
   92  02:C013            .nostop:
   93  02:C013  9C 01 0C          stz     timer_ctrl
   94  02:C016  60                rts
   95                     
   96                     
   97                     ; ----
   98                     ; PSG_INIT
   99                     ; ----
  100                     ;
  101                     ; Initialize PSG.  CDROM version has a parameter:
  102                     ; 0=main track only; 60Hz
  103                     ; 1=sub track only; 60Hz
  104                     ; 2=both tracks; 60Hz
  105                     ; 3=both tracks; 120Hz
  106                     ; 4=both tracks; 240Hz
  107                     ; 5=both tracks; 300Hz
  108                     ;
  109                     ; This version only supports "both channels/60Hz" for now
  110                     ;
  111  02:C017            psg_init:
  112                     
  113                     ; initialize some IRQ stuff & zero values
  114                     
  115  02:C017  9C D0 22          stz     psg_tempo       ; clear header info
  116  02:C01A  73 D0 22          tii     psg_tempo, psg_tempo+1, 19
       02:C01D  D1 22 13  
       02:C020  00        
  117                     
  118                     ;       stz     psg_trkptr_l    ; clear per-track info
  119                     ;       tii     psg_trkptr_l,psg_trkptr_l+1,????
  120                     
  121  02:C021  64 E6             stz     <psg_irqflag
  122  02:C023  64 E8             stz     <psg_tmpptr
  123  02:C025  64 E9             stz     <psg_tmpptr+1
  124  02:C027  64 EA             stz     <psg_tmpptr1
  125  02:C029  64 EB             stz     <psg_tmpptr1+1
  126                     
  127  02:C02B  F7 E7             smb7    <psg_inhibit
  128                     
  129                     ;
  130                     ; reset hardware
  131                     ;
  132  02:C02D  A2 05             ldx     #5
  133  02:C02F  A9 40             lda     #PSG_DDA
  134  02:C031  8E DE 22  .loop1: stx     psg_ch_value    ; $0800 register value
  135  02:C034  8E 00 08          stx     psg_ch          ; set channel
  136  02:C037  8D 04 08          sta     psg_ctrl        ; reset channel
  137  02:C03A  9C 04 08          stz     psg_ctrl        ; reset wave buffer
  138  02:C03D  D3 C3 C4          tin     psg_waveforms,psg_wavebuf,$0020 ; simple squarewave
       02:C040  06 08 20  
       02:C043  00        
  139  02:C044  CA                dex
  140  02:C045  10 EA             bpl     .loop1
  141                     
  142  02:C047  A9 FF             lda     #$ff            ; set global hardware values
  143  02:C049  8D 01 08          sta     psg_mainvol
  144                     
  145  02:C04C  A9 01             lda     #$01
  146  02:C04E  8D 08 08          sta     psg_lfofreq
  147  02:C051  9C 09 08          stz     psg_lfoctrl
  148                     
  149                     ;
  150                     ; set some basic default values
  151                     ;
  152  02:C054  A9 80             lda     #$80
  153  02:C056  8D E0 22          sta     psg_song
  154                     
  155  02:C059  A9 C0             lda     #(PSG_MAINPAUSE | PSG_SUBPAUSE)
  156  02:C05B  8D DD 22          sta     psg_trkctrl
  157                     
  158  02:C05E  A9 26             lda     #$26            ; is this right ?
  159  02:C060  20 B1 C0          jsr     psg_settempo
  160                     
  161  02:C063  60                rts
  162                     
  163                     
  164                     ; ----
  165                     ; PSG_BANK
  166                     ; ----
  167                     
  168  02:C064            psg_bank:
  169                           __ldw     <_ax
                0000              .if (1 = 2)
                                  .else
       02:C064  A6 F8              ldx    <_ax
       02:C066  A5 F9              lda    <_ax+1
                                  .endif
  170                           __stw     psg_bank1
       02:C068  8E E1 22           stx    psg_bank1
       02:C06B  8D E2 22           sta    psg_bank1+1
  171  02:C06E  60                rts
  172                     
  173                     
  174                     ; ----
  175                     ; PSG_TRACK
  176                     ; ----
  177                     
  178  02:C06F            psg_track:
  179                           __ldw     <_ax
                0000              .if (1 = 2)
                                  .else
       02:C06F  A6 F8              ldx    <_ax
       02:C071  A5 F9              lda    <_ax+1
                                  .endif
  180                           __stw     psg_trkhdr
       02:C073  8E D1 22           stx    psg_trkhdr
       02:C076  8D D2 22           sta    psg_trkhdr+1
  181  02:C079  60                rts
  182                     
  183                     
  184                     ; ----
  185                     ; PSG_WAVE
  186                     ; ----
  187                     
  188  02:C07A            psg_wave:
  189                           __ldw     <_ax
                0000              .if (1 = 2)
                                  .else
       02:C07A  A6 F8              ldx    <_ax
       02:C07C  A5 F9              lda    <_ax+1
                                  .endif
  190                           __stw     psg_wavehdr
       02:C07E  8E D3 22           stx    psg_wavehdr
       02:C081  8D D4 22           sta    psg_wavehdr+1
  191  02:C084  60                rts
  192                     
  193                     
  194                     ; ----
  195                     ; PSG_ENV
  196                     ; ----
  197                     
  198  02:C085            psg_env:
  199                           __ldw     <_ax
                0000              .if (1 = 2)
                                  .else
       02:C085  A6 F8              ldx    <_ax
       02:C087  A5 F9              lda    <_ax+1
                                  .endif
  200                           __stw     psg_envhdr
       02:C089  8E D5 22           stx    psg_envhdr
       02:C08C  8D D6 22           sta    psg_envhdr+1
  201  02:C08F  60                rts
  202                     
  203                     
  204                     ; ----
  205                     ; PSG_FM
  206                     ; ----
  207                     
  208  02:C090            psg_fm:
  209                           __ldw     <_ax
                0000              .if (1 = 2)
                                  .else
       02:C090  A6 F8              ldx    <_ax
       02:C092  A5 F9              lda    <_ax+1
                                  .endif
  210                           __stw     psg_fmhdr
       02:C094  8E D9 22           stx    psg_fmhdr
       02:C097  8D DA 22           sta    psg_fmhdr+1
  211  02:C09A  60                rts
  212                     
  213                     
  214                     ; ----
  215                     ; PSG_PE
  216                     ; ----
  217                     
  218  02:C09B            psg_pe:
  219                           __ldw     <_ax
                0000              .if (1 = 2)
                                  .else
       02:C09B  A6 F8              ldx    <_ax
       02:C09D  A5 F9              lda    <_ax+1
                                  .endif
  220                           __stw     psg_pehdr
       02:C09F  8E DB 22           stx    psg_pehdr
       02:C0A2  8D DC 22           sta    psg_pehdr+1
  221  02:C0A5  60                rts
  222                     
  223                     
  224                     ; ----
  225                     ; PSG_PC
  226                     ; ----
  227                     
  228  02:C0A6            psg_pc:
  229                           __ldw     <_ax
                0000              .if (1 = 2)
                                  .else
       02:C0A6  A6 F8              ldx    <_ax
       02:C0A8  A5 F9              lda    <_ax+1
                                  .endif
  230                           __stw     psg_percusshdr
       02:C0AA  8E D7 22           stx    psg_percusshdr
       02:C0AD  8D D8 22           sta    psg_percusshdr+1
  231  02:C0B0  60                rts
  232                     
  233                     
  234                     ; ----
  235                     ; PSG_SETTEMPO
  236                     ; ----
  237                     
  238  02:C0B1            psg_settempo:
  239  02:C0B1  A5 F8             lda     <_al
  240                             sub     #$23
                0000              .if (1 = 2)            ; from register A (handle
                                  .else
       02:C0B3  38                 sec
       02:C0B4  E9 23              sbc    #$23
                                  .endif
  241  02:C0B6  10 01             bpl     .okvalue
  242  02:C0B8  62                cla
  243  02:C0B9            .okvalue:
  244  02:C0B9  AA                tax
  245  02:C0BA  BD 13 CB          lda     psg_tempotbl,X
  246  02:C0BD  8D D0 22          sta     psg_tempo
  247  02:C0C0  60                rts
  248                     
  249                     
  250                     ; ----
  251                     ; PSG_PLAY
  252                     ;
  253                     ; play song # in track list (_al = song #)
  254                     ; ----
  255                     
  256  02:C0C1            psg_play:
  257  02:C0C1  A5 F8             lda     <_al
  258  02:C0C3  8D E0 22          sta     psg_song
  259  02:C0C6  77 E7             rmb7    <psg_inhibit
  260  02:C0C8  60                rts
  261                     
  262                     
  263                     ; ----
  264                     ; PSG_MSTAT
  265                     ;
  266                     ; return bitmask of voices in use for main track
  267                     ; ----
  268                     
  269  02:C0C9            psg_mstat:
  270  02:C0C9  A0 05             ldy     #5
  271  02:C0CB  62                cla
  272                     
  273  02:C0CC  BE E3 22  .loop:  ldx     psg_voicectrl,Y
  274  02:C0CF  F0 04             beq     .empty
  275  02:C0D1  38                sec
  276  02:C0D2  2A                rol     A
  277  02:C0D3  80 02             bra     .next
  278  02:C0D5  18        .empty: clc
  279  02:C0D6  2A                rol     A
  280  02:C0D7  88        .next:  dey
  281  02:C0D8  10 F2             bpl     .loop
  282  02:C0DA  60                rts
  283                     
  284                     
  285                     ; ----
  286                     ; PSG_SSTAT
  287                     ;
  288                     ; return bitmask of voices in use for sub track
  289                     ; ----
  290                     
  291  02:C0DB            psg_sstat:
  292  02:C0DB  A0 05             ldy     #5
  293  02:C0DD  62                cla
  294                     
  295  02:C0DE  BE E9 22  .loop:  ldx     psg_voicectrl+6,Y
  296  02:C0E1  F0 04             beq     .empty
  297  02:C0E3  38                sec
  298  02:C0E4  2A                rol     A
  299  02:C0E5  80 02             bra     .next
  300  02:C0E7  18        .empty: clc
  301  02:C0E8  2A                rol     A
  302  02:C0E9  88        .next:  dey
  303  02:C0EA  10 F2             bpl     .loop
  304  02:C0EC  60                rts
  305                     
  306                     
  307                     ; ----
  308                     ; PSG_MSTOP
  309                     ;
  310                     ; Stop voices in main track, as described in bitmask (in _al)
  311                     ; ----
  312                     
  313  02:C0ED            psg_mstop:
  314  02:C0ED  A5 F8             lda     <_al
  315  02:C0EF  10 07             bpl     .nopause
  316                     
  317  02:C0F1  A9 80             lda     #PSG_MAINPAUSE  ; set pause on MAIN track
  318  02:C0F3  0C DD 22          tsb     psg_trkctrl
  319                     
  320  02:C0F6  A5 F8             lda     <_al
  321                     
  322  02:C0F8            .nopause:
  323  02:C0F8  A8                tay
  324  02:C0F9  82                clx
  325                     
  326  02:C0FA  BD E3 22  .loop:  lda     psg_voicectrl,X
  327  02:C0FD  F0 19             beq     .nextvoice
  328  02:C0FF  98                tya
  329  02:C100  30 06             bmi     .pause          ; is it a 'pause' for voice ?
  330                     
  331  02:C102  4A                lsr     A               ; no, it is a 'stop'
  332  02:C103  90 13             bcc     .nextvoice      ; this voice not in mask; skip it
  333                     
  334  02:C105  9E E3 22          stz     psg_voicectrl,X
  335                     
  336  02:C108  BD E9 22  .pause: lda     psg_voicectrl+6,X       ; check subtrack
  337  02:C10B  C9 01             cmp     #1
  338  02:C10D  F0 09             beq     .nextvoice
  339                     
  340  02:C10F  8E DE 22          stx     psg_ch_value
  341  02:C112  8E 00 08          stx     psg_ch
  342  02:C115  9C 04 08          stz     psg_ctrl
  343                     
  344  02:C118            .nextvoice:
  345  02:C118  E8                inx
  346  02:C119  E0 06             cpx     #6
  347  02:C11B  B0 0D             bcs     .out
  348  02:C11D  98                tya
  349  02:C11E  30 04             bmi     .pause2
  350                             
  351  02:C120  4A                lsr     A
  352  02:C121  A8                tay
  353  02:C122  80 D6             bra     .loop
  354                     
  355  02:C124            .pause2:
  356  02:C124  4A                lsr     A
  357  02:C125  09 80             ora     #$80            ; retain high-bit set
  358  02:C127  A8                tay
  359  02:C128  80 D0             bra     .loop
  360                     
  361  02:C12A  60        .out:   rts
  362                     
  363                     
  364                     ; ----
  365                     ; PSG_SSTOP
  366                     ;
  367                     ; Stop voices in sub track, as described in bitmask (in _al)
  368                     ; ----
  369                     
  370  02:C12B            psg_sstop:
  371  02:C12B  A5 F8             lda     <_al
  372  02:C12D  10 07             bpl     .nopause
  373                     
  374  02:C12F  A9 40             lda     #PSG_SUBPAUSE   ; set pause on SUB track
  375  02:C131  0C DD 22          tsb     psg_trkctrl
  376                     
  377  02:C134  A5 F8             lda     <_al
  378                     
  379  02:C136            .nopause:
  380  02:C136  A8                tay
  381  02:C137  82                clx
  382                     
  383  02:C138  BD E9 22  .loop:  lda     psg_voicectrl+6,X
  384  02:C13B  F0 2B             beq     .nextvoice
  385  02:C13D  98                tya
  386  02:C13E  30 08             bmi     .pause          ; is it a 'pause' ?
  387                     
  388  02:C140  4A                lsr     A               ; no, it is a 'stop'
  389  02:C141  90 25             bcc     .nextvoice      ; voice not in mask; skip it
  390                     
  391  02:C143  9E E9 22          stz     psg_voicectrl+6,X
  392  02:C146  80 05             bra     .pause1
  393  02:C148            .pause:
  394  02:C148  A9 FF             lda     #$ff            ; pause control
  395  02:C14A  9D E9 22          sta     psg_voicectrl+6,X
  396                     
  397  02:C14D            .pause1:
  398  02:C14D  BD E3 22          lda     psg_voicectrl,X
  399  02:C150  F0 08             beq     .skipwave
  400                     
  401  02:C152  BD DD 25          lda     psg_wavenum,X
  402  02:C155  29 80             and     #$80
  403  02:C157  9D DD 25          sta     psg_wavenum,X
  404                     
  405  02:C15A            .skipwave:
  406  02:C15A  AD DD 22          lda     psg_trkctrl     ; is anything playing on main track ?
  407  02:C15D  10 09             bpl     .nextvoice      ; yes... so don't stop it
  408                     
  409  02:C15F  8E DE 22          stx     psg_ch_value
  410  02:C162  8E 00 08          stx     psg_ch
  411  02:C165  9C 04 08          stz     psg_ctrl
  412                     
  413  02:C168            .nextvoice:
  414  02:C168  E8                inx
  415  02:C169  E0 06             cpx     #6
  416  02:C16B  B0 0D             bcs     .out
  417  02:C16D  98                tya
  418  02:C16E  30 04             bmi     .pause2
  419                             
  420  02:C170  4A                lsr     A
  421  02:C171  A8                tay
  422  02:C172  80 C4             bra     .loop
  423                     
  424  02:C174            .pause2:
  425  02:C174  4A                lsr     A
  426  02:C175  09 80             ora     #$80
  427  02:C177  A8                tay
  428  02:C178  80 BE             bra     .loop
  429                     
  430  02:C17A  60        .out:   rts
  431                     
  432                     
  433                     ; ----
  434                     ; PSG_ASTOP
  435                     ;
  436                     ; Stop all voices
  437                     ; ----
  438                     
  439  02:C17B            psg_astop:
  440  02:C17B  F7 E7             smb7    <psg_inhibit
  441                     
  442  02:C17D  A9 C0             lda     #(PSG_MAINPAUSE | PSG_SUBPAUSE)
  443  02:C17F  8D DD 22          sta     psg_trkctrl
  444                     
  445  02:C182  A2 05             ldx     #5
  446  02:C184  9E E3 22  .loop:  stz     psg_voicectrl,X         ; disable main track
  447  02:C187  9E E9 22          stz     psg_voicectrl+6,X       ; disable sub track
  448  02:C18A  8E 00 08          stx     psg_ch
  449  02:C18D  9C 04 08          stz     psg_ctrl                ; disable voice
  450  02:C190  CA                dex
  451  02:C191  10 F1             bpl     .loop
  452                     
  453  02:C193  60                rts
  454                     
  455                     ; ----
  456                     ; PSG_MVOFF
  457                     ;
  458                     ; Main volume off for voices specified in bitmask (in _al)
  459                     ; ----
  460                     
  461  02:C194            psg_mvoff:
  462  02:C194  A5 F8             lda     <_al
  463  02:C196  82                clx
  464                     
  465  02:C197  4A        .loop:  lsr     A
  466  02:C198  90 1C             bcc     .skip
  467                     
  468  02:C19A  BC E3 22          ldy     psg_voicectrl,X
  469  02:C19D  F0 17             beq     .skip
  470                     
  471  02:C19F  48                pha
  472  02:C1A0  A9 FF             lda     #$ff            ; turn off sound on voice
  473  02:C1A2  9D E3 22          sta     psg_voicectrl,X
  474  02:C1A5  68                pla
  475                     
  476  02:C1A6  BC E9 22          ldy     psg_voicectrl+6,X
  477  02:C1A9  C0 01             cpy     #1
  478  02:C1AB  F0 09             beq     .skip
  479                     
  480  02:C1AD  8E DE 22          stx     psg_ch_value    ; turn off voice
  481  02:C1B0  8E 00 08          stx     psg_ch
  482  02:C1B3  9C 04 08          stz     psg_ctrl
  483                     
  484  02:C1B6  E8        .skip:  inx
  485  02:C1B7  E0 06             cpx     #6
  486  02:C1B9  90 DC             bcc     .loop
  487                     
  488  02:C1BB  60                rts
  489                     
  490                     
  491                     ; ----
  492                     ; PSG_CONT
  493                     ;
  494                     ; "continue"
  495                     ; ----
  496                     ;
  497                     ; parameter:
  498                     ; 0 = main track
  499                     ; 1 = sub track
  500                     ; 2 = both
  501                     ;
  502  02:C1BC            psg_cont:
  503  02:C1BC  A5 F8             lda     <_al
  504  02:C1BE  C9 01             cmp     #1
  505  02:C1C0  F0 14             beq     .sub
  506                     
  507  02:C1C2  A2 05             ldx     #5
  508  02:C1C4  BD E3 22  .loop:  lda     psg_voicectrl,X
  509  02:C1C7  F0 05             beq     .next                   ; skip if disabled
  510                     
  511  02:C1C9  A9 01             lda     #1                      ; restart voice
  512  02:C1CB  9D E3 22          sta     psg_voicectrl,X
  513                     
  514  02:C1CE  CA        .next:  dex
  515  02:C1CF  10 F3             bpl     .loop
  516                     
  517  02:C1D1  A9 80             lda     #PSG_MAINPAUSE          ; release pause on main tracks
  518  02:C1D3  1C DD 22          trb     psg_trkctrl
  519                     
  520  02:C1D6  A5 F8     .sub:   lda     <_al
  521  02:C1D8  F0 1C             beq     .end
  522                     
  523  02:C1DA  A2 05             ldx     #5
  524  02:C1DC  BD E9 22  .loop1: lda     psg_voicectrl+6,X
  525  02:C1DF  F0 0D             beq     .next1                  ; skip if disabled
  526                     
  527  02:C1E1  A9 01             lda     #1                      ; restart voice
  528  02:C1E3  9D E9 22          sta     psg_voicectrl+6,X
  529                     
  530  02:C1E6  BD DD 25          lda     psg_wavenum,X
  531  02:C1E9  29 80             and     #$80                    ; force re-download of waveform
  532  02:C1EB  9D DD 25          sta     psg_wavenum,X
  533                     
  534  02:C1EE  CA        .next1: dex
  535  02:C1EF  10 EB             bpl     .loop1
  536                     
  537  02:C1F1  A9 40             lda     #PSG_SUBPAUSE           ; release pause on sub tracks
  538  02:C1F3  1C DD 22          trb     psg_trkctrl
  539                     
  540  02:C1F6  77 E7     .end:   rmb7    <psg_inhibit            ; remove pause on irq processing
  541  02:C1F8  60                rts
  542                     
  543                     
  544                     ; ----
  545                     ; PSG_FDOUT
  546                     ; ----
  547                     
  548  02:C1F9            psg_fdout:
  549  02:C1F9  A5 F8             lda     <_al
  550  02:C1FB  10 03             bpl     .positive
  551                     
  552  02:C1FD  49 FF             eor     #$ff            ; get absolute value from negative
  553  02:C1FF  1A                inc     A
  554                     
  555  02:C200            .positive:
  556  02:C200  8D 01 26          sta     psg_fadespeed   ; store it as fade speed
  557  02:C203  9C 03 26          stz     psg_fadecount   ; reset fade levels
  558  02:C206  9C 05 26          stz     psg_fadevolcut
  559                     
  560  02:C209  60                rts
  561                     
  562                     
  563                     ; ----
  564                     ; PSG_DCNT
  565                     ;
  566                     ;  set delay counter - sets an up-counter to use if interrupt
  567                     ;  frequency is >60Hz, and this will act as a frequency divider
  568                     ;  (by ignoring interrupts until up-counter value is hit)
  569                     ;
  570                     ;  Not used in this implementation of PSG driver
  571                     ; ----
  572                     
  573  02:C20A            psg_dcnt:
  574  02:C20A  60                rts
  575                     
  576                     
  577                     ; ----
  578                     ; psg_drive - driver for MAIN tracks
  579                     ; ----
  580                     
  581  02:C20B            psg_drive:
  582  02:C20B  AD E0 22          lda     psg_song
  583  02:C20E  30 03             bmi     .skipsong
  584                     
  585  02:C210  20 59 C2          jsr     psg_initsong
  586                     
  587  02:C213            .skipsong:
  588  02:C213  A9 0B             lda     #11
  589  02:C215  8D DF 22          sta     psg_currvoice
  590                     
  591  02:C218  AE DF 22  .loop:  ldx     psg_currvoice
  592  02:C21B  E0 06             cpx     #6
  593  02:C21D  90 09             bcc     .chkmain
  594                     
  595  02:C21F            .chksub:        
  596  02:C21F  AD DD 22          lda     psg_trkctrl
  597  02:C222  29 40             and     #PSG_SUBPAUSE
  598  02:C224  D0 0F             bne     .next
  599  02:C226  80 05             bra     .dovoice
  600                     
  601  02:C228            .chkmain:
  602  02:C228  AD DD 22          lda     psg_trkctrl
  603  02:C22B  30 08             bmi     .next
  604                     
  605  02:C22D            .dovoice:
  606  02:C22D  BD E3 22          lda     psg_voicectrl,X
  607  02:C230  F0 03             beq     .next
  608                     
  609  02:C232  20 20 C3          jsr     psg_drivevoice
  610                     
  611  02:C235  CE DF 22  .next:  dec     psg_currvoice
  612  02:C238  10 DE             bpl     .loop
  613                             
  614                     ; now loop is done...
  615                     ; so now we look at general items
  616                     
  617  02:C23A  20 1E C3          jsr     psg_dofade
  618  02:C23D  20 1F C3          jsr     psg_dodata2hdwr
  619                     
  620  02:C240  20 C9 C0          jsr     psg_mstat
  621  02:C243  C9 00             cmp     #$00
  622  02:C245  D0 05             bne     .mainok
  623                     
  624  02:C247  A9 80             lda     #PSG_MAINPAUSE
  625  02:C249  0C DD 22          tsb     psg_trkctrl
  626                     
  627  02:C24C            .mainok:
  628  02:C24C  20 DB C0          jsr     psg_sstat
  629  02:C24F  C9 00             cmp     #$00
  630  02:C251  D0 05             bne     .subok
  631                     
  632  02:C253  A9 40             lda     #PSG_SUBPAUSE
  633  02:C255  0C DD 22          tsb     psg_trkctrl
  634                     
  635  02:C258            .subok:
  636  02:C258  60                rts
  637                     
  638                     
  639                     ; ----
  640                     ; psg_initsong - initialize stuff for playing song
  641                     ; ----
  642                     
  643                     ; ???? MAY NOT BE COMPLETE
  644                     
  645  02:C259            psg_initsong:
  646  02:C259  AD E0 22          lda     psg_song
  647                     
  648  02:C25C  0A                asl     A               ; make index for 16-bit data
  649  02:C25D  A8                tay
  650                     
  651                           __ldw     psg_trkhdr
                0000              .if (1 = 2)
                                  .else
       02:C25E  AE D1 22           ldx    psg_trkhdr
       02:C261  AD D2 22           lda    psg_trkhdr+1
                                  .endif
  652                     
  653                           __stw     <psg_tmpptr1
       02:C264  86 EA              stx    <psg_tmpptr1
       02:C266  85 EB              sta    <psg_tmpptr1+1
  654  02:C268  B1 EA             lda     [psg_tmpptr1],Y
  655  02:C26A  85 E8             sta     <psg_tmpptr
  656  02:C26C  C8                iny
  657  02:C26D  B1 EA             lda     [psg_tmpptr1],Y
  658  02:C26F  85 E9             sta     <psg_tmpptr+1
  659                     
  660  02:C271  B2 E8             lda     [psg_tmpptr]
  661  02:C273  85 EA             sta     <psg_tmpptr1
  662  02:C275  85 EB             sta     <psg_tmpptr1+1
  663                     
  664  02:C277  30 03             bmi     .subtrack       ; starting voice = 0 (main), 6 (sub)
  665  02:C279  82                clx
  666  02:C27A  80 02             bra     .processmask
  667  02:C27C            .subtrack:
  668  02:C27C  A2 06             ldx     #6
  669                     
  670  02:C27E            .processmask:
  671  02:C27E  C2                cly
  672  02:C27F  4E EB 20          lsr     psg_tmpptr1+1
  673                             lbcc    .nextvoice
       02:C282  B0 03              bcs    .x_00611
       02:C284  4C F7 C2           jmp    .nextvoice
       02:C287            .x_00611
  674                     
  675  02:C287  A9 01             lda     #1
  676  02:C289  9D E3 22          sta     psg_voicectrl,X
  677  02:C28C  9D 1F 23          sta     psg_cntdown,X
  678  02:C28F  9E F5 25          stz     psg_strikephase,X
  679  02:C292  9E 73 23          stz     psg_transpose,X
  680  02:C295  9E 95 25          stz     psg_mode,X
  681  02:C298  9E A1 25          stz     psg_stkoff,X
  682  02:C29B  9E 87 24          stz     psg_detune,X
  683  02:C29E  9E 7F 23          stz     psg_duratnmult,X
  684  02:C2A1  9E 27 24          stz     psg_fmcorrect,X
  685  02:C2A4  9E 33 24          stz     psg_fmdelay,X
  686  02:C2A7  9E 3F 24          stz     psg_fmdelcntdn,X
  687  02:C2AA  9E 6F 24          stz     psg_pedelay,X
  688  02:C2AD  9E 7B 24          stz     psg_pedelcntdn,X
  689  02:C2B0  9E 93 24          stz     psg_volchg,X
  690  02:C2B3  9E 9F 24          stz     psg_volchgaccum,X
  691  02:C2B6  9E AB 24          stz     psg_panpotchg,X
  692  02:C2B9  9E B7 24          stz     psg_panpotaccum,X
  693                     
  694  02:C2BC  A9 04             lda     #4
  695  02:C2BE  9D 2B 23          sta     psg_octave,X
  696  02:C2C1  A9 08             lda     #8
  697  02:C2C3  9D 5B 23          sta     psg_keyonratio,X
  698  02:C2C6  9D 67 23          sta     psg_keycntdown,X
  699  02:C2C9  A9 1F             lda     #$1f
  700  02:C2CB  9D 4F 23          sta     psg_perchvol,X
  701                     
  702  02:C2CE  AD D5 CC          lda     psg_envtbl      ; set to basic envelope
  703  02:C2D1  9D 8B 23          sta     psg_envptr_l,X
  704  02:C2D4  AD D6 CC          lda     psg_envtbl+1
  705  02:C2D7  9D 97 23          sta     psg_envptr_h,X
  706  02:C2DA  9E A3 23          stz     psg_envptr_off,X
  707  02:C2DD  A9 84             lda     #$84            ; set default level to $8400
  708  02:C2DF  9E EB 23          stz     psg_envrels_l,X
  709  02:C2E2  9D F7 23          sta     psg_envrels_h,X
  710                     
  711  02:C2E5  C8                iny
  712  02:C2E6  B1 E8             lda     [psg_tmpptr],Y  ; put voice address into correct voice
  713  02:C2E8  9D EF 22          sta     psg_trkptr_l,X
  714  02:C2EB  9D 07 23          sta     psg_savepoint_l,X
  715  02:C2EE  C8                iny
  716  02:C2EF  B1 E8             lda     [psg_tmpptr],Y
  717  02:C2F1  9D FB 22          sta     psg_trkptr_h,X
  718  02:C2F4  9D 13 23          sta     psg_savepoint_h,X
  719                     
  720  02:C2F7            .nextvoice:
  721  02:C2F7  E8                inx
  722  02:C2F8  A5 EA             lda     <psg_tmpptr1
  723  02:C2FA  30 09             bmi     .nextsub
  724                     
  725  02:C2FC            .nextmain:
  726  02:C2FC  E0 06             cpx     #6
  727                             lbcc    .processmask
       02:C2FE  B0 03              bcs    .x_00612
       02:C300  4C 7E C2           jmp    .processmask
       02:C303            .x_00612
  728  02:C303  80 07             bra     .endloop
  729                             
  730  02:C305            .nextsub:
  731  02:C305  E0 0C             cpx     #12
  732                             lbcc    .processmask
       02:C307  B0 03              bcs    .x_00613
       02:C309  4C 7E C2           jmp    .processmask
       02:C30C            .x_00613
  733                     
  734  02:C30C            .endloop:
  735  02:C30C  9C 01 26          stz     psg_fadespeed
  736  02:C30F  9C 03 26          stz     psg_fadecount
  737  02:C312  9C 05 26          stz     psg_fadevolcut
  738                     
  739  02:C315  AD E0 22          lda     psg_song
  740  02:C318  09 80             ora     #$80
  741  02:C31A  8D E0 22          sta     psg_song
  742                     
  743  02:C31D  60                rts
  744                     
  745                     
  746                     ; ----
  747                     ; psg_dofade
  748                     ; ----
  749                     
  750                     ; ???? MAY NOT BE COMPLETE
  751                     
  752  02:C31E            psg_dofade:
  753  02:C31E  60                rts
  754                     
  755                     
  756                     ; ----
  757                     ; psg_dodata2hdwr
  758                     ; ----
  759                     
  760                     ; ???? MAY NOT BE COMPLETE
  761                     
  762  02:C31F            psg_dodata2hdwr:
  763  02:C31F  60                rts
  764                     
  765                     
  766                     ; ----
  767                     ; psg_drivevoice - driver for individual voice
  768                     ; ----
  769                     
  770  02:C320            psg_drivevoice:
  771  02:C320  20 30 C3          jsr     psg_dobytecodes ; process track bytecodes
  772  02:C323  20 BF C4          jsr     psg_doreladjust ; adjust relative volume/pan
  773  02:C326  20 C0 C4          jsr     psg_dopercuss
  774  02:C329  20 C1 C4          jsr     psg_doenvelope
  775  02:C32C  20 C2 C4          jsr     psg_dofreqstuff
  776  02:C32F  60                rts
  777                     
  778                     
  779                     ; ----
  780                     ; psg_dobytecodes
  781                     ; ----
  782                     
  783                     ; ???? MAY NOT BE COMPLETE
  784                     
  785  02:C330            psg_dobytecodes:
  786  02:C330  DE 1F 23          dec     psg_cntdown,X   ; is last note done yet ?
  787  02:C333  F0 01             beq     .next
  788  02:C335  60                rts
  789                     
  790  02:C336  BD EF 22  .next:  lda     psg_trkptr_l,X  ; get pointer
  791  02:C339  85 E8             sta     <psg_tmpptr
  792  02:C33B  BD FB 22          lda     psg_trkptr_h,X
  793  02:C33E  85 E8             sta     <psg_tmpptr
  794                     
  795  02:C340  B2 E8             lda     [psg_tmpptr]    ; read next bytecode
  796                             incw    <psg_tmpptr     ; increment
       02:C342  E6 E8              inc    <psg_tmpptr              ; value at stated memory
       02:C344  D0 02              bne    .x_00614           ; location
       02:C346  E6 E9              inc    <psg_tmpptr+1
       02:C348            .x_00614:
  797                     
  798  02:C348  C9 D0             cmp     #$D0            ; if <$d0, it's a tone
  799  02:C34A  90 0F             bcc     psg_dotone
  800                     
  801  02:C34C  02                sxy                     ; use Y as voice index now
  802  02:C34D  AA                tax                     ; save byte
  803                             
  804                             sub     #$D0    ; table starts with bytecode $D0
                0000              .if (1 = 2)            ; from register A (handle
                                  .else
       02:C34E  38                 sec
       02:C34F  E9 D0              sbc    #$D0
                                  .endif
  805  02:C351  0A                asl     A       ; 2 bytes per entry
  806  02:C352  22                sax             ; X = index; A = byte value
  807                     
  808  02:C353  44 03             bsr     .tablejump
  809  02:C355  44 07             bsr     psg_trkptr_replace
  810  02:C357  60                rts
  811                     
  812  02:C358            .tablejump:
  813  02:C358  7C 74 C3          jmp     [psg_bytefunctbl,X]
  814                     
  815                     
  816  02:C35B            psg_dotone:
  817                     
  818  02:C35B  44 01             bsr     psg_trkptr_replace
  819  02:C35D  60                rts
  820                     
  821  02:C35E            psg_trkptr_replace:
  822  02:C35E  AE DF 22          ldx     psg_currvoice
  823  02:C361  A5 E8             lda     <psg_tmpptr
  824  02:C363  9D EF 22          sta     psg_trkptr_l,X
  825  02:C366  A5 E9             lda     <psg_tmpptr+1
  826  02:C368  9D FB 22          sta     psg_trkptr_h,X
  827  02:C36B  60                rts
  828                     
  829  02:C36C            psg_octavetbl:
  830  02:C36C  00                .db     0
  831  02:C36D  18                .db     (12*2*1)
  832  02:C36E  30                .db     (12*2*2)
  833  02:C36F  48                .db     (12*2*3)
  834  02:C370  60                .db     (12*2*4)
  835  02:C371  78                .db     (12*2*5)
  836  02:C372  90                .db     (12*2*6)
  837  02:C373  A8                .db     (12*2*7)
  838                     
  839  02:C374            psg_bytefunctbl:
  840  02:C374  DB C3             .dw     psgf_timebase   ; d0
  841  02:C376  E5 C3             .dw     psgf_octave     ; d1
  842  02:C378  E5 C3             .dw     psgf_octave     ; d2
  843  02:C37A  E5 C3             .dw     psgf_octave     ; d3
  844  02:C37C  E5 C3             .dw     psgf_octave     ; d4
  845  02:C37E  E5 C3             .dw     psgf_octave     ; d5
  846  02:C380  E5 C3             .dw     psgf_octave     ; d6
  847  02:C382  E5 C3             .dw     psgf_octave     ; d7
  848  02:C384  EB C3             .dw     psgf_octup      ; d8
  849  02:C386  F2 C3             .dw     psgf_octdown    ; d9
  850  02:C388  F9 C3             .dw     psgf_tie        ; da
  851  02:C38A  FF C3             .dw     psgf_tempo      ; db
  852  02:C38C  11 C4             .dw     psgf_volume     ; dc
  853  02:C38E  20 C4             .dw     psgf_panpot     ; dd
  854  02:C390  2F C4             .dw     psgf_keyratio   ; de
  855  02:C392  3A C4             .dw     psgf_relvolume  ; df
  856  02:C394  DA C3             .dw     psgf_notused    ; e0
  857  02:C396  48 C4             .dw     psgf_contfromsave       ; e1
  858  02:C398  53 C4             .dw     psgf_savepoint  ; e2
  859  02:C39A  5E C4             .dw     psgf_rptbegin   ; e3
  860  02:C39C  5F C4             .dw     psgf_rptend     ; e4
  861  02:C39E  60 C4             .dw     psgf_wave       ; e5
  862  02:C3A0  68 C4             .dw     psgf_envelope   ; e6
  863  02:C3A2  69 C4             .dw     psgf_freqmod    ; e7
  864  02:C3A4  6A C4             .dw     psgf_fmdelay    ; e8
  865  02:C3A6  6B C4             .dw     psgf_fmcorrect  ; e9
  866  02:C3A8  6C C4             .dw     psgf_pitchenv   ; ea
  867  02:C3AA  6D C4             .dw     psgf_pedelay    ; eb
  868  02:C3AC  6E C4             .dw     psgf_detune     ; ec
  869  02:C3AE  76 C4             .dw     psgf_sweep      ; ed
  870  02:C3B0  77 C4             .dw     psgf_sweeptime  ; ee
  871  02:C3B2  78 C4             .dw     psgf_jump       ; ef
  872  02:C3B4  88 C4             .dw     psgf_call       ; f0
  873  02:C3B6  89 C4             .dw     psgf_return     ; f1
  874  02:C3B8  8A C4             .dw     psgf_transpose  ; f2
  875  02:C3BA  93 C4             .dw     psgf_reltransp  ; f3
  876  02:C3BC  A3 C4             .dw     psgf_fulltransp ; f4
  877  02:C3BE  A4 C4             .dw     psgf_voladjust  ; f5
  878  02:C3C0  A5 C4             .dw     psgf_panrtadjust        ; f6
  879  02:C3C2  A6 C4             .dw     psgf_panlftadjust       ; f7
  880  02:C3C4  A7 C4             .dw     psgf_setmode    ; f8
  881  02:C3C6  DA C3             .dw     psgf_notused    ; f9
  882  02:C3C8  DA C3             .dw     psgf_notused    ; fa
  883  02:C3CA  DA C3             .dw     psgf_notused    ; fb
  884  02:C3CC  DA C3             .dw     psgf_notused    ; fc
  885  02:C3CE  DA C3             .dw     psgf_notused    ; fd
  886  02:C3D0  A8 C4             .dw     psgf_fadeout    ; fe
  887  02:C3D2  B9 C4             .dw     psgf_dataend    ; ff
  888                             
  889                     
  890  02:C3D4            psgf_inctmpptr:
  891                             incw    <psg_tmpptr
       02:C3D4  E6 E8              inc    <psg_tmpptr              ; value at stated memory
       02:C3D6  D0 02              bne    .x_00616           ; location
       02:C3D8  E6 E9              inc    <psg_tmpptr+1
       02:C3DA            .x_00616:
  892  02:C3DA            psgf_notused:
  893  02:C3DA  60                rts
  894                     
  895                     ;
  896                     ; $d0
  897                     ;
  898  02:C3DB            psgf_timebase:
  899  02:C3DB  B2 E8             lda     [psg_tmpptr]
  900  02:C3DD  29 0F             and     #$0f
  901  02:C3DF  99 7F 23          sta     psg_duratnmult,Y
  902  02:C3E2  4C D4 C3          jmp     psgf_inctmpptr
  903                     
  904                     ;
  905                     ; $d1-7
  906                     ;
  907  02:C3E5            psgf_octave:
  908  02:C3E5  29 07             and     #$07
  909  02:C3E7  99 2B 23          sta     psg_octave,Y
  910  02:C3EA  60                rts
  911                     
  912                     ;
  913                     ; $d8
  914                     ;
  915  02:C3EB            psgf_octup:
  916  02:C3EB  AE DF 22          ldx     psg_currvoice
  917  02:C3EE  FE 2B 23          inc     psg_octave,X
  918  02:C3F1  60                rts
  919                     
  920                     ;
  921                     ; $d9
  922                     ;
  923  02:C3F2            psgf_octdown:
  924  02:C3F2  AE DF 22          ldx     psg_currvoice
  925  02:C3F5  DE 2B 23          dec     psg_octave,X
  926  02:C3F8  60                rts
  927                     
  928                     ;
  929                     ; $da
  930                     ;
  931  02:C3F9            psgf_tie:
  932  02:C3F9  A9 03             lda     #3
  933  02:C3FB  99 F5 25          sta     psg_strikephase,Y
  934  02:C3FE  60                rts
  935                     
  936                     ;
  937                     ; $db
  938                     ;
  939  02:C3FF            psgf_tempo:
  940  02:C3FF  B2 E8             lda     [psg_tmpptr]
  941                             sub     #$23
                0000              .if (1 = 2)            ; from register A (handle
                                  .else
       02:C401  38                 sec
       02:C402  E9 23              sbc    #$23
                                  .endif
  942  02:C404  10 01             bpl     .okval
  943  02:C406  62                cla
  944  02:C407  AA        .okval: tax
  945  02:C408  BD 13 CB          lda     psg_tempotbl,X
  946  02:C40B  8D D0 22          sta     psg_tempo
  947  02:C40E  4C D4 C3          jmp     psgf_inctmpptr
  948                     
  949                     ;
  950                     ; $dc
  951                     ;
  952  02:C411            psgf_volume:
  953  02:C411  B2 E8             lda     [psg_tmpptr]
  954  02:C413  99 4F 23          sta     psg_perchvol,Y
  955  02:C416  62                cla
  956  02:C417  99 93 24          sta     psg_volchg,Y
  957  02:C41A  99 9F 24          sta     psg_volchgaccum,Y
  958  02:C41D  4C D4 C3          jmp     psgf_inctmpptr
  959                     
  960                     ;
  961                     ; $dd
  962                     ;
  963  02:C420            psgf_panpot:
  964  02:C420  B2 E8             lda     [psg_tmpptr]
  965  02:C422  99 D1 25          sta     psg_panpot,Y
  966  02:C425  62                cla
  967  02:C426  99 AB 24          sta     psg_panpotchg,Y
  968  02:C429  99 B7 24          sta     psg_panpotaccum,Y
  969  02:C42C  4C D4 C3          jmp     psgf_inctmpptr
  970                     
  971                     ;
  972                     ; $de
  973                     ;
  974  02:C42F            psgf_keyratio:
  975  02:C42F  A9 08             lda     #8
  976                             sub     [psg_tmpptr]
                0000              .if (1 = 2)            ; from register A (handle
                                  .else
       02:C431  38                 sec
       02:C432  F2 E8              sbc    [psg_tmpptr]
                                  .endif
  977  02:C434  99 5B 23          sta     psg_keyonratio,Y
  978  02:C437  4C D4 C3          jmp     psgf_inctmpptr
  979                     
  980                     ;
  981                     ; $df
  982                     ;
  983  02:C43A            psgf_relvolume:
  984  02:C43A  B9 4F 23          lda     psg_perchvol,Y
  985                             add     [psg_tmpptr]
                0000              .if (1 = 2)            ; register A (handle carry
                                  .else
       02:C43D  18                 clc
       02:C43E  72 E8              adc    [psg_tmpptr]
                                  .endif
  986  02:C440  29 1F             and     #$1f
  987  02:C442  99 4F 23          sta     psg_perchvol,Y
  988  02:C445  4C D4 C3          jmp     psgf_inctmpptr
  989                     
  990                     ;
  991                     ; $e1
  992                     ;
  993  02:C448            psgf_contfromsave:
  994  02:C448  B9 07 23          lda     psg_savepoint_l,Y
  995  02:C44B  85 E8             sta     <psg_tmpptr
  996  02:C44D  B9 13 23          lda     psg_savepoint_h,Y
  997  02:C450  85 E9             sta     <psg_tmpptr+1
  998  02:C452  60                rts
  999                     
 1000                     ;
 1001                     ; $e2
 1002                     ;
 1003  02:C453            psgf_savepoint:
 1004  02:C453  A5 E8             lda     <psg_tmpptr
 1005  02:C455  99 07 23          sta     psg_savepoint_l,Y
 1006  02:C458  A5 E9             lda     <psg_tmpptr+1
 1007  02:C45A  99 13 23          sta     psg_savepoint_h,Y
 1008  02:C45D  60                rts
 1009                     
 1010                     ;
 1011                     ; $e3
 1012                     ;
 1013  02:C45E            psgf_rptbegin:
 1014  02:C45E  60                rts
 1015                     
 1016                     ;
 1017                     ; $e4
 1018                     ;
 1019  02:C45F            psgf_rptend:
 1020  02:C45F  60                rts
 1021                     
 1022                     ;
 1023                     ; $e5
 1024                     ;
 1025  02:C460            psgf_wave:
 1026  02:C460  B2 E8             lda     [psg_tmpptr]
 1027  02:C462  99 DD 25          sta     psg_wavenum,Y
 1028  02:C465  4C D4 C3          jmp     psgf_inctmpptr
 1029                     
 1030                     ;
 1031                     ; $e6
 1032                     ;
 1033  02:C468            psgf_envelope:
 1034  02:C468  60                rts
 1035                     
 1036                     ;
 1037                     ; $e7
 1038                     ;
 1039  02:C469            psgf_freqmod:
 1040  02:C469  60                rts
 1041                     
 1042                     ;
 1043                     ; $e8
 1044                     ;
 1045  02:C46A            psgf_fmdelay:
 1046  02:C46A  60                rts
 1047                     
 1048                     ;
 1049                     ; $e9
 1050                     ;
 1051  02:C46B            psgf_fmcorrect:
 1052  02:C46B  60                rts
 1053                     
 1054                     ;
 1055                     ; $ea
 1056                     ;
 1057  02:C46C            psgf_pitchenv:
 1058  02:C46C  60                rts
 1059                     
 1060                     ;
 1061                     ; $eb
 1062                     ;
 1063  02:C46D            psgf_pedelay:
 1064  02:C46D  60                rts
 1065                     
 1066                     ;
 1067                     ; $ec
 1068                     ;
 1069  02:C46E            psgf_detune:
 1070  02:C46E  B2 E8             lda     [psg_tmpptr]
 1071  02:C470  99 87 24          sta     psg_detune,Y
 1072  02:C473  4C D4 C3          jmp     psgf_inctmpptr
 1073                     
 1074                     ;
 1075                     ; $ed
 1076                     ;
 1077  02:C476            psgf_sweep:
 1078  02:C476  60                rts
 1079                     
 1080                     ;
 1081                     ; $ee
 1082                     ;
 1083  02:C477            psgf_sweeptime:
 1084  02:C477  60                rts
 1085                     
 1086                     ;
 1087                     ; $ef
 1088                     ;
 1089  02:C478            psgf_jump:
 1090  02:C478  B2 E8             lda     [psg_tmpptr]
 1091  02:C47A  AA                tax
 1092                             incw    <psg_tmpptr
       02:C47B  E6 E8              inc    <psg_tmpptr              ; value at stated memory
       02:C47D  D0 02              bne    .x_00620           ; location
       02:C47F  E6 E9              inc    <psg_tmpptr+1
       02:C481            .x_00620:
 1093  02:C481  B2 E8             lda     [psg_tmpptr]
 1094                           __stw     <psg_tmpptr
       02:C483  86 E8              stx    <psg_tmpptr
       02:C485  85 E9              sta    <psg_tmpptr+1
 1095  02:C487  60                rts
 1096                     
 1097                     ;
 1098                     ; $f0
 1099                     ;
 1100  02:C488            psgf_call:
 1101  02:C488  60                rts
 1102                     
 1103                     ;
 1104                     ; $f1
 1105                     ;
 1106  02:C489            psgf_return:
 1107  02:C489  60                rts
 1108                     
 1109                     ;
 1110                     ; $f2
 1111                     ;
 1112  02:C48A            psgf_transpose:
 1113  02:C48A  B2 E8             lda     [psg_tmpptr]
 1114  02:C48C  0A                asl     A
 1115  02:C48D  99 73 23          sta     psg_transpose,Y
 1116  02:C490  4C D4 C3          jmp     psgf_inctmpptr
 1117                     
 1118                     ;
 1119                     ; $f3
 1120                     ;
 1121  02:C493            psgf_reltransp:
 1122  02:C493  B2 E8             lda     [psg_tmpptr]
 1123  02:C495  0A                asl     A
 1124  02:C496  AE DF 22          ldx     psg_currvoice
 1125                             add     psg_transpose,X
                0000              .if (1 = 2)            ; register A (handle carry
                                  .else
       02:C499  18                 clc
       02:C49A  7D 73 23           adc    psg_transpose,X
                                  .endif
 1126  02:C49D  9D 73 23          sta     psg_transpose,X
 1127  02:C4A0  4C D4 C3          jmp     psgf_inctmpptr
 1128                     
 1129                     ;
 1130                     ; $f4
 1131                     ;
 1132  02:C4A3            psgf_fulltransp:
 1133  02:C4A3  60                rts
 1134                     
 1135                     ;
 1136                     ; $f5
 1137                     ;
 1138  02:C4A4            psgf_voladjust:
 1139  02:C4A4  60                rts
 1140                     
 1141                     ;
 1142                     ; $f6
 1143                     ;
 1144  02:C4A5            psgf_panrtadjust:
 1145  02:C4A5  60                rts
 1146                     
 1147                     ;
 1148                     ; $f7
 1149                     ;
 1150  02:C4A6            psgf_panlftadjust:
 1151  02:C4A6  60                rts
 1152                     
 1153                     ;
 1154                     ; $f8
 1155                     ;
 1156  02:C4A7            psgf_setmode:
 1157  02:C4A7  60                rts
 1158                     
 1159                     ;
 1160                     ; $fe
 1161                     ;
 1162  02:C4A8            psgf_fadeout:
 1163  02:C4A8  B2 E8             lda     [psg_tmpptr]
 1164  02:C4AA  10 03             bpl     .positive
 1165  02:C4AC  49 FF             eor     #$ff
 1166  02:C4AE  1A                inc     A
 1167  02:C4AF            .positive:
 1168  02:C4AF  8D 01 26          sta     psg_fadespeed
 1169  02:C4B2  9C 03 26          stz     psg_fadecount
 1170  02:C4B5  9C 05 26          stz     psg_fadevolcut
 1171  02:C4B8  60                rts
 1172                     
 1173                     ;
 1174                     ; $ff
 1175                     ;
 1176  02:C4B9            psgf_dataend:
 1177  02:C4B9  A9 02             lda     #2
 1178  02:C4BB  8D E3 22          sta     psg_voicectrl
 1179  02:C4BE  60                rts
 1180                     
 1181                     
 1182                     ; ----
 1183                     ; PSG_DORELADJUST
 1184                     ; ----
 1185                     
 1186                     ; NOT IMPLEMENTED YET
 1187                     
 1188  02:C4BF            psg_doreladjust:
 1189  02:C4BF  60                rts
 1190                     
 1191                     
 1192                     ; ----
 1193                     ; PSG_DOPERCUSS
 1194                     ; ----
 1195                     
 1196                     ; NOT IMPLEMENTED YET
 1197                     
 1198  02:C4C0            psg_dopercuss:
 1199  02:C4C0  60                rts
 1200                     
 1201                     
 1202                     ; ----
 1203                     ; PSG_DOENVELOPE
 1204                     ; ----
 1205                     
 1206                     ; NOT IMPLEMENTED YET
 1207                     
 1208  02:C4C1            psg_doenvelope:
 1209  02:C4C1  60                rts
 1210                     
 1211                     
 1212                     ; ----
 1213                     ; PSG_DOFREQSTUFF
 1214                     ; ----
 1215                     
 1216                     ; NOT IMPLEMENTED YET
 1217                     
 1218  02:C4C2            psg_dofreqstuff:
 1219  02:C4C2  60                rts
 1220                     
 1221                     
 1222                     ;
 1223                     ;;
 1224                     ;; load a waveform into a PSG channel
 1225                     ;; PSG channel must already be set
 1226                     ;;
 1227                     ;snd_loadwave:  lda     #0
 1228                     ;               sta     psg_ctrl
 1229                     ;
 1230                     ;               ldx     #$20
 1231                     ;.l1:           lda     [wavptr]
 1232                     ;               sta     psg_wave
 1233                     ;               incw    <wavptr
 1234                     ;               dex
 1235                     ;               bne     .l1
 1236                     ;
 1237                     ;               lda     #PSG_ENABLE
 1238                     ;               ora     #$1F            ; full volume
 1239                     ;               sta     psg_ctrl
 1240                     ;               lda     #$ff
 1241                     ;               sta     psg_pan
 1242                     ;               rts
 1243                     ;               
 1244                     
 1245                     
 1246                     ; careful with these wave data (etc.)
 1247                     
 1248                     ;
 1249                     ; wave #0
 1250                     ;
 1251  02:C4C3            psg_waveforms:
 1252  02:C4C3  00 00 00          .db $00,$00,$00,$00
       02:C4C6  00        
 1253  02:C4C7  00 00 00          .db $00,$00,$00,$00
       02:C4CA  00        
 1254  02:C4CB  00 00 00          .db $00,$00,$00,$00
       02:C4CE  00        
 1255  02:C4CF  00 00 00          .db $00,$00,$00,$00
       02:C4D2  00        
 1256  02:C4D3  1F 1F 1F          .db $1f,$1f,$1f,$1f
       02:C4D6  1F        
 1257  02:C4D7  1F 1F 1F          .db $1f,$1f,$1f,$1f
       02:C4DA  1F        
 1258  02:C4DB  1F 1F 1F          .db $1f,$1f,$1f,$1f
       02:C4DE  1F        
 1259  02:C4DF  1F 1F 1F          .db $1f,$1f,$1f,$1f
       02:C4E2  1F        
 1260                     
 1261                     ;
 1262                     ; wave #1
 1263                     ;
 1264  02:C4E3  10 0D 0A          .db $10,$0d,$0a,$07
       02:C4E6  07        
 1265  02:C4E7  05 03 02          .db $05,$03,$02,$01
       02:C4EA  01        
 1266  02:C4EB  00 01 02          .db $00,$01,$02,$03
       02:C4EE  03        
 1267  02:C4EF  05 07 09          .db $05,$07,$09,$0d
       02:C4F2  0D        
 1268  02:C4F3  0F 12 15          .db $0f,$12,$15,$17
       02:C4F6  17        
 1269  02:C4F7  19 1B 1D          .db $19,$1b,$1d,$1e
       02:C4FA  1E        
 1270  02:C4FB  1E 1E 1D          .db $1e,$1e,$1d,$1b
       02:C4FE  1B        
 1271  02:C4FF  19 17 15          .db $19,$17,$15,$13
       02:C502  13        
 1272                     
 1273                     ;
 1274                     ; wave #2
 1275                     ;
 1276  02:C503  10 11 12          .db $10,$11,$12,$13
       02:C506  13        
 1277  02:C507  14 15 16          .db $14,$15,$16,$17
       02:C50A  17        
 1278  02:C50B  18 19 1A          .db $18,$19,$1a,$1b
       02:C50E  1B        
 1279  02:C50F  1C 1D 1E          .db $1c,$1d,$1e,$1f
       02:C512  1F        
 1280  02:C513  00 01 02          .db $00,$01,$02,$03
       02:C516  03        
 1281  02:C517  04 05 06          .db $04,$05,$06,$07
       02:C51A  07        
 1282  02:C51B  08 09 0A          .db $08,$09,$0a,$0b
       02:C51E  0B        
 1283  02:C51F  0C 0D 0E          .db $0c,$0d,$0e,$0f
       02:C522  0F        
 1284                     
 1285                     ;
 1286                     ; wave #3
 1287                     ;
 1288  02:C523  05 05 09          .db $05,$05,$09,$09
       02:C526  09        
 1289  02:C527  02 16 16          .db $02,$16,$16,$10
       02:C52A  10        
 1290  02:C52B  10 1F 1F          .db $10,$1f,$1f,$0e
       02:C52E  0E        
 1291  02:C52F  0E 04 04          .db $0e,$04,$04,$12
       02:C532  12        
 1292  02:C533  19 19 09          .db $19,$19,$09,$09
       02:C536  09        
 1293  02:C537  02 02 13          .db $02,$02,$13,$13
       02:C53A  13        
 1294  02:C53B  07 07 1E          .db $07,$07,$1e,$1e
       02:C53E  1E        
 1295  02:C53F  0B 0B 15          .db $0b,$0b,$15,$15
       02:C542  15        
 1296                     
 1297                     ;
 1298                     ; wave #4
 1299                     ;
 1300  02:C543  0F 0B 0F          .db $0f,$0b,$0f,$11
       02:C546  11        
 1301  02:C547  0F 0D 0F          .db $0f,$0d,$0f,$10
       02:C54A  10        
 1302  02:C54B  10 10 10          .db $10,$10,$10,$07
       02:C54E  07        
 1303  02:C54F  07 07 10          .db $07,$07,$10,$07
       02:C552  07        
 1304  02:C553  01 07 10          .db $01,$07,$10,$17
       02:C556  17        
 1305  02:C557  1E 17 10          .db $1e,$17,$10,$07
       02:C55A  07        
 1306  02:C55B  01 07 10          .db $01,$07,$10,$17
       02:C55E  17        
 1307  02:C55F  0F 07 10          .db $0f,$07,$10,$13
       02:C562  13        
 1308                     
 1309                     ;
 1310                     ; wave #5
 1311                     ;
 1312  02:C563  00 00 00          .db $00,$00,$00,$00
       02:C566  00        
 1313  02:C567  00 00 00          .db $00,$00,$00,$00
       02:C56A  00        
 1314  02:C56B  00 00 00          .db $00,$00,$00,$00
       02:C56E  00        
 1315  02:C56F  00 00 00          .db $00,$00,$00,$1f
       02:C572  1F        
 1316  02:C573  1E 1C 1A          .db $1e,$1c,$1a,$18
       02:C576  18        
 1317  02:C577  16 14 12          .db $16,$14,$12,$10
       02:C57A  10        
 1318  02:C57B  0E 0C 0A          .db $0e,$0c,$0a,$08
       02:C57E  08        
 1319  02:C57F  06 04 02          .db $06,$04,$02,$01
       02:C582  01        
 1320                     
 1321                     ;
 1322                     ; wave #6
 1323                     ;
 1324  02:C583  10 06 03          .db $10,$06,$03,$02
       02:C586  02        
 1325  02:C587  01 00 00          .db $01,$00,$00,$00
       02:C58A  00        
 1326  02:C58B  00 00 00          .db $00,$00,$00,$01
       02:C58E  01        
 1327  02:C58F  01 02 03          .db $01,$02,$03,$06
       02:C592  06        
 1328  02:C593  10 19 1C          .db $10,$19,$1c,$1d
       02:C596  1D        
 1329  02:C597  1E 1F 1F          .db $1e,$1f,$1f,$1f
       02:C59A  1F        
 1330  02:C59B  1F 1F 1F          .db $1f,$1f,$1f,$1f
       02:C59E  1F        
 1331  02:C59F  1E 1D 1C          .db $1e,$1d,$1c,$19
       02:C5A2  19        
 1332                     
 1333                     ; OK to here -----------------
 1334                     ;
 1335                     ; wave #7
 1336                     ;
 1337  02:C5A3  1D 0F 09          .db $1d,$0f,$09,$05
       02:C5A6  05        
 1338  02:C5A7  03 01 03          .db $03,$01,$03,$05
       02:C5AA  05        
 1339  02:C5AB  09 0F 15          .db $09,$0f,$15,$19
       02:C5AE  19        
 1340  02:C5AF  1B 1D 1B          .db $1b,$1d,$1b,$19
       02:C5B2  19        
 1341  02:C5B3  15 0F 07          .db $15,$0f,$07,$03
       02:C5B6  03        
 1342  02:C5B7  01 03 07          .db $01,$03,$07,$0f
       02:C5BA  0F        
 1343  02:C5BB  17 1B 1D          .db $17,$1b,$1d,$1b
       02:C5BE  1B        
 1344  02:C5BF  17 0F 01          .db $17,$0f,$01,$0f
       02:C5C2  0F        
 1345                     
 1346                     ;
 1347                     ; wave #8
 1348                     ;
 1349  02:C5C3  10 13 16          .db $10,$13,$16,$18
       02:C5C6  18        
 1350  02:C5C7  1B 1D 1E          .db $1b,$1d,$1e,$1f
       02:C5CA  1F        
 1351  02:C5CB  1F 1F 1E          .db $1f,$1f,$1e,$1d
       02:C5CE  1D        
 1352  02:C5CF  1B 18 16          .db $1b,$18,$16,$13
       02:C5D2  13        
 1353  02:C5D3  10 0C 09          .db $10,$0c,$09,$07
       02:C5D6  07        
 1354  02:C5D7  04 02 01          .db $04,$02,$01,$01
       02:C5DA  01        
 1355  02:C5DB  01 01 01          .db $01,$01,$01,$02
       02:C5DE  02        
 1356  02:C5DF  04 07 09          .db $04,$07,$09,$0c
       02:C5E2  0C        
 1357                     
 1358                     ;
 1359                     ; wave #9
 1360                     ;
 1361  02:C5E3  1B 1D 1B          .db $1b,$1d,$1b,$17
       02:C5E6  17        
 1362  02:C5E7  0F 0F 15          .db $0f,$0f,$15,$19
       02:C5EA  19        
 1363  02:C5EB  19 15 0F          .db $19,$15,$0f,$0f
       02:C5EE  0F        
 1364  02:C5EF  09 05 05          .db $09,$05,$05,$09
       02:C5F2  09        
 1365  02:C5F3  0F 0F 0D          .db $0f,$0f,$0d,$07
       02:C5F6  07        
 1366  02:C5F7  03 01 03          .db $03,$01,$03,$09
       02:C5FA  09        
 1367  02:C5FB  11 13 13          .db $11,$13,$13,$0f
       02:C5FE  0F        
 1368  02:C5FF  0B 0B 0D          .db $0b,$0b,$0d,$17
       02:C602  17        
 1369                     
 1370                     ;
 1371                     ; wave #$0a
 1372                     ;
 1373  02:C603  1F 1F 1F          .db $1f,$1f,$1f,$1f
       02:C606  1F        
 1374  02:C607  1F 1F 1F          .db $1f,$1f,$1f,$1f
       02:C60A  1F        
 1375  02:C60B  1F 1F 1F          .db $1f,$1f,$1f,$1f
       02:C60E  1F        
 1376  02:C60F  1F 1F 1F          .db $1f,$1f,$1f,$1f
       02:C612  1F        
 1377  02:C613  1F 1F 1F          .db $1f,$1f,$1f,$1f
       02:C616  1F        
 1378  02:C617  1F 1F 1F          .db $1f,$1f,$1f,$1f
       02:C61A  1F        
 1379  02:C61B  01 01 01          .db $01,$01,$01,$01
       02:C61E  01        
 1380  02:C61F  01 01 01          .db $01,$01,$01,$01
       02:C622  01        
 1381                     
 1382                     ;
 1383                     ; wave #$0b
 1384                     ;
 1385  02:C623  1F 00 04          .db $1f,$00,$04,$06
       02:C626  06        
 1386  02:C627  08 0A 0C          .db $08,$0a,$0c,$0e
       02:C62A  0E        
 1387  02:C62B  10 12 14          .db $10,$12,$14,$16
       02:C62E  16        
 1388  02:C62F  18 1A 1C          .db $18,$1a,$1c,$1e
       02:C632  1E        
 1389  02:C633  1F 1E 1C          .db $1f,$1e,$1c,$1a
       02:C636  1A        
 1390  02:C637  18 16 14          .db $18,$16,$14,$12
       02:C63A  12        
 1391  02:C63B  10 0E 0C          .db $10,$0e,$0c,$0a
       02:C63E  0A        
 1392  02:C63F  08 06 04          .db $08,$06,$04,$02
       02:C642  02        
 1393                     
 1394                     ;
 1395                     ; wave #$0c
 1396                     ;
 1397  02:C643  12 10 1A          .db $12,$10,$1a,$1f
       02:C646  1F        
 1398  02:C647  18 0D 14          .db $18,$0d,$14,$1c
       02:C64A  1C        
 1399  02:C64B  18 12 18          .db $18,$12,$18,$1c
       02:C64E  1C        
 1400  02:C64F  10 01 05          .db $10,$01,$05,$0b
       02:C652  0B        
 1401  02:C653  05 01 09          .db $05,$01,$09,$10
       02:C656  10        
 1402  02:C657  05 00 03          .db $05,$00,$03,$0d
       02:C65A  0D        
 1403  02:C65B  09 07 10          .db $09,$07,$10,$1a
       02:C65E  1A        
 1404  02:C65F  0D 03 10          .db $0d,$03,$10,$14
       02:C662  14        
 1405                     
 1406                     
 1407                     ;
 1408                     ; wave #$0d
 1409                     ;
 1410  02:C663  0F 15 17          .db $0f,$15,$17,$18
       02:C666  18        
 1411  02:C667  1A 1D 1E          .db $1a,$1d,$1e,$10
       02:C66A  10        
 1412  02:C66B  1F 1F 1D          .db $1f,$1f,$1d,$1c
       02:C66E  1C        
 1413  02:C66F  1A 18 14          .db $1a,$18,$14,$10
       02:C672  10        
 1414  02:C673  0F 0F 0B          .db $0f,$0f,$0b,$07
       02:C676  07        
 1415  02:C677  05 03 02          .db $05,$03,$02,$10
       02:C67A  10        
 1416  02:C67B  00 01 01          .db $00,$01,$01,$02
       02:C67E  02        
 1417  02:C67F  05 07 08          .db $05,$07,$08,$10
       02:C682  10        
 1418                     
 1419                     ;
 1420                     ; wave #$0e
 1421                     ;
 1422  02:C683  1F 1E 1B          .db $1f,$1e,$1b,$17
       02:C686  17        
 1423  02:C687  13 0F 0B          .db $13,$0f,$0b,$07
       02:C68A  07        
 1424  02:C68B  03 0F 0C          .db $03,$0f,$0c,$09
       02:C68E  09        
 1425  02:C68F  07 04 02          .db $07,$04,$02,$01
       02:C692  01        
 1426  02:C693  00 00 01          .db $00,$00,$01,$02
       02:C696  02        
 1427  02:C697  04 07 09          .db $04,$07,$09,$0c
       02:C69A  0C        
 1428  02:C69B  1F 1B 17          .db $1f,$1b,$17,$13
       02:C69E  13        
 1429  02:C69F  0F 0B 07          .db $0f,$0b,$07,$03
       02:C6A2  03        
 1430                     
 1431                     ;
 1432                     ; wave #$0f
 1433                     ;
 1434  02:C6A3  18 1F 1D          .db $18,$1f,$1d,$1d
       02:C6A6  1D        
 1435  02:C6A7  1F 1C 14          .db $1f,$1c,$14,$0f
       02:C6AA  0F        
 1436  02:C6AB  12 1C 1E          .db $12,$1c,$1e,$12
       02:C6AE  12        
 1437  02:C6AF  05 02 03          .db $05,$02,$03,$0a
       02:C6B2  0A        
 1438  02:C6B3  15 1C 1D          .db $15,$1c,$1d,$1a
       02:C6B6  1A        
 1439  02:C6B7  0D 01 03          .db $0d,$01,$03,$0d
       02:C6BA  0D        
 1440  02:C6BB  10 0B 03          .db $10,$0b,$03,$00
       02:C6BE  00        
 1441  02:C6BF  02 02 00          .db $02,$02,$00,$07
       02:C6C2  07        
 1442                     
 1443                     ;
 1444                     ; wave #$10
 1445                     ;
 1446  02:C6C3  1F 00 1F          .db $1f,$00,$1f,$00
       02:C6C6  00        
 1447  02:C6C7  1F 00 1F          .db $1f,$00,$1f,$00
       02:C6CA  00        
 1448  02:C6CB  1F 00 1F          .db $1f,$00,$1f,$00
       02:C6CE  00        
 1449  02:C6CF  1F 00 1F          .db $1f,$00,$1f,$00
       02:C6D2  00        
 1450  02:C6D3  1F 00 1F          .db $1f,$00,$1f,$00
       02:C6D6  00        
 1451  02:C6D7  1F 00 1F          .db $1f,$00,$1f,$00
       02:C6DA  00        
 1452  02:C6DB  1F 00 1F          .db $1f,$00,$1f,$00
       02:C6DE  00        
 1453  02:C6DF  1F 00 1F          .db $1f,$00,$1f,$00
       02:C6E2  00        
 1454                     
 1455                     ;
 1456                     ; wave #$11
 1457                     ;
 1458  02:C6E3  0D 0F 0B          .db $0d,$0f,$0b,$00
       02:C6E6  00        
 1459  02:C6E7  10 1E 1D          .db $10,$1e,$1d,$1f
       02:C6EA  1F        
 1460  02:C6EB  13 10 0F          .db $13,$10,$0f,$04
       02:C6EE  04        
 1461  02:C6EF  0E 0D 10          .db $0e,$0d,$10,$01
       02:C6F2  01        
 1462  02:C6F3  00 02 02          .db $00,$02,$02,$0e
       02:C6F6  0E        
 1463  02:C6F7  01 0D 0F          .db $01,$0d,$0f,$10
       02:C6FA  10        
 1464  02:C6FB  0E 01 01          .db $0e,$01,$01,$03
       02:C6FE  03        
 1465  02:C6FF  0E 01 01          .db $0e,$01,$01,$00
       02:C702  00        
 1466                     
 1467                     ;
 1468                     ; wave #$12
 1469                     ;
 1470  02:C703  10 1A 1F          .db $10,$1a,$1f,$1c
       02:C706  1C        
 1471  02:C707  14 10 11          .db $14,$10,$11,$14
       02:C70A  14        
 1472  02:C70B  16 14 11          .db $16,$14,$11,$10
       02:C70E  10        
 1473  02:C70F  14 1C 1F          .db $14,$1c,$1f,$1a
       02:C712  1A        
 1474  02:C713  10 05 01          .db $10,$05,$01,$03
       02:C716  03        
 1475  02:C717  0B 0F 0E          .db $0b,$0f,$0e,$0b
       02:C71A  0B        
 1476  02:C71B  09 0B 0E          .db $09,$0b,$0e,$0f
       02:C71E  0F        
 1477  02:C71F  0B 03 01          .db $0b,$03,$01,$05
       02:C722  05        
 1478                     
 1479                     ;
 1480                     ; wave #$13
 1481                     ;
 1482  02:C723  16 1E 1E          .db $16,$1e,$1e,$17
       02:C726  17        
 1483  02:C727  0D 06 01          .db $0d,$06,$01,$00
       02:C72A  00        
 1484  02:C72B  00 00 00          .db $00,$00,$00,$00
       02:C72E  00        
 1485  02:C72F  01 03 07          .db $01,$03,$07,$0c
       02:C732  0C        
 1486  02:C733  13 18 1C          .db $13,$18,$1c,$1e
       02:C736  1E        
 1487  02:C737  1F 1F 1F          .db $1f,$1f,$1f,$1f
       02:C73A  1F        
 1488  02:C73B  1F 1E 19          .db $1f,$1e,$19,$12
       02:C73E  12        
 1489  02:C73F  08 01 01          .db $08,$01,$01,$09
       02:C742  09        
 1490                     
 1491                     ;
 1492                     ; wave #$14
 1493                     ;
 1494  02:C743  14 1A 1E          .db $14,$1a,$1e,$1f
       02:C746  1F        
 1495  02:C747  1F 1F 1F          .db $1f,$1f,$1f,$1f
       02:C74A  1F        
 1496  02:C74B  1F 1F 1F          .db $1f,$1f,$1f,$1f
       02:C74E  1F        
 1497  02:C74F  1F 1E 1A          .db $1f,$1e,$1a,$14
       02:C752  14        
 1498  02:C753  0B 05 01          .db $0b,$05,$01,$00
       02:C756  00        
 1499  02:C757  00 00 00          .db $00,$00,$00,$00
       02:C75A  00        
 1500  02:C75B  00 00 00          .db $00,$00,$00,$00
       02:C75E  00        
 1501  02:C75F  00 01 05          .db $00,$01,$05,$0b
       02:C762  0B        
 1502                     
 1503                     ;
 1504                     ; wave #$15
 1505                     ;
 1506  02:C763  17 1E 1D          .db $17,$1e,$1d,$17
       02:C766  17        
 1507  02:C767  10 16 1F          .db $10,$16,$1f,$1c
       02:C76A  1C        
 1508  02:C76B  1A 1E 1F          .db $1a,$1e,$1f,$1f
       02:C76E  1F        
 1509  02:C76F  1C 0E 07          .db $1c,$0e,$07,$0a
       02:C772  0A        
 1510  02:C773  14 18 11          .db $14,$18,$11,$03
       02:C776  03        
 1511  02:C777  00 00 01          .db $00,$00,$01,$05
       02:C77A  05        
 1512  02:C77B  03 00 09          .db $03,$00,$09,$0f
       02:C77E  0F        
 1513  02:C77F  08 02 01          .db $08,$02,$01,$08
       02:C782  08        
 1514                     
 1515                     ;
 1516                     ; wave #$16
 1517                     ;
 1518  02:C783  18 1E 19          .db $18,$1e,$19,$0f
       02:C786  0F        
 1519  02:C787  12 1E 1D          .db $12,$1e,$1d,$1e
       02:C78A  1E        
 1520  02:C78B  1E 1D 1E          .db $1e,$1d,$1e,$12
       02:C78E  12        
 1521  02:C78F  0F 19 1E          .db $0f,$19,$1e,$18
       02:C792  18        
 1522  02:C793  07 01 06          .db $07,$01,$06,$10
       02:C796  10        
 1523  02:C797  0D 01 02          .db $0d,$01,$02,$01
       02:C79A  01        
 1524  02:C79B  01 02 01          .db $01,$02,$01,$0d
       02:C79E  0D        
 1525  02:C79F  10 06 01          .db $10,$06,$01,$07
       02:C7A2  07        
 1526                     
 1527                     ;
 1528                     ; wave #$17
 1529                     ;
 1530  02:C7A3  10 16 1A          .db $10,$16,$1a,$1c
       02:C7A6  1C        
 1531  02:C7A7  1E 1C 1A          .db $1e,$1c,$1a,$16
       02:C7AA  16        
 1532  02:C7AB  10 0A 06          .db $10,$0a,$06,$04
       02:C7AE  04        
 1533  02:C7AF  02 04 06          .db $02,$04,$06,$0a
       02:C7B2  0A        
 1534  02:C7B3  10 18 1C          .db $10,$18,$1c,$1e
       02:C7B6  1E        
 1535  02:C7B7  1C 18 10          .db $1c,$18,$10,$08
       02:C7BA  08        
 1536  02:C7BB  02 08 10          .db $02,$08,$10,$1e
       02:C7BE  1E        
 1537  02:C7BF  10 02 10          .db $10,$02,$10,$02
       02:C7C2  02        
 1538                     
 1539                     ;
 1540                     ; wave #$18
 1541                     ;
 1542  02:C7C3  10 13 16          .db $10,$13,$16,$18
       02:C7C6  18        
 1543  02:C7C7  1B 1D 1E          .db $1b,$1d,$1e,$1f
       02:C7CA  1F        
 1544  02:C7CB  1F 1F 1E          .db $1f,$1f,$1e,$1d
       02:C7CE  1D        
 1545  02:C7CF  1B 18 16          .db $1b,$18,$16,$13
       02:C7D2  13        
 1546  02:C7D3  10 01 04          .db $10,$01,$04,$08
       02:C7D6  08        
 1547  02:C7D7  0C 10 14          .db $0c,$10,$14,$18
       02:C7DA  18        
 1548  02:C7DB  1C 01 04          .db $1c,$01,$04,$08
       02:C7DE  08        
 1549  02:C7DF  0C 10 14          .db $0c,$10,$14,$18
       02:C7E2  18        
 1550                     
 1551                     ;
 1552                     ; wave #$19
 1553                     ;
 1554  02:C7E3  1A 1C 1D          .db $1a,$1c,$1d,$1e
       02:C7E6  1E        
 1555  02:C7E7  1F 1F 1F          .db $1f,$1f,$1f,$1f
       02:C7EA  1F        
 1556  02:C7EB  1F 1F 1F          .db $1f,$1f,$1f,$1f
       02:C7EE  1F        
 1557  02:C7EF  1E 1D 1B          .db $1e,$1d,$1b,$19
       02:C7F2  19        
 1558  02:C7F3  06 04 02          .db $06,$04,$02,$01
       02:C7F6  01        
 1559  02:C7F7  00 00 00          .db $00,$00,$00,$00
       02:C7FA  00        
 1560  02:C7FB  00 00 00          .db $00,$00,$00,$00
       02:C7FE  00        
 1561  02:C7FF  01 02 04          .db $01,$02,$04,$06
       02:C802  06        
 1562                     
 1563                     ;
 1564                     ; wave #$1a
 1565                     ;
 1566  02:C803  1B 14 10          .db $1b,$14,$10,$0e
       02:C806  0E        
 1567  02:C807  0C 0B 16          .db $0c,$0b,$16,$09
       02:C80A  09        
 1568  02:C80B  02 07 0A          .db $02,$07,$0a,$05
       02:C80E  05        
 1569  02:C80F  03 03 02          .db $03,$03,$02,$01
       02:C812  01        
 1570  02:C813  0B 15 1C          .db $0b,$15,$1c,$1e
       02:C816  1E        
 1571  02:C817  1A 0C 15          .db $1a,$0c,$15,$19
       02:C81A  19        
 1572  02:C81B  0C 18 07          .db $0c,$18,$07,$12
       02:C81E  12        
 1573  02:C81F  0C 09 16          .db $0c,$09,$16,$1a
       02:C822  1A        
 1574                     
 1575                     ;
 1576                     ; wave #$1b
 1577                     ;
 1578  02:C823  0F 15 1A          .db $0f,$15,$1a,$1c
       02:C826  1C        
 1579  02:C827  1F 1C 1A          .db $1f,$1c,$1a,$15
       02:C82A  15        
 1580  02:C82B  0F 08 04          .db $0f,$08,$04,$02
       02:C82E  02        
 1581  02:C82F  00 02 04          .db $00,$02,$04,$08
       02:C832  08        
 1582  02:C833  0F 17 1C          .db $0f,$17,$1c,$1f
       02:C836  1F        
 1583  02:C837  1C 17 0F          .db $1c,$17,$0f,$06
       02:C83A  06        
 1584  02:C83B  01 02 07          .db $01,$02,$07,$0f
       02:C83E  0F        
 1585  02:C83F  0F 13 0F          .db $0f,$13,$0f,$00
       02:C842  00        
 1586                     
 1587                     ;
 1588                     ; wave #$1c
 1589                     ;
 1590  02:C843  1F 1B 19          .db $1f,$1b,$19,$1c
       02:C846  1C        
 1591  02:C847  1F 1C 1A          .db $1f,$1c,$1a,$17
       02:C84A  17        
 1592  02:C84B  0C 04 03          .db $0c,$04,$03,$02
       02:C84E  02        
 1593  02:C84F  08 0E 0D          .db $08,$0e,$0d,$04
       02:C852  04        
 1594  02:C853  00 06 09          .db $00,$06,$09,$05
       02:C856  05        
 1595  02:C857  00 00 00          .db $00,$00,$00,$01
       02:C85A  01        
 1596  02:C85B  0A 10 11          .db $0a,$10,$11,$12
       02:C85E  12        
 1597  02:C85F  0E 0C 0E          .db $0e,$0c,$0e,$19
       02:C862  19        
 1598                     
 1599                     ;
 1600                     ; wave #$1d
 1601                     ;
 1602  02:C863  0F 02 11          .db $0f,$02,$11,$1f
       02:C866  1F        
 1603  02:C867  0F 1C 0D          .db $0f,$1c,$0d,$00
       02:C86A  00        
 1604  02:C86B  0F 02 11          .db $0f,$02,$11,$1f
       02:C86E  1F        
 1605  02:C86F  0F 1C 0D          .db $0f,$1c,$0d,$00
       02:C872  00        
 1606  02:C873  0F 02 11          .db $0f,$02,$11,$1f
       02:C876  1F        
 1607  02:C877  0F 1C 0D          .db $0f,$1c,$0d,$00
       02:C87A  00        
 1608  02:C87B  0F 02 11          .db $0f,$02,$11,$1f
       02:C87E  1F        
 1609  02:C87F  0F 1C 0D          .db $0f,$1c,$0d,$00
       02:C882  00        
 1610                     
 1611                     ;
 1612                     ; wave #$1e
 1613                     ;
 1614  02:C883  10 0A 14          .db $10,$0a,$14,$1c
       02:C886  1C        
 1615  02:C887  15 1D 16          .db $15,$1d,$16,$10
       02:C88A  10        
 1616  02:C88B  18 11 18          .db $18,$11,$18,$1f
       02:C88E  1F        
 1617  02:C88F  15 1B 12          .db $15,$1b,$12,$0a
       02:C892  0A        
 1618  02:C893  10 08 0E          .db $10,$08,$0e,$14
       02:C896  14        
 1619  02:C897  0A 10 07          .db $0a,$10,$07,$00
       02:C89A  00        
 1620  02:C89B  08 01 09          .db $08,$01,$09,$12
       02:C89E  12        
 1621  02:C89F  0A 12 0B          .db $0a,$12,$0b,$06
       02:C8A2  06        
 1622                     
 1623                     ;
 1624                     ; wave #$1f
 1625                     ;
 1626  02:C8A3  12 19 1D          .db $12,$19,$1d,$1e
       02:C8A6  1E        
 1627  02:C8A7  1F 1F 1F          .db $1f,$1f,$1f,$1e
       02:C8AA  1E        
 1628  02:C8AB  1C 17 12          .db $1c,$17,$12,$0c
       02:C8AE  0C        
 1629  02:C8AF  0D 12 16          .db $0d,$12,$16,$11
       02:C8B2  11        
 1630  02:C8B3  08 04 01          .db $08,$04,$01,$00
       02:C8B6  00        
 1631  02:C8B7  00 00 00          .db $00,$00,$00,$00
       02:C8BA  00        
 1632  02:C8BB  00 00 00          .db $00,$00,$00,$00
       02:C8BE  00        
 1633  02:C8BF  00 01 04          .db $00,$01,$04,$0c
       02:C8C2  0C        
 1634                     
 1635                     ;
 1636                     ; wave #$20
 1637                     ;
 1638  02:C8C3  04 14 1E          .db $04,$14,$1e,$17
       02:C8C6  17        
 1639  02:C8C7  00 17 1E          .db $00,$17,$1e,$16
       02:C8CA  16        
 1640  02:C8CB  10 1A 1F          .db $10,$1a,$1f,$1c
       02:C8CE  1C        
 1641  02:C8CF  12 16 18          .db $12,$16,$18,$10
       02:C8D2  10        
 1642  02:C8D3  06 12 1C          .db $06,$12,$1c,$10
       02:C8D6  10        
 1643  02:C8D7  0C 0E 10          .db $0c,$0e,$10,$06
       02:C8DA  06        
 1644  02:C8DB  02 08 12          .db $02,$08,$12,$0c
       02:C8DE  0C        
 1645  02:C8DF  04 08 0E          .db $04,$08,$0e,$08
       02:C8E2  08        
 1646                     
 1647                     ;
 1648                     ; wave #$21
 1649                     ;
 1650  02:C8E3  0A 0C 0E          .db $0a,$0c,$0e,$0f
       02:C8E6  0F        
 1651  02:C8E7  1F 1F 1F          .db $1f,$1f,$1f,$1f
       02:C8EA  1F        
 1652  02:C8EB  14 14 13          .db $14,$14,$13,$12
       02:C8EE  12        
 1653  02:C8EF  1B 1B 1B          .db $1b,$1b,$1b,$1b
       02:C8F2  1B        
 1654  02:C8F3  0A 08 06          .db $0a,$08,$06,$04
       02:C8F6  04        
 1655  02:C8F7  0E 0E 0E          .db $0e,$0e,$0e,$0e
       02:C8FA  0E        
 1656  02:C8FB  00 00 00          .db $00,$00,$00,$02
       02:C8FE  02        
 1657  02:C8FF  13 13 13          .db $13,$13,$13,$13
       02:C902  13        
 1658                     
 1659                     ;
 1660                     ; wave #$22
 1661                     ;
 1662  02:C903  1B 1B 05          .db $1b,$1b,$05,$05
       02:C906  05        
 1663  02:C907  09 09 1F          .db $09,$09,$1f,$1f
       02:C90A  1F        
 1664  02:C90B  1B 1B 16          .db $1b,$1b,$16,$16
       02:C90E  16        
 1665  02:C90F  1A 1A 07          .db $1a,$1a,$07,$07
       02:C912  07        
 1666  02:C913  17 17 15          .db $17,$17,$15,$15
       02:C916  15        
 1667  02:C917  19 19 0C          .db $19,$19,$0c,$0c
       02:C91A  0C        
 1668  02:C91B  1B 1B 0C          .db $1b,$1b,$0c,$0c
       02:C91E  0C        
 1669  02:C91F  00 00 03          .db $00,$00,$03,$03
       02:C922  03        
 1670                     
 1671                     ;
 1672                     ; wave #$23
 1673                     ;
 1674  02:C923  1F 1D 1B          .db $1f,$1d,$1b,$19
       02:C926  19        
 1675  02:C927  17 15 13          .db $17,$15,$13,$11
       02:C92A  11        
 1676  02:C92B  0F 0D 0B          .db $0f,$0d,$0b,$09
       02:C92E  09        
 1677  02:C92F  07 05 03          .db $07,$05,$03,$01
       02:C932  01        
 1678  02:C933  00 0F 11          .db $00,$0f,$11,$0d
       02:C936  0D        
 1679  02:C937  13 0B 15          .db $13,$0b,$15,$09
       02:C93A  09        
 1680  02:C93B  17 07 19          .db $17,$07,$19,$05
       02:C93E  05        
 1681  02:C93F  1B 03 1D          .db $1b,$03,$1d,$01
       02:C942  01        
 1682                     
 1683                     ;
 1684                     ; wave #$24
 1685                     ;
 1686  02:C943  0B 0E 11          .db $0b,$0e,$11,$13
       02:C946  13        
 1687  02:C947  1F 1D 1A          .db $1f,$1d,$1a,$17
       02:C94A  17        
 1688  02:C94B  09 05 02          .db $09,$05,$02,$00
       02:C94E  00        
 1689  02:C94F  0A 0B 0E          .db $0a,$0b,$0e,$11
       02:C952  11        
 1690  02:C953  0B 0E 1B          .db $0b,$0e,$1b,$1e
       02:C956  1E        
 1691  02:C957  14 12 1A          .db $14,$12,$1a,$17
       02:C95A  17        
 1692  02:C95B  09 05 0D          .db $09,$05,$0d,$0a
       02:C95E  0A        
 1693  02:C95F  00 01 0E          .db $00,$01,$0e,$11
       02:C962  11        
 1694                     
 1695                     ;
 1696                     ; wave #$25
 1697                     ;
 1698  02:C963  0F 16 1B          .db $0f,$16,$1b,$1e
       02:C966  1E        
 1699  02:C967  1F 1E 1B          .db $1f,$1e,$1b,$16
       02:C96A  16        
 1700  02:C96B  0F 08 04          .db $0f,$08,$04,$01
       02:C96E  01        
 1701  02:C96F  00 01 04          .db $00,$01,$04,$08
       02:C972  08        
 1702  02:C973  0F 00 00          .db $0f,$00,$00,$00
       02:C976  00        
 1703  02:C977  1F 1F 1F          .db $1f,$1f,$1f,$1f
       02:C97A  1F        
 1704  02:C97B  1C 18 14          .db $1c,$18,$14,$10
       02:C97E  10        
 1705  02:C97F  0C 07 03          .db $0c,$07,$03,$00
       02:C982  00        
 1706                     
 1707                     ;
 1708                     ; wave #$26
 1709                     ;
 1710  02:C983  02 01 05          .db $02,$01,$05,$0b
       02:C986  0B        
 1711  02:C987  11 17 1B          .db $11,$17,$1b,$1f
       02:C98A  1F        
 1712  02:C98B  1E 1B 17          .db $1e,$1b,$17,$13
       02:C98E  13        
 1713  02:C98F  0F 0B 09          .db $0f,$0b,$09,$0e
       02:C992  0E        
 1714  02:C993  18 1D 1C          .db $18,$1d,$1c,$17
       02:C996  17        
 1715  02:C997  0F 0A 07          .db $0f,$0a,$07,$06
       02:C99A  06        
 1716  02:C99B  11 19 1A          .db $11,$19,$1a,$19
       02:C99E  19        
 1717  02:C99F  10 0B 06          .db $10,$0b,$06,$03
       02:C9A2  03        
 1718                     
 1719                     ;
 1720                     ; wave #$27
 1721                     ;
 1722  02:C9A3  1D 1D 1D          .db $1d,$1d,$1d,$10
       02:C9A6  10        
 1723  02:C9A7  10 10 1D          .db $10,$10,$1d,$1d
       02:C9AA  1D        
 1724  02:C9AB  1D 1D 1B          .db $1d,$1d,$1b,$1b
       02:C9AE  1B        
 1725  02:C9AF  1B 1B 1B          .db $1b,$1b,$1b,$1b
       02:C9B2  1B        
 1726  02:C9B3  00 00 00          .db $00,$00,$00,$00
       02:C9B6  00        
 1727  02:C9B7  00 00 02          .db $00,$00,$02,$02
       02:C9BA  02        
 1728  02:C9BB  02 02 10          .db $02,$02,$10,$10
       02:C9BE  10        
 1729  02:C9BF  10 02 02          .db $10,$02,$02,$02
       02:C9C2  02        
 1730                     
 1731                     ;
 1732                     ; wave #$28
 1733                     ;
 1734  02:C9C3  19 16 10          .db $19,$16,$10,$12
       02:C9C6  12        
 1735  02:C9C7  12 09 16          .db $12,$09,$16,$1f
       02:C9CA  1F        
 1736  02:C9CB  0F 17 0F          .db $0f,$17,$0f,$10
       02:C9CE  10        
 1737  02:C9CF  1D 13 11          .db $1d,$13,$11,$10
       02:C9D2  10        
 1738  02:C9D3  0E 19 1B          .db $0e,$19,$1b,$00
       02:C9D6  00        
 1739  02:C9D7  0F 03 0C          .db $0f,$03,$0c,$12
       02:C9DA  12        
 1740  02:C9DB  17 0F 16          .db $17,$0f,$16,$11
       02:C9DE  11        
 1741  02:C9DF  12 05 0D          .db $12,$05,$0d,$06
       02:C9E2  06        
 1742                     
 1743                     ;
 1744                     ; wave #$29
 1745                     ;
 1746  02:C9E3  00 07 0B          .db $00,$07,$0b,$0b
       02:C9E6  0B        
 1747  02:C9E7  09 03 00          .db $09,$03,$00,$01
       02:C9EA  01        
 1748  02:C9EB  17 17 15          .db $17,$17,$15,$10
       02:C9EE  10        
 1749  02:C9EF  0C 0A 0D          .db $0c,$0a,$0d,$13
       02:C9F2  13        
 1750  02:C9F3  07 0E 12          .db $07,$0e,$12,$11
       02:C9F6  11        
 1751  02:C9F7  0F 09 07          .db $0f,$09,$07,$07
       02:C9FA  07        
 1752  02:C9FB  1F 1E 1D          .db $1f,$1e,$1d,$17
       02:C9FE  17        
 1753  02:C9FF  13 11 13          .db $13,$11,$13,$1a
       02:CA02  1A        
 1754                     
 1755                     ;
 1756                     ; wave #$2a
 1757                     ;
 1758  02:CA03  19 04 03          .db $19,$04,$03,$03
       02:CA06  03        
 1759  02:CA07  02 02 01          .db $02,$02,$01,$01
       02:CA0A  01        
 1760  02:CA0B  03 03 01          .db $03,$03,$01,$01
       02:CA0E  01        
 1761  02:CA0F  01 01 00          .db $01,$01,$00,$01
       02:CA12  01        
 1762  02:CA13  00 01 19          .db $00,$01,$19,$19
       02:CA16  19        
 1763  02:CA17  1B 1B 1B          .db $1b,$1b,$1b,$1b
       02:CA1A  1B        
 1764  02:CA1B  19 1E 1E          .db $19,$1e,$1e,$1e
       02:CA1E  1E        
 1765  02:CA1F  0D 1E 19          .db $0d,$1e,$19,$04
       02:CA22  04        
 1766                     
 1767                     ;
 1768                     ; wave #$2b
 1769                     ;
 1770  02:CA23  0F 15 19          .db $0f,$15,$19,$1b
       02:CA26  1B        
 1771  02:CA27  1D 1E 1F          .db $1d,$1e,$1f,$1e
       02:CA2A  1E        
 1772  02:CA2B  1D 1B 19          .db $1d,$1b,$19,$15
       02:CA2E  15        
 1773  02:CA2F  0F 07 17          .db $0f,$07,$17,$0a
       02:CA32  0A        
 1774  02:CA33  14 0D 12          .db $14,$0d,$12,$0f
       02:CA36  0F        
 1775  02:CA37  10 0A 06          .db $10,$0a,$06,$04
       02:CA3A  04        
 1776  02:CA3B  02 01 00          .db $02,$01,$00,$01
       02:CA3E  01        
 1777  02:CA3F  02 04 06          .db $02,$04,$06,$0a
       02:CA42  0A        
 1778                     
 1779                     ;
 1780                     ; wave #$2c
 1781                     ;
 1782  02:CA43  09 18 1D          .db $09,$18,$1d,$0b
       02:CA46  0B        
 1783  02:CA47  00 06 13          .db $00,$06,$13,$1c
       02:CA4A  1C        
 1784  02:CA4B  18 10 06          .db $18,$10,$06,$02
       02:CA4E  02        
 1785  02:CA4F  00 00 00          .db $00,$00,$00,$00
       02:CA52  00        
 1786  02:CA53  02 08 16          .db $02,$08,$16,$1b
       02:CA56  1B        
 1787  02:CA57  09 03 10          .db $09,$03,$10,$1e
       02:CA5A  1E        
 1788  02:CA5B  1E 1B 16          .db $1e,$1b,$16,$0b
       02:CA5E  0B        
 1789  02:CA5F  05 01 00          .db $05,$01,$00,$00
       02:CA62  00        
 1790                     
 1791                     
 1792                     ;
 1793                     ; frequency data
 1794                     ;
 1795  02:CA63            psg_freqtbl:
 1796  02:CA63  E4 0F             .dw $0fe4       ; A0
 1797  02:CA65  00 0F             .dw $0f00       ; A0#
 1798  02:CA67  28 0E             .dw $0e28       ; B0
 1799  02:CA69  5D 0D             .dw $0d5d       ; C1 (octave starts at 'C')
 1800  02:CA6B  9D 0C             .dw $0c9d       ; C1#
 1801  02:CA6D  E7 0B             .dw $0be7       ; D1
 1802  02:CA6F  3D 0B             .dw $0b3d       ; D1#
 1803  02:CA71  9B 0A             .dw $0a9b       ; E1
 1804  02:CA73  03 0A             .dw $0a03       ; F1
 1805  02:CA75  73 09             .dw $0973       ; F1#
 1806  02:CA77  EB 08             .dw $08eb       ; G1
 1807  02:CA79  6A 08             .dw $086a       ; G1#
 1808  02:CA7B  F2 07             .dw $07f2       ; A1
 1809  02:CA7D  80 07             .dw $0780       ; A1#
 1810  02:CA7F  14 07             .dw $0714       ; B1
 1811  02:CA81  AF 06             .dw $06af       ; C2
 1812  02:CA83  4F 06             .dw $064f
 1813  02:CA85  F4 05             .dw $05f4
 1814  02:CA87  9E 05             .dw $059e
 1815  02:CA89  4E 05             .dw $054e
 1816  02:CA8B  02 05             .dw $0502
 1817  02:CA8D  B9 04             .dw $04b9
 1818  02:CA8F  76 04             .dw $0476
 1819  02:CA91  35 04             .dw $0435
 1820  02:CA93  F9 03             .dw $03f9
 1821  02:CA95  C0 03             .dw $03c0
 1822  02:CA97  8A 03             .dw $038a
 1823  02:CA99  57 03             .dw $0357       ; C3
 1824  02:CA9B  27 03             .dw $0327
 1825  02:CA9D  FA 02             .dw $02fa
 1826  02:CA9F  CF 02             .dw $02cf
 1827  02:CAA1  A7 02             .dw $02a7
 1828  02:CAA3  81 02             .dw $0281
 1829  02:CAA5  5D 02             .dw $025d
 1830  02:CAA7  3B 02             .dw $023b
 1831  02:CAA9  1B 02             .dw $021b
 1832  02:CAAB  FC 01             .dw $01fc
 1833  02:CAAD  E0 01             .dw $01e0
 1834  02:CAAF  C5 01             .dw $01c5
 1835  02:CAB1  AC 01             .dw $01ac       ; C4
 1836  02:CAB3  93 01             .dw $0193
 1837  02:CAB5  7D 01             .dw $017d
 1838  02:CAB7  68 01             .dw $0168
 1839  02:CAB9  53 01             .dw $0153
 1840  02:CABB  40 01             .dw $0140
 1841  02:CABD  2E 01             .dw $012e
 1842  02:CABF  1D 01             .dw $011d
 1843  02:CAC1  0D 01             .dw $010d
 1844  02:CAC3  FE 00             .dw $00fe
 1845  02:CAC5  F0 00             .dw $00f0
 1846  02:CAC7  E3 00             .dw $00e3
 1847  02:CAC9  D6 00             .dw $00d6       ; C5
 1848  02:CACB  CA 00             .dw $00ca
 1849  02:CACD  BE 00             .dw $00be
 1850  02:CACF  B4 00             .dw $00b4
 1851  02:CAD1  AA 00             .dw $00aa
 1852  02:CAD3  A0 00             .dw $00a0
 1853  02:CAD5  97 00             .dw $0097
 1854  02:CAD7  8F 00             .dw $008f
 1855  02:CAD9  87 00             .dw $0087
 1856  02:CADB  7F 00             .dw $007f
 1857  02:CADD  78 00             .dw $0078
 1858  02:CADF  71 00             .dw $0071
 1859  02:CAE1  6B 00             .dw $006b       ; C6
 1860  02:CAE3  65 00             .dw $0065
 1861  02:CAE5  5F 00             .dw $005f
 1862  02:CAE7  5A 00             .dw $005a
 1863  02:CAE9  55 00             .dw $0055
 1864  02:CAEB  50 00             .dw $0050
 1865  02:CAED  4B 00             .dw $004b
 1866  02:CAEF  46 00             .dw $0046
 1867  02:CAF1  43 00             .dw $0043
 1868  02:CAF3  40 00             .dw $0040
 1869  02:CAF5  3C 00             .dw $003c
 1870  02:CAF7  39 00             .dw $0039
 1871  02:CAF9  35 00             .dw $0035       ; C7
 1872  02:CAFB  32 00             .dw $0032
 1873  02:CAFD  30 00             .dw $0030
 1874  02:CAFF  2D 00             .dw $002d
 1875  02:CB01  2A 00             .dw $002a
 1876  02:CB03  28 00             .dw $0028
 1877  02:CB05  26 00             .dw $0026
 1878  02:CB07  24 00             .dw $0024
 1879  02:CB09  22 00             .dw $0022
 1880  02:CB0B  20 00             .dw $0020
 1881  02:CB0D  1E 00             .dw $001e
 1882  02:CB0F  1C 00             .dw $001c
 1883  02:CB11  1B 00             .dw $001b       ; C8
 1884                     
 1885                     
 1886                     ;
 1887                     ; TEMPO DATA
 1888                     ;
 1889                     ; starting with value $23 (as sent to PSG_TEMPO),
 1890                     ; these numbers are the timer values to use for
 1891                     ; that tempo
 1892                     ;
 1893  02:CB13            psg_tempotbl:
 1894  02:CB13  7D 79 76          .db $7d,$79,$76,$73
       02:CB16  73        
 1895  02:CB17  70 6D 6B          .db $70,$6d,$6b,$68
       02:CB1A  68        
 1896  02:CB1B  65 63 61          .db $65,$63,$61,$5f
       02:CB1E  5F        
 1897  02:CB1F  5D 5B 59          .db $5d,$5b,$59,$57
       02:CB22  57        
 1898  02:CB23  56 54 52          .db $56,$54,$52,$51
       02:CB26  51        
 1899  02:CB27  4F 4E 4D          .db $4f,$4e,$4d,$4b
       02:CB2A  4B        
 1900  02:CB2B  4A 49 48          .db $4a,$49,$48,$46
       02:CB2E  46        
 1901  02:CB2F  45 44 43          .db $45,$44,$43,$42
       02:CB32  42        
 1902  02:CB33  41 40 3F          .db $41,$40,$3f,$3e
       02:CB36  3E        
 1903  02:CB37  3E 3D 3C          .db $3e,$3d,$3c,$3b
       02:CB3A  3B        
 1904  02:CB3B  3A 3A 39          .db $3a,$3a,$39,$38
       02:CB3E  38        
 1905  02:CB3F  37 37 36          .db $37,$37,$36,$35
       02:CB42  35        
 1906  02:CB43  35 34 33          .db $35,$34,$33,$33
       02:CB46  33        
 1907  02:CB47  32 32 31          .db $32,$32,$31,$31
       02:CB4A  31        
 1908  02:CB4B  30 30 2F          .db $30,$30,$2f,$2f
       02:CB4E  2F        
 1909  02:CB4F  2E 2E 2D          .db $2e,$2e,$2d,$2d
       02:CB52  2D        
 1910  02:CB53  2C 2C 2B          .db $2c,$2c,$2b,$2b
       02:CB56  2B        
 1911  02:CB57  2A 2A 2A          .db $2a,$2a,$2a,$29
       02:CB5A  29        
 1912  02:CB5B  29 28 28          .db $29,$28,$28,$28
       02:CB5E  28        
 1913  02:CB5F  27 27 27          .db $27,$27,$27,$26
       02:CB62  26        
 1914  02:CB63  26 26 25          .db $26,$26,$25,$25
       02:CB66  25        
 1915  02:CB67  25 24 24          .db $25,$24,$24,$24
       02:CB6A  24        
 1916  02:CB6B  24 23 23          .db $24,$23,$23,$23
       02:CB6E  23        
 1917  02:CB6F  22 22 22          .db $22,$22,$22,$22
       02:CB72  22        
 1918  02:CB73  22 21 21          .db $22,$21,$21,$21
       02:CB76  21        
 1919  02:CB77  20 20 20          .db $20,$20,$20,$20
       02:CB7A  20        
 1920  02:CB7B  1F 1F 1F          .db $1f,$1f,$1f,$1f
       02:CB7E  1F        
 1921  02:CB7F  1F 1E 1E          .db $1f,$1e,$1e,$1e
       02:CB82  1E        
 1922  02:CB83  1E 1E 1D          .db $1e,$1e,$1d,$1d
       02:CB86  1D        
 1923  02:CB87  1D 1D 1D          .db $1d,$1d,$1d,$1c
       02:CB8A  1C        
 1924  02:CB8B  1C 1C 1C          .db $1c,$1c,$1c,$1c
       02:CB8E  1C        
 1925  02:CB8F  1B 1B 1B          .db $1b,$1b,$1b,$1b
       02:CB92  1B        
 1926  02:CB93  1B 1B 1A          .db $1b,$1b,$1a,$1a
       02:CB96  1A        
 1927  02:CB97  1A 1A 1A          .db $1a,$1a,$1a,$1a
       02:CB9A  1A        
 1928  02:CB9B  1A 19 19          .db $1a,$19,$19,$19
       02:CB9E  19        
 1929  02:CB9F  19 19 19          .db $19,$19,$19,$19
       02:CBA2  19        
 1930  02:CBA3  18 18 18          .db $18,$18,$18,$18
       02:CBA6  18        
 1931  02:CBA7  18 18 18          .db $18,$18,$18,$17
       02:CBAA  17        
 1932  02:CBAB  17 17 17          .db $17,$17,$17,$17
       02:CBAE  17        
 1933  02:CBAF  17 17 17          .db $17,$17,$17,$17
       02:CBB2  17        
 1934  02:CBB3  16 16 16          .db $16,$16,$16,$16
       02:CBB6  16        
 1935  02:CBB7  16 16 16          .db $16,$16,$16,$16
       02:CBBA  16        
 1936  02:CBBB  16 15 15          .db $16,$15,$15,$15
       02:CBBE  15        
 1937  02:CBBF  15 15 15          .db $15,$15,$15,$15
       02:CBC2  15        
 1938  02:CBC3  15 15 15          .db $15,$15,$15,$14
       02:CBC6  14        
 1939  02:CBC7  14 14 14          .db $14,$14,$14,$14
       02:CBCA  14        
 1940  02:CBCB  14 14 14          .db $14,$14,$14,$14
       02:CBCE  14        
 1941  02:CBCF  14 14 13          .db $14,$14,$13,$13
       02:CBD2  13        
 1942  02:CBD3  13 13 13          .db $13,$13,$13,$13
       02:CBD6  13        
 1943  02:CBD7  13 13 13          .db $13,$13,$13,$13
       02:CBDA  13        
 1944  02:CBDB  13 13 12          .db $13,$13,$12,$12
       02:CBDE  12        
 1945  02:CBDF  12 12 12          .db $12,$12,$12,$12
       02:CBE2  12        
 1946  02:CBE3  12 12 12          .db $12,$12,$12,$12
       02:CBE6  12        
 1947  02:CBE7  12 12 12          .db $12,$12,$12,$11
       02:CBEA  11        
 1948  02:CBEB  11 11 11          .db $11,$11,$11,$11
       02:CBEE  11        
 1949  02:CBEF  11                .db $11 
 1950                     
 1951                     
 1952                     ;
 1953                     ; Envelope Data
 1954                     ; 
 1955                     
 1956                     
 1957                     ;
 1958                     ; envelope #0
 1959                     ;
 1960  02:CBF0            psg_env0:
 1961                             ENV_RLS $8410
       02:CBF0  FB                 .db $fb
       02:CBF1  10 84              .dw $8410
 1962                             ENV_LEV $7c40
       02:CBF3  FC                 .db $fc
       02:CBF4  40 7C              .dw $7c40
 1963                             ENV_DLY $00,$0000
       02:CBF6  00                 .db $00
       02:CBF7  00 00              .dw $0000
 1964                             ENV_END
       02:CBF9  FF                 .db $ff
 1965                     
 1966                     ;
 1967                     ; envelope #1
 1968                     ;
 1969  02:CBFA            psg_env1:
 1970                             ENV_RLS $fa05
       02:CBFA  FB                 .db $fb
       02:CBFB  05 FA              .dw $fa05
 1971                             ENV_LEV $7c40
       02:CBFD  FC                 .db $fc
       02:CBFE  40 7C              .dw $7c40
 1972                             ENV_DLY $0c,$fe01
       02:CC00  0C                 .db $0c
       02:CC01  01 FE              .dw $fe01
 1973                             ENV_END
       02:CC03  FF                 .db $ff
 1974                     
 1975                     ;
 1976                     ; envelope #2
 1977                     ;
 1978  02:CC04            psg_env2:
 1979                             ENV_RLS $fd05
       02:CC04  FB                 .db $fb
       02:CC05  05 FD              .dw $fd05
 1980                             ENV_LEV $7c40
       02:CC07  FC                 .db $fc
       02:CC08  40 7C              .dw $7c40
 1981                             ENV_DLY $0c,$fe01
       02:CC0A  0C                 .db $0c
       02:CC0B  01 FE              .dw $fe01
 1982                             ENV_END
       02:CC0D  FF                 .db $ff
 1983                     
 1984                     ;
 1985                     ; envelope #3
 1986                     ;
 1987  02:CC0E            psg_env3:
 1988                             ENV_RLS $ff01
       02:CC0E  FB                 .db $fb
       02:CC0F  01 FF              .dw $ff01
 1989                             ENV_LEV $7c40
       02:CC11  FC                 .db $fc
       02:CC12  40 7C              .dw $7c40
 1990                             ENV_DLY $0c,$fe01
       02:CC14  0C                 .db $0c
       02:CC15  01 FE              .dw $fe01
 1991                             ENV_END
       02:CC17  FF                 .db $ff
 1992                     
 1993                     ;
 1994                     ; envelope #4
 1995                     ;
 1996  02:CC18            psg_env4:
 1997                             ENV_RLS $fa05
       02:CC18  FB                 .db $fb
       02:CC19  05 FA              .dw $fa05
 1998                             ENV_LEV $7c40
       02:CC1B  FC                 .db $fc
       02:CC1C  40 7C              .dw $7c40
 1999                             ENV_DLY $00,$ff81
       02:CC1E  00                 .db $00
       02:CC1F  81 FF              .dw $ff81
 2000                             ENV_END
       02:CC21  FF                 .db $ff
 2001                     
 2002                     ;
 2003                     ; envelope #5
 2004                     ;
 2005  02:CC22            psg_env5:
 2006                             ENV_RLS $fa05
       02:CC22  FB                 .db $fb
       02:CC23  05 FA              .dw $fa05
 2007                             ENV_LEV $7c40
       02:CC25  FC                 .db $fc
       02:CC26  40 7C              .dw $7c40
 2008                             ENV_DLY $00,$ff01
       02:CC28  00                 .db $00
       02:CC29  01 FF              .dw $ff01
 2009                             ENV_END
       02:CC2B  FF                 .db $ff
 2010                     
 2011                     ;
 2012                     ; envelope #6
 2013                     ;
 2014  02:CC2C            psg_env6:
 2015                             ENV_RLS $fa05
       02:CC2C  FB                 .db $fb
       02:CC2D  05 FA              .dw $fa05
 2016                             ENV_LEV $7c40
       02:CC2F  FC                 .db $fc
       02:CC30  40 7C              .dw $7c40
 2017                             ENV_DLY $00,$fe01
       02:CC32  00                 .db $00
       02:CC33  01 FE              .dw $fe01
 2018                             ENV_END
       02:CC35  FF                 .db $ff
 2019                     
 2020                     ;
 2021                     ; envelope #7
 2022                     ;
 2023  02:CC36            psg_env7:
 2024                             ENV_RLS $fb05
       02:CC36  FB                 .db $fb
       02:CC37  05 FB              .dw $fb05
 2025                             ENV_LEV $2c40
       02:CC39  FC                 .db $fc
       02:CC3A  40 2C              .dw $2c40
 2026                             ENV_DLY $02,$2801
       02:CC3C  02                 .db $02
       02:CC3D  01 28              .dw $2801
 2027                             ENV_DLY $00,$ff81
       02:CC3F  00                 .db $00
       02:CC40  81 FF              .dw $ff81
 2028                             ENV_END
       02:CC42  FF                 .db $ff
 2029                     
 2030                     ;
 2031                     ; envelope #8
 2032                     ;
 2033  02:CC43            psg_env8:
 2034                             ENV_RLS $fb05
       02:CC43  FB                 .db $fb
       02:CC44  05 FB              .dw $fb05
 2035                             ENV_LEV $3440
       02:CC46  FC                 .db $fc
       02:CC47  40 34              .dw $3440
 2036                             ENV_DLY $03,$1801
       02:CC49  03                 .db $03
       02:CC4A  01 18              .dw $1801
 2037                             ENV_DLY $00,$ff81
       02:CC4C  00                 .db $00
       02:CC4D  81 FF              .dw $ff81
 2038                             ENV_END
       02:CC4F  FF                 .db $ff
 2039                     
 2040                     ;
 2041                     ; envelope #9
 2042                     ;
 2043  02:CC50            psg_env9:
 2044                             ENV_RLS $fb05
       02:CC50  FB                 .db $fb
       02:CC51  05 FB              .dw $fb05
 2045                             ENV_LEV $1c40
       02:CC53  FC                 .db $fc
       02:CC54  40 1C              .dw $1c40
 2046                             ENV_DLY $01,$6001
       02:CC56  01                 .db $01
       02:CC57  01 60              .dw $6001
 2047                             ENV_DLY $02,$fe01
       02:CC59  02                 .db $02
       02:CC5A  01 FE              .dw $fe01
 2048                             ENV_DLY $08,$fc01
       02:CC5C  08                 .db $08
       02:CC5D  01 FC              .dw $fc01
 2049                             ENV_DLY $32,$0081
       02:CC5F  32                 .db $32
       02:CC60  81 00              .dw $0081
 2050                             ENV_END
       02:CC62  FF                 .db $ff
 2051                     
 2052                     ;
 2053                     ; envelope #$0a
 2054                     ;
 2055  02:CC63            psg_enva:
 2056                             ENV_RLS $fd01
       02:CC63  FB                 .db $fb
       02:CC64  01 FD              .dw $fd01
 2057                             ENV_LEV $0440
       02:CC66  FC                 .db $fc
       02:CC67  40 04              .dw $0440
 2058                             ENV_DLY $03,$2801
       02:CC69  03                 .db $03
       02:CC6A  01 28              .dw $2801
 2059                             ENV_DLY $04,$fe01
       02:CC6C  04                 .db $04
       02:CC6D  01 FE              .dw $fe01
 2060                             ENV_END
       02:CC6F  FF                 .db $ff
 2061                     
 2062                     ;
 2063                     ; envelope #$0b
 2064                     ;
 2065  02:CC70            psg_envb:
 2066                             ENV_RLS $fd01
       02:CC70  FB                 .db $fb
       02:CC71  01 FD              .dw $fd01
 2067                             ENV_LEV $0000
       02:CC73  FC                 .db $fc
       02:CC74  00 00              .dw $0000
 2068                             ENV_LEV $0000
       02:CC76  FC                 .db $fc
       02:CC77  00 00              .dw $0000
 2069                             ENV_LEV $7c40
       02:CC79  FC                 .db $fc
       02:CC7A  40 7C              .dw $7c40
 2070                             ENV_DLY $00,$ffc1
       02:CC7C  00                 .db $00
       02:CC7D  C1 FF              .dw $ffc1
 2071                             ENV_END
       02:CC7F  FF                 .db $ff
 2072                     
 2073                     ;
 2074                     ; envelope #$0c
 2075                     ;
 2076  02:CC80            psg_envc:
 2077                             ENV_RLS $fa05
       02:CC80  FB                 .db $fb
       02:CC81  05 FA              .dw $fa05
 2078                             ENV_LEV $0000
       02:CC83  FC                 .db $fc
       02:CC84  00 00              .dw $0000
 2079                             ENV_LEV $0000
       02:CC86  FC                 .db $fc
       02:CC87  00 00              .dw $0000
 2080                             ENV_LEV $6840
       02:CC89  FC                 .db $fc
       02:CC8A  40 68              .dw $6840
 2081                             ENV_DLY $00,$0061
       02:CC8C  00                 .db $00
       02:CC8D  61 00              .dw $0061
 2082                             ENV_END
       02:CC8F  FF                 .db $ff
 2083                     
 2084                     ;
 2085                     ; envelope #$0d
 2086                     ;
 2087  02:CC90            psg_envd:
 2088                             ENV_RLS $fa05
       02:CC90  FB                 .db $fb
       02:CC91  05 FA              .dw $fa05
 2089                             ENV_LEV $7c40
       02:CC93  FC                 .db $fc
       02:CC94  40 7C              .dw $7c40
 2090                             ENV_DLY $04,$f801
       02:CC96  04                 .db $04
       02:CC97  01 F8              .dw $f801
 2091                             ENV_DLY $00,$ff41
       02:CC99  00                 .db $00
       02:CC9A  41 FF              .dw $ff41
 2092                             ENV_END
       02:CC9C  FF                 .db $ff
 2093                     
 2094                     ;
 2095                     ; envelope #$0e
 2096                     ;
 2097  02:CC9D            psg_enve:
 2098                             ENV_RLS $fa05
       02:CC9D  FB                 .db $fb
       02:CC9E  05 FA              .dw $fa05
 2099                             ENV_LEV $7c40
       02:CCA0  FC                 .db $fc
       02:CCA1  40 7C              .dw $7c40
 2100                             ENV_DLY $08,$f801
       02:CCA3  08                 .db $08
       02:CCA4  01 F8              .dw $f801
 2101                             ENV_DLY $00,$ff41
       02:CCA6  00                 .db $00
       02:CCA7  41 FF              .dw $ff41
 2102                             ENV_END
       02:CCA9  FF                 .db $ff
 2103                     
 2104                     ;
 2105                     ; envelope #$0f
 2106                     ;
 2107  02:CCAA            psg_envf:
 2108                             ENV_RLS $ff00
       02:CCAA  FB                 .db $fb
       02:CCAB  00 FF              .dw $ff00
 2109                             ENV_LEV $7c40
       02:CCAD  FC                 .db $fc
       02:CCAE  40 7C              .dw $7c40
 2110                             ENV_DLY $05,$fc01
       02:CCB0  05                 .db $05
       02:CCB1  01 FC              .dw $fc01
 2111                             ENV_LEV $7040
       02:CCB3  FC                 .db $fc
       02:CCB4  40 70              .dw $7040
 2112                             ENV_DLY $05,$fc01
       02:CCB6  05                 .db $05
       02:CCB7  01 FC              .dw $fc01
 2113                             ENV_LEV $6440
       02:CCB9  FC                 .db $fc
       02:CCBA  40 64              .dw $6440
 2114                             ENV_DLY $05,$fc01
       02:CCBC  05                 .db $05
       02:CCBD  01 FC              .dw $fc01
 2115                             ENV_LEV $5840
       02:CCBF  FC                 .db $fc
       02:CCC0  40 58              .dw $5840
 2116                             ENV_DLY $05,$fc01
       02:CCC2  05                 .db $05
       02:CCC3  01 FC              .dw $fc01
 2117                             ENV_LEV $4c40
       02:CCC5  FC                 .db $fc
       02:CCC6  40 4C              .dw $4c40
 2118                             ENV_DLY $05,$fc01
       02:CCC8  05                 .db $05
       02:CCC9  01 FC              .dw $fc01
 2119                             ENV_LEV $4040
       02:CCCB  FC                 .db $fc
       02:CCCC  40 40              .dw $4040
 2120                             ENV_DLY $05,$fc01
       02:CCCE  05                 .db $05
       02:CCCF  01 FC              .dw $fc01
 2121                             ENV_DLY $00,$ff01
       02:CCD1  00                 .db $00
       02:CCD2  01 FF              .dw $ff01
 2122                             ENV_END
       02:CCD4  FF                 .db $ff
 2123                     
 2124                     
 2125                     ; 
 2126                     ; Envelope Header (pointers to data)
 2127                     ;
 2128  02:CCD5            psg_envtbl:
 2129  02:CCD5  F0 CB             .dw psg_env0
 2130  02:CCD7  FA CB             .dw psg_env1
 2131  02:CCD9  04 CC             .dw psg_env2
 2132  02:CCDB  0E CC             .dw psg_env3
 2133  02:CCDD  18 CC             .dw psg_env4
 2134  02:CCDF  22 CC             .dw psg_env5
 2135  02:CCE1  2C CC             .dw psg_env6
 2136  02:CCE3  36 CC             .dw psg_env7
 2137  02:CCE5  43 CC             .dw psg_env8
 2138  02:CCE7  50 CC             .dw psg_env9
 2139  02:CCE9  63 CC             .dw psg_enva
 2140  02:CCEB  70 CC             .dw psg_envb
 2141  02:CCED  80 CC             .dw psg_envc
 2142  02:CCEF  90 CC             .dw psg_envd
 2143  02:CCF1  9D CC             .dw psg_enve
 2144  02:CCF3  AA CC             .dw psg_envf
 2145                     
 2146                     
 2147                     ;
 2148                     ; now, return context to bank established in
 2149                     ; file which included this
 2150                     ;
 2151           0000              .bank   START_BANK
 2152                     
#[2]   startup.asm
 1231                            .endif   ; CDROM
 1232                     
 1233                     ; ----
 1234                     ; disp_on
 1235                     ; ----
 1236                     ; enable display
 1237                     ; ----
 1238                     
 1239           0001             .ifdef HUC
 1240  00:FC09            _disp_on:
 1241  00:FC09  AE 8E 26          ldx   disp_cr
 1242  00:FC0C  A9 01             lda   #1
 1243  00:FC0E  8D 8E 26          sta   disp_cr
 1244  00:FC11  62                cla
 1245  00:FC12  60                rts
 1246                            .else
 1251                            .endif   ; HUC
 1252                     
 1253                     ; ----
 1254                     ; disp_off
 1255                     ; ----
 1256                     ; disable display
 1257                     ; ----
 1258                     
 1259           0001             .ifdef HUC
 1260  00:FC13            _disp_off:
 1261  00:FC13  AE 8E 26          ldx   disp_cr
 1262  00:FC16  9C 8E 26          stz   disp_cr
 1263  00:FC19  62                cla
 1264  00:FC1A  60                rts
 1265                            .else
 1269                            .endif   ; HUC
 1270                     
 1271                     ; ----
 1272                     ; set_intvec
 1273                     ; ----
 1274                     ; set interrupt vector
 1275                     ; ----
 1276                     ; IN : A = vector number
 1277                     ;           0 IRQ2
 1278                     ;           1 IRQ1 (VDC)
 1279                     ;           2 TIMER
 1280                     ;           3 NMI
 1281                     ;           4 VSYNC
 1282                     ;           5 HSYNC
 1283                     ;           6 SOFT RESET (RUN + SELECT)
 1284                     ;      X = vector address low byte
 1285                     ;      Y =   "      "    high byte
 1286                     ; ----
 1287                     
 1288           0001             .if  !(CDROM)
 1289                     
 1290  00:FC1B            set_intvec:
 1291  00:FC1B  08                php
 1292  00:FC1C  78                sei
 1293  00:FC1D  C9 06             cmp   #6
 1294                             blo  .vector
       00:FC1F  90 0A              bcc    .vector
 1295  00:FC21  D0 14             bne  .exit
 1296  00:FC23            .reset:
 1297  00:FC23  8E 84 22          stx   soft_reset
 1298  00:FC26  8C 85 22          sty   soft_reset+1
 1299  00:FC29  80 0C             bra  .exit      
 1300  00:FC2B            .vector:
 1301  00:FC2B  48                pha
 1302  00:FC2C  0A                asl   A
 1303  00:FC2D  22                sax
 1304  00:FC2E  9D 00 22          sta   user_jmptbl,X
 1305  00:FC31  E8                inx
 1306  00:FC32  98                tya
 1307  00:FC33  9D 00 22          sta   user_jmptbl,X
 1308  00:FC36  68                pla
 1309  00:FC37            .exit:
 1310  00:FC37  28                plp
 1311  00:FC38  60                rts
 1312                            .endif   ; !(CDROM)
 1313                     
 1314                     ; ----
 1315                     ; wait_vsync
 1316                     ; ----
 1317                     ; wait the next vsync
 1318                     ; ----
 1319                     ; IN :  A = number of frames to be sync'ed on
 1320                     ; ----
 1321                     ; OUT:  A = number of elapsed frames since last call
 1322                     ; ----
 1323                     
 1324  00:FC39            wait_vsync:
 1325  00:FC39  1F F5 03          bbr1 <irq_m,.l1
 1326  00:FC3C  62                cla                     ; return immediately if IRQ1 is redirected
 1327           0001             .ifdef HUC
 1328  00:FC3D  82                clx
 1329                            .endif
 1330  00:FC3E  60                rts
 1331                     
 1332  00:FC3F  78        .l1:    sei                     ; disable interrupts
 1333  00:FC40  CD 41 22          cmp   irq_cnt           ; calculate how many frames to wait
 1334  00:FC43  F0 05             beq  .l2
 1335                             bhs  .l3
       00:FC45  B0 04              bcs    .l3
 1336  00:FC47  AD 41 22          lda   irq_cnt
 1337  00:FC4A  1A        .l2:    inc   A
 1338                     .l3:    sub   irq_cnt
                0000              .if (1 = 2)            ; from register A (handle
                                  .else
       00:FC4B  38                 sec
       00:FC4C  ED 41 22           sbc    irq_cnt
                                  .endif
 1339  00:FC4F  8D 80 26          sta   vsync_cnt
 1340  00:FC52  58                cli                     ; re-enable interrupts
 1341                     
 1342  00:FC53  AD 41 22  .l4:    lda   irq_cnt           ; wait loop
 1343                     .l5:    incw  _rndseed
       00:FC56  EE 43 27           inc    _rndseed              ; value at stated memory
       00:FC59  D0 03              bne    .x_00713           ; location
       00:FC5B  EE 44 27           inc    _rndseed+1
       00:FC5E            .x_00713:
 1344  00:FC5E  CD 41 22          cmp   irq_cnt
 1345  00:FC61  F0 F3             beq  .l5
 1346  00:FC63  CE 80 26          dec   vsync_cnt
 1347  00:FC66  D0 EB             bne  .l4
 1348                     
 1349  00:FC68  9C 41 22          stz   irq_cnt           ; reset system interrupt counter
 1350  00:FC6B  1A                inc   A                 ; return number of elapsed frames
 1351                     
 1352           0000             .ifndef HUC
 1354                            .else
 1355                     
 1356                         ; ----
 1357                         ; callback support
 1358                     
 1359  00:FC6C  48                pha
 1360  00:FC6D  AD 88 26          lda   joycallback       ; callback valid?
 1361  00:FC70  10 34             bpl  .t3
 1362  00:FC72  89 01             bit   #$01
 1363  00:FC74  D0 30             bne  .t3
 1364                     
 1365  00:FC76  AD 89 26          lda   joycallback+1     ; get events for all the 
 1366  00:FC79  F0 2B             beq  .t3                ; selected joypads
 1367  00:FC7B  85 F8             sta  <_al
 1368  00:FC7D  C2                cly
 1369  00:FC7E  62                cla
 1370  00:FC7F  46 F8     .t1:    lsr  <_al
 1371  00:FC81  90 03             bcc  .t2
 1372  00:FC83  19 81 26          ora   joybuf,Y
 1373  00:FC86  C8        .t2:    iny
 1374  00:FC87  C0 05             cpy   #5
 1375                             blo  .t1
       00:FC89  90 F4              bcc    .t1
 1376                     
 1377  00:FC8B  2D 8A 26          and   joycallback+2     ; compare with requested state
 1378  00:FC8E  F0 16             beq  .t3
 1379                     
 1380  00:FC90  EE 88 26          inc   joycallback       ; lock callback feature
 1381  00:FC93  AA                tax                     ; call user routine
 1382  00:FC94  43 20             tma   #5
 1383  00:FC96  48                pha
 1384  00:FC97  AD 8B 26          lda   joycallback+3
 1385  00:FC9A  53 20             tam   #5
 1386  00:FC9C  62                cla
 1387  00:FC9D  20 A9 FC          jsr  .callback
 1388  00:FCA0  68                pla
 1389  00:FCA1  53 20             tam   #5
 1390  00:FCA3  CE 88 26          dec   joycallback       ; unlock
 1391                             ; --
 1392  00:FCA6  FA        .t3:    plx
 1393  00:FCA7  62                cla
 1394  00:FCA8  60                rts
 1395                     
 1396                         ; ----
 1397                         ; user routine callback
 1398                         ;
 1399  00:FCA9            .callback:
 1400  00:FCA9  6C 8C 26          jmp   [joycallback+4]
 1401                            .endif   ; ndef HUC
 1402                     
#[3]   joypad.asm
 1403                            .include  "joypad.asm"   ; read joypad values
    1                     ; ----
    2                     ; read_joypad
    3                     ; ----
    4                     ; poll joypads
    5                     ;
    6                     ; 'joyport' (location $1000) is a control read/write port which only reads
    7                     ; 4 bits at a time; the program uses joyport to toggle the multiplex line
    8                     ;
    9                     ; real logic values are read into the port - the joypad's keys are default
   10                     ; high, and 'pulled' low when pressed.  Therefore, these values must be
   11                     ; inverted/complemented to yield values where '1' means 'pressed'
   12                     ;
   13                     ; bit values for joypad bytes: (MSB = #7; LSB = #0)
   14                     ; -------------------------------------------------
   15                     ; bit 0 (ie $01) = I
   16                     ; bit 1 (ie $02) = II
   17                     ; bit 2 (ie $04) = 'select'
   18                     ; bit 3 (ie $08) = 'run'
   19                     ; bit 4 (ie $10) = UP
   20                     ; bit 5 (ie $20) = RIGHT
   21                     ; bit 6 (ie $40) = DOWN
   22                     ; bit 7 (ie $80) = LEFT
   23                     ; ----
   24                     ; bit values for joypad 6-button bytes: (MSB = #7; LSB = #0)
   25                     ; ----------------------------------------------------------
   26                     ; bit 0   (ie $01) = III
   27                     ; bit 1   (ie $02) = IV
   28                     ; bit 2   (ie $04) = V
   29                     ; bit 3   (ie $08) = VI
   30                     ; bit 4-7 (ie $F0) = exists (all on or all off)
   31                     ; ----
   32                     
   33                     ; Note: Read twice for 6-button joysticks.
   34                     ; First read should be for 'joy' and second for
   35                     ; 'joy6'; need to hide values temporarily while
   36                     ; scanning twice.
   37                     
   38  00:FCAC            read_joypad:
   39                             maplibfunc  lib2_readjoy
       00:FCAC  A8                 tay
       00:FCAD  43 20              tma  #page(lib2_readjoy)
       00:FCAF  48                 pha
       00:FCB0  A9 01              lda  #bank(lib2_readjoy)
       00:FCB2  53 20              tam  #page(lib2_readjoy)
       00:FCB4  98                 tya
       00:FCB5  20 C3 B4           jsr  lib2_readjoy
       00:FCB8  A8                 tay
       00:FCB9  68                 pla
       00:FCBA  53 20              tam  #page(lib2_readjoy)
       00:FCBC  98                 tya
   40  00:FCBD  60                rts
   41                     
   42           0001              .bank   LIB2_BANK
   43                     
   44  01:B4C3            lib2_readjoy:
   45  01:B4C3  AD 27 22          lda   joyena            ; suppress reset during individual read
   46  01:B4C6  48                pha
   47  01:B4C7  9C 27 22          stz   joyena
   48                     
   49           0000             .if (CDROM)
   51                            .else
   52  01:B4CA  20 75 B5          jsr  .readjoys
   53                            .endif
   54                     
   55  01:B4CD  73 28 22          tii   joy, joy6, 5      ; move to 6-button area
       01:B4D0  93 26 05  
       01:B4D3  00        
   56                     
   57           0000             .if (CDROM)
   59                            .else
   60  01:B4D4  20 75 B5          jsr  .readjoys
   61                            .endif
   62                     
   63  01:B4D7  68                pla
   64  01:B4D8  8D 27 22          sta   joyena
   65                     
   66  01:B4DB  73 A7 26          tii   joytmp, joyold, 5         ; restore past info from stash
       01:B4DE  32 22 05  
       01:B4E1  00        
   67  01:B4E2  73 AC 26          tii   joytmp6, joyold6, 5
       01:B4E5  9D 26 05  
       01:B4E8  00        
   68                     
   69                             ;
   70                             ; the '.l2' loop determines if first or
   71                             ; second scans imply a 6-button joystick,
   72                             ; and rearrange bytes if out of order,
   73                             ; and zero the joy6 area if necessary
   74                             ;
   75  01:B4E9  C2                cly
   76  01:B4EA  B9 28 22  .l2:    lda   joy,Y             ; check if 6-button joypad, and
   77  01:B4ED  AA                tax
   78  01:B4EE  29 50             and   #JOY_TYPE6        ; scans became backwards somehow
   79  01:B4F0  C9 50             cmp   #JOY_TYPE6
   80  01:B4F2  D0 0A             bne  .notswap
   81  01:B4F4  B9 93 26          lda   joy6,Y            ; then swap them if they need it
   82  01:B4F7  99 28 22          sta   joy,Y
   83  01:B4FA  22                sax
   84  01:B4FB  99 93 26          sta   joy6,Y
   85                     
   86  01:B4FE            .notswap:
   87  01:B4FE  B9 93 26          lda   joy6,Y            ; verify whether a 6-button exists
   88  01:B501  29 50             and   #JOY_TYPE6
   89  01:B503  C9 50             cmp   #JOY_TYPE6
   90  01:B505  F0 04             beq  .type6
   91  01:B507  62                cla
   92  01:B508  99 93 26          sta   joy6,Y            ; not 6-button, so clear extra entry
   93                     
   94  01:B50B            .type6:
   95  01:B50B  B9 93 26          lda   joy6,Y            ; strip off unused bits
   96  01:B50E  29 5F             and   #(JOY_III | JOY_IV | JOY_V | JOY_VI | JOY_TYPE6)
   97  01:B510  99 93 26          sta   joy6,Y            ; clear unnecessary bits
   98                     
   99                     
  100                             ;
  101                             ; The '.l2a' area sets appropriate values
  102                             ; for all of the joytrg and joybuf areas
  103                             ;
  104                     
  105  01:B513  B9 28 22  .l2a:   lda   joy,Y
  106  01:B516  59 32 22          eor   joyold,Y          ; check against previous value
  107  01:B519  39 28 22          and   joy,Y
  108  01:B51C  99 2D 22          sta   joytrg,Y          ; 'new key pressed' key values
  109                     
  110                         ; ----
  111                         ; buffered 'new key pressed'
  112                         ; see joy_events();
  113                         ;
  114  01:B51F  19 81 26          ora   joybuf,Y          ; collect 'new key pressed'
  115  01:B522  99 81 26          sta   joybuf,Y
  116                     
  117                         ; ----
  118                         ; repeat the joyold/joytrg/joybuf stuff
  119                         ; for 6-button values
  120                         ;
  121  01:B525  B9 93 26          lda   joy6,Y
  122  01:B528  59 9D 26          eor   joyold6,Y
  123  01:B52B  39 93 26          and   joy6,Y
  124  01:B52E  99 98 26          sta   joytrg6,Y
  125  01:B531  19 A2 26          ora   joybuf6,Y
  126  01:B534  99 A2 26          sta   joybuf6,Y
  127                     
  128                         ; ----
  129                         ; next joypad
  130                         ;
  131  01:B537  C8                iny
  132  01:B538  C0 05             cpy   #$05              ; cycle for next of 5 joypads
  133  01:B53A  90 AE             bcc  .l2
  134                     
  135                         ; ----
  136                         ; soft reset check
  137                         ;
  138  01:B53C  C2                cly                     ; start cycle of 5 joypads
  139  01:B53D  AD 27 22  .l3:    lda   joyena            ; find mask of 'important' joysticks
  140  01:B540  39 B9 B5          and  .bitmsk,Y
  141  01:B543  F0 11             beq  .l4                ; not important enough to check
  142  01:B545  B9 2D 22          lda   joytrg,Y
  143  01:B548  C9 04             cmp   #$04              ; 'select' key newly-pressed ?
  144  01:B54A  D0 0A             bne  .l4
  145  01:B54C  B9 28 22          lda   joy,Y
  146  01:B54F  C9 0C             cmp   #$0C              ; 'run+select' currently pressed ?
  147  01:B551  D0 03             bne  .l4
  148                     
  149           0000             .if (DEVELO)
  151                            .else
  152  01:B553  6C 84 22          jmp   [soft_reset]      ; run+select 'soft reset' vector
  153                            .endif   ; (DEVELO)
  154                     
  155  01:B556  C8        .l4:    iny                     ; try next joypad
  156  01:B557  C0 05             cpy   #$05
  157  01:B559  90 E2             bcc  .l3
  158                     
  159                         ; ----
  160                         ; joyread hook
  161                         ;
  162           0001             .ifdef HUC
  163                             tstw  joyhook
       01:B55B  AD 86 26           lda   joyhook               ; value at stated memory
       01:B55E  0D 87 26           ora   joyhook+1             ; location is zero
  164  01:B561  F0 03             beq  .l5
  165  01:B563  20 BE B5          jsr  .hook
  166  01:B566            .l5:
  167                            .endif   ; HUC
  168                     
  169                     
  170                         ; ----
  171                         ; return
  172                         ;
  173  01:B566  73 28 22          tii   joy, joytmp, 5    ; stash values for next read because CDROM
       01:B569  A7 26 05  
       01:B56C  00        
  174  01:B56D  73 93 26          tii   joy6, joytmp6, 5  ; may force another read between VSYNC's
       01:B570  AC 26 05  
       01:B573  00        
  175                     
  176  01:B574  60                rts
  177                     
  178                     
  179           0001             .if !(CDROM)
  180                         ; ----
  181                         ; read 5 joystick values into 'joy' buffer area
  182                         ;
  183  01:B575            .readjoys:
  184  01:B575  73 28 22          tii   joy, joyold, 5
       01:B578  32 22 05  
       01:B57B  00        
  185  01:B57C  A9 01             lda   #$01              ; reset joypad port to joystick #1
  186  01:B57E  8D 00 10          sta   joyport
  187  01:B581  A9 03             lda   #$03
  188  01:B583  8D 00 10          sta   joyport
  189  01:B586  20 B3 B5          jsr   .delay
  190                     
  191  01:B589  C2                cly                     ; counter for 5 joypads
  192  01:B58A  A9 01     .rdlp:  lda   #$01              ; first nybble
  193  01:B58C  8D 00 10          sta   joyport
  194  01:B58F  44 22             bsr  .delay             ; required delay (approx 9 cycles)
  195                     
  196  01:B591  AD 00 10          lda   joyport           ; fetch first nybble
  197  01:B594  0A                asl   A                 ; shift it to 'high' position within byte
  198  01:B595  0A                asl   A
  199  01:B596  0A                asl   A
  200  01:B597  0A                asl   A
  201  01:B598  99 28 22          sta   joy,Y             ; store in 'current' area
  202  01:B59B  9C 00 10          stz   joyport           ; toggle port (to read other 4 key values)
  203  01:B59E  44 13             bsr  .delay             ; delay again
  204  01:B5A0  AD 00 10          lda   joyport           ; fetch second nybble
  205  01:B5A3  29 0F             and   #$0F              ; clear unused bits
  206  01:B5A5  19 28 22          ora   joy,Y             ; merge 2 nybbles into 1 byte
  207  01:B5A8  49 FF             eor   #$FF              ; reset 'sense' of keys
  208  01:B5AA  99 28 22          sta   joy,Y             ; store it
  209  01:B5AD  C8                iny
  210  01:B5AE  C0 05             cpy   #$05              ; cycle for next of 5 joypads
  211  01:B5B0  90 D8             bcc  .rdlp
  212                     
  213  01:B5B2  60                rts
  214                     
  215                     
  216                         ; ----
  217                         ; small delay
  218                         ;
  219  01:B5B3            .delay:
  220  01:B5B3  A2 03             ldx   #3
  221  01:B5B5  CA        .l6:    dex
  222  01:B5B6  D0 FD             bne  .l6
  223  01:B5B8  60                rts
  224                     
  225                            .endif   ; !(CDROM)
  226                     
  227  01:B5B9            .bitmsk:
  228  01:B5B9  01 02 04          .db $01,$02,$04,$08,$10 ; bit-masks for check-reset
       01:B5BC  08 10     
  229                     
  230                         ; ----
  231                         ; user routine
  232                         ;
  233           0001             .ifdef HUC
  234  01:B5BE            .hook:
  235  01:B5BE  6C 86 26          jmp   [joyhook]
  236                            .endif   ; HUC
  237                     
  238                     ; At end of all this lib2_bank stuff, we need to return
  239                     ; to the base context of lib1_bank:
  240                     
  241           0000              .bank  LIB1_BANK
  242                     
#[2]   startup.asm
 1404                     
 1405                     
 1406                     ;[ USER PROGRAM ]
 1407                     
 1408                     ;       .nomlist
 1409                     ;       .list
 1410                     
 1411                             ;...
 1412                     
 1413                     ;       .endif
 1414                     
#[1]   mouse.s
   14           60C8              .data
   15           0004              .bank DATA_BANK
   16                     
   17           FCBE              .code
   18                     
   19                     ;#include "huc.h"
   20                     ;/*
   21                     ; * backup ram defines
   22                     ; */
   23                     ;#define  BM_OK             0
   24                     ;#define  BM_NOT_FOUND      1
   25                     ;#define  BM_BAD_CHECKSUM   2
   26                     ;#define  BM_DIR_CORRUPTED  3
   27                     ;#define  BM_FILE_EMPTY     4
   28                     ;#define  BM_FULL           5
   29                     ;#define  BM_NOT_FORMATED   0xFF
   30                     ;#define  BRAM_STARTPTR     0x8010
   31                     ;/*
   32                     ; * sprite defines
   33                     ; */
   34                     ;#define  FLIP_X_MASK 0x08
   35                     ;#define  FLIP_Y_MASK 0x80
   36                     ;#define  FLIP_MAS   0x88
   37                     ;#define  SIZE_MAS   0x31
   38                     ;#define  NO_FLIP    0x00
   39                     ;#define  NO_FLIP_X  0x00
   40                     ;#define  NO_FLIP_Y  0x00
   41                     ;#define  FLIP_X     0x08
   42                     ;#define  FLIP_Y     0x80
   43                     ;#define  SZ_16x16   0x00
   44                     ;#define  SZ_16x32   0x10
   45                     ;#define  SZ_16x64   0x30
   46                     ;#define  SZ_32x16   0x01
   47                     ;#define  SZ_32x32   0x11
   48                     ;#define  SZ_32x64   0x31
   49                     ;/*
   50                     ; * joypad defines
   51                     ; */
   52                     ;#define        JOY_A           0x01
   53                     ;#define        JOY_B           0x02
   54                     ;#define        JOY_SLCT        0x04
   55                     ;#define        JOY_STRT        0x08
   56                     ;#define        JOY_UP          0x10
   57                     ;#define        JOY_RGHT        0x20
   58                     ;#define        JOY_DOWN        0x40
   59                     ;#define        JOY_LEFT        0x80
   60                     ;#define        JOY_C           0x0100
   61                     ;#define        JOY_D           0x0200
   62                     ;#define        JOY_E           0x0400
   63                     ;#define        JOY_F           0x0800
   64                     ;#define JOY_SIXBUT     0x5000
   65                     ;/*
   66                     ; * screen defines
   67                     ; */
   68                     ;#define        SCR_SIZE_32x32  0
   69                     ;#define        SCR_SIZE_64x32  1
   70                     ;#define        SCR_SIZE_128x32 3
   71                     ;#define        SCR_SIZE_32x64  4
   72                     ;#define        SCR_SIZE_64x64  5
   73                     ;#define        SCR_SIZE_128x64 7
   74                     ;#define        XRES_SHARP      0
   75                     ;#define        XRES_SOFT       4
   76                     ;/*
   77                     ; * CD defines
   78                     ; */
   79                     ;#define        CDPLAY_MUTE             0
   80                     ;#define        CDPLAY_REPEAT           1
   81                     ;#define        CDPLAY_NORMAL           2
   82                     ;#define        CDPLAY_ENDOFDISC        0
   83                     ;#define        CDFADE_CANCEL   0
   84                     ;#define        CDFADE_PCM6     8
   85                     ;#define        CDFADE_ADPCM6   10
   86                     ;#define        CDFADE_PCM2     12
   87                     ;#define        CDFADE_ADPCM2   14
   88                     ;#define CDTRK_AUDIO    0
   89                     ;#define CDTRK_DATA     4
   90                     ;/*
   91                     ; * ADPCM defines
   92                     ; */
   93                     ;#define        ADPLAY_AUTOSTOP         0
   94                     ;#define        ADPLAY_REPEAT           0x80
   95                     ;#define ADPLAY_FREQ_16KHZ      0xE
   96                     ;#define ADPLAY_FREQ_10KHZ      0xD
   97                     ;#define ADPLAY_FREQ_8KHZ       0xC
   98                     ;#define ADPLAY_FREQ_6KHZ       0xB
   99                     ;#define ADPLAY_FREQ_5KHZ       0xA
  100                     ;#define ADREAD_RAM     0
  101                     ;#define ADREAD_VRAM    0xFF
  102                     ;#define ADWRITE_RAM    0
  103                     ;#define ADWRITE_VRAM   0xFF
  104                     ;main()
  105  05:4000                    .proc _main
  106                     ;{
  107                     ;   static int abs_x, abs_y;
  108           2987              .bss
  109           2987              .bss
  110  --:2987            LL2:            .ds     2
  111           2989              .bss
  112  --:2989            LL3:            .ds     2
  113                     ;   abs_x = 0;
  114           A000              .code
  115                             __ldwi  0
       05:A000  A2 00              ldx    #low(0)
       05:A002  A9 00              lda    #high(0)
  116                             __stw   LL2
       05:A004  8E 87 29           stx    LL2
       05:A007  8D 88 29           sta    LL2+1
  117                     ;   abs_y = 0;
  118                             __ldwi  0
       05:A00A  A2 00              ldx    #low(0)
       05:A00C  A9 00              lda    #high(0)
  119                             __stw   LL3
       05:A00E  8E 89 29           stx    LL3
       05:A011  8D 8A 29           sta    LL3+1
  120                     ;   set_color(0,0);
  121                             __ldwi  0
       05:A014  A2 00              ldx    #low(0)
       05:A016  A9 00              lda    #high(0)
  122                             __stw   _color_reg
       05:A018  8E 02 04           stx    _color_reg
       05:A01B  8D 03 04           sta    _color_reg+1
  123                             __ldwi  0
       05:A01E  A2 00              ldx    #low(0)
       05:A020  A9 00              lda    #high(0)
  124                             __stw   _color_data
       05:A022  8E 04 04           stx    _color_data
       05:A025  8D 05 04           sta    _color_data+1
  125                     ;   set_color(1,511);
  126                             __ldwi  1
       05:A028  A2 01              ldx    #low(1)
       05:A02A  A9 00              lda    #high(1)
  127                             __stw   _color_reg
       05:A02C  8E 02 04           stx    _color_reg
       05:A02F  8D 03 04           sta    _color_reg+1
  128                             __ldwi  511
       05:A032  A2 FF              ldx    #low(511)
       05:A034  A9 01              lda    #high(511)
  129                             __stw   _color_data
       05:A036  8E 04 04           stx    _color_data
       05:A039  8D 05 04           sta    _color_data+1
  130                     ;   for (;;)
  131  05:A03C            LL4:
  132                     
  133  05:A03C            LL5:
  134                     
  135  05:A03C            LL6:
  136                     
  137                     ;   {
  138                     ;     put_string("joy 0:", 2, 2); 
  139                             __ldwi  LL0+0
       05:A03C  A2 00              ldx    #low(LL0+0)
       05:A03E  A9 40              lda    #high(LL0+0)
  140                             __phw   3,3
                                   ; #1 (bytes :  9, cycles : 16)
                                   ; #2 (bytes : 16, cycles : 28)
                          
                0001              .if (2 = 2)
       05:A040  A8                 tay
       05:A041  A5 02              lda    <__arg_idx
                                   add    #3
                0000              .if (1 = 2)            ; register A (handle carry
                                  .else
       05:A043  18                 clc
       05:A044  69 03              adc    #3
                                  .endif
       05:A046  85 02              sta    <__arg_idx
       05:A048  42                 say
                                  .else
                                  .endif
                          
       05:A049  99 88 29           sta    __arg-(3),Y
       05:A04C  8A                 txa
       05:A04D  99 89 29           sta    __arg-(3-1),Y
  141                             __ldwi  2
       05:A050  A2 02              ldx    #low(2)
       05:A052  A9 00              lda    #high(2)
  142                             __phb   1
                                   ; #1 (bytes :  6, cycles : 11)
                                   ; #2 (bytes : 12, cycles : 21)
                          
                0000              .if (1 = 2)
                                  .else
       05:A054  A4 02              ldy    <__arg_idx
                                  .endif
                          
       05:A056  8A                 txa
       05:A057  99 8A 29           sta    __arg-(1),Y
  143                             __ldwi  2
       05:A05A  A2 02              ldx    #low(2)
       05:A05C  A9 00              lda    #high(2)
  144  05:A05E  20 02 EF            call  _put_string.3
  145                     ;     put_hex(joy(0), 4, 9, 2);
  146                             __ldwi  0
       05:A061  A2 00              ldx    #low(0)
       05:A063  A9 00              lda    #high(0)
  147  05:A065  20 56 FA            call  _joy
  148                             __phw   4,4
                                   ; #1 (bytes :  9, cycles : 16)
                                   ; #2 (bytes : 16, cycles : 28)
                          
                0001              .if (2 = 2)
       05:A068  A8                 tay
       05:A069  A5 02              lda    <__arg_idx
                                   add    #4
                0000              .if (1 = 2)            ; register A (handle carry
                                  .else
       05:A06B  18                 clc
       05:A06C  69 04              adc    #4
                                  .endif
       05:A06E  85 02              sta    <__arg_idx
       05:A070  42                 say
                                  .else
                                  .endif
                          
       05:A071  99 87 29           sta    __arg-(4),Y
       05:A074  8A                 txa
       05:A075  99 88 29           sta    __arg-(4-1),Y
  149                             __ldwi  4
       05:A078  A2 04              ldx    #low(4)
       05:A07A  A9 00              lda    #high(4)
  150                             __phb   2
                                   ; #1 (bytes :  6, cycles : 11)
                                   ; #2 (bytes : 12, cycles : 21)
                          
                0000              .if (1 = 2)
                                  .else
       05:A07C  A4 02              ldy    <__arg_idx
                                  .endif
                          
       05:A07E  8A                 txa
       05:A07F  99 89 29           sta    __arg-(2),Y
  151                             __ldwi  9
       05:A082  A2 09              ldx    #low(9)
       05:A084  A9 00              lda    #high(9)
  152                             __phb   1
                                   ; #1 (bytes :  6, cycles : 11)
                                   ; #2 (bytes : 12, cycles : 21)
                          
                0000              .if (1 = 2)
                                  .else
       05:A086  A4 02              ldy    <__arg_idx
                                  .endif
                          
       05:A088  8A                 txa
       05:A089  99 8A 29           sta    __arg-(1),Y
  153                             __ldwi  2
       05:A08C  A2 02              ldx    #low(2)
       05:A08E  A9 00              lda    #high(2)
  154  05:A090  20 A0 EE            call  _put_hex.4
  155                     ;     put_string("joy 1:", 2, 3); 
  156                             __ldwi  LL0+7
       05:A093  A2 07              ldx    #low(LL0+7)
       05:A095  A9 40              lda    #high(LL0+7)
  157                             __phw   3,3
                                   ; #1 (bytes :  9, cycles : 16)
                                   ; #2 (bytes : 16, cycles : 28)
                          
                0001              .if (2 = 2)
       05:A097  A8                 tay
       05:A098  A5 02              lda    <__arg_idx
                                   add    #3
                0000              .if (1 = 2)            ; register A (handle carry
                                  .else
       05:A09A  18                 clc
       05:A09B  69 03              adc    #3
                                  .endif
       05:A09D  85 02              sta    <__arg_idx
       05:A09F  42                 say
                                  .else
                                  .endif
                          
       05:A0A0  99 88 29           sta    __arg-(3),Y
       05:A0A3  8A                 txa
       05:A0A4  99 89 29           sta    __arg-(3-1),Y
  158                             __ldwi  2
       05:A0A7  A2 02              ldx    #low(2)
       05:A0A9  A9 00              lda    #high(2)
  159                             __phb   1
                                   ; #1 (bytes :  6, cycles : 11)
                                   ; #2 (bytes : 12, cycles : 21)
                          
                0000              .if (1 = 2)
                                  .else
       05:A0AB  A4 02              ldy    <__arg_idx
                                  .endif
                          
       05:A0AD  8A                 txa
       05:A0AE  99 8A 29           sta    __arg-(1),Y
  160                             __ldwi  3
       05:A0B1  A2 03              ldx    #low(3)
       05:A0B3  A9 00              lda    #high(3)
  161  05:A0B5  20 02 EF            call  _put_string.3
  162                     ;     put_hex(joy(1), 4, 9, 3);
  163                             __ldwi  1
       05:A0B8  A2 01              ldx    #low(1)
       05:A0BA  A9 00              lda    #high(1)
  164  05:A0BC  20 56 FA            call  _joy
  165                             __phw   4,4
                                   ; #1 (bytes :  9, cycles : 16)
                                   ; #2 (bytes : 16, cycles : 28)
                          
                0001              .if (2 = 2)
       05:A0BF  A8                 tay
       05:A0C0  A5 02              lda    <__arg_idx
                                   add    #4
                0000              .if (1 = 2)            ; register A (handle carry
                                  .else
       05:A0C2  18                 clc
       05:A0C3  69 04              adc    #4
                                  .endif
       05:A0C5  85 02              sta    <__arg_idx
       05:A0C7  42                 say
                                  .else
                                  .endif
                          
       05:A0C8  99 87 29           sta    __arg-(4),Y
       05:A0CB  8A                 txa
       05:A0CC  99 88 29           sta    __arg-(4-1),Y
  166                             __ldwi  4
       05:A0CF  A2 04              ldx    #low(4)
       05:A0D1  A9 00              lda    #high(4)
  167                             __phb   2
                                   ; #1 (bytes :  6, cycles : 11)
                                   ; #2 (bytes : 12, cycles : 21)
                          
                0000              .if (1 = 2)
                                  .else
       05:A0D3  A4 02              ldy    <__arg_idx
                                  .endif
                          
       05:A0D5  8A                 txa
       05:A0D6  99 89 29           sta    __arg-(2),Y
  168                             __ldwi  9
       05:A0D9  A2 09              ldx    #low(9)
       05:A0DB  A9 00              lda    #high(9)
  169                             __phb   1
                                   ; #1 (bytes :  6, cycles : 11)
                                   ; #2 (bytes : 12, cycles : 21)
                          
                0000              .if (1 = 2)
                                  .else
       05:A0DD  A4 02              ldy    <__arg_idx
                                  .endif
                          
       05:A0DF  8A                 txa
       05:A0E0  99 8A 29           sta    __arg-(1),Y
  170                             __ldwi  3
       05:A0E3  A2 03              ldx    #low(3)
       05:A0E5  A9 00              lda    #high(3)
  171  05:A0E7  20 A0 EE            call  _put_hex.4
  172                     ;     put_string("joy 2:", 2, 4); 
  173                             __ldwi  LL0+14
       05:A0EA  A2 0E              ldx    #low(LL0+14)
       05:A0EC  A9 40              lda    #high(LL0+14)
  174                             __phw   3,3
                                   ; #1 (bytes :  9, cycles : 16)
                                   ; #2 (bytes : 16, cycles : 28)
                          
                0001              .if (2 = 2)
       05:A0EE  A8                 tay
       05:A0EF  A5 02              lda    <__arg_idx
                                   add    #3
                0000              .if (1 = 2)            ; register A (handle carry
                                  .else
       05:A0F1  18                 clc
       05:A0F2  69 03              adc    #3
                                  .endif
       05:A0F4  85 02              sta    <__arg_idx
       05:A0F6  42                 say
                                  .else
                                  .endif
                          
       05:A0F7  99 88 29           sta    __arg-(3),Y
       05:A0FA  8A                 txa
       05:A0FB  99 89 29           sta    __arg-(3-1),Y
  175                             __ldwi  2
       05:A0FE  A2 02              ldx    #low(2)
       05:A100  A9 00              lda    #high(2)
  176                             __phb   1
                                   ; #1 (bytes :  6, cycles : 11)
                                   ; #2 (bytes : 12, cycles : 21)
                          
                0000              .if (1 = 2)
                                  .else
       05:A102  A4 02              ldy    <__arg_idx
                                  .endif
                          
       05:A104  8A                 txa
       05:A105  99 8A 29           sta    __arg-(1),Y
  177                             __ldwi  4
       05:A108  A2 04              ldx    #low(4)
       05:A10A  A9 00              lda    #high(4)
  178  05:A10C  20 02 EF            call  _put_string.3
  179                     ;     put_hex(joy(2), 4, 9, 4);
  180                             __ldwi  2
       05:A10F  A2 02              ldx    #low(2)
       05:A111  A9 00              lda    #high(2)
  181  05:A113  20 56 FA            call  _joy
  182                             __phw   4,4
                                   ; #1 (bytes :  9, cycles : 16)
                                   ; #2 (bytes : 16, cycles : 28)
                          
                0001              .if (2 = 2)
       05:A116  A8                 tay
       05:A117  A5 02              lda    <__arg_idx
                                   add    #4
                0000              .if (1 = 2)            ; register A (handle carry
                                  .else
       05:A119  18                 clc
       05:A11A  69 04              adc    #4
                                  .endif
       05:A11C  85 02              sta    <__arg_idx
       05:A11E  42                 say
                                  .else
                                  .endif
                          
       05:A11F  99 87 29           sta    __arg-(4),Y
       05:A122  8A                 txa
       05:A123  99 88 29           sta    __arg-(4-1),Y
  183                             __ldwi  4
       05:A126  A2 04              ldx    #low(4)
       05:A128  A9 00              lda    #high(4)
  184                             __phb   2
                                   ; #1 (bytes :  6, cycles : 11)
                                   ; #2 (bytes : 12, cycles : 21)
                          
                0000              .if (1 = 2)
                                  .else
       05:A12A  A4 02              ldy    <__arg_idx
                                  .endif
                          
       05:A12C  8A                 txa
       05:A12D  99 89 29           sta    __arg-(2),Y
  185                             __ldwi  9
       05:A130  A2 09              ldx    #low(9)
       05:A132  A9 00              lda    #high(9)
  186                             __phb   1
                                   ; #1 (bytes :  6, cycles : 11)
                                   ; #2 (bytes : 12, cycles : 21)
                          
                0000              .if (1 = 2)
                                  .else
       05:A134  A4 02              ldy    <__arg_idx
                                  .endif
                          
       05:A136  8A                 txa
       05:A137  99 8A 29           sta    __arg-(1),Y
  187                             __ldwi  4
       05:A13A  A2 04              ldx    #low(4)
       05:A13C  A9 00              lda    #high(4)
  188  05:A13E  20 A0 EE            call  _put_hex.4
  189                     ;     put_string("joy 3:", 2, 5); 
  190                             __ldwi  LL0+21
       05:A141  A2 15              ldx    #low(LL0+21)
       05:A143  A9 40              lda    #high(LL0+21)
  191                             __phw   3,3
                                   ; #1 (bytes :  9, cycles : 16)
                                   ; #2 (bytes : 16, cycles : 28)
                          
                0001              .if (2 = 2)
       05:A145  A8                 tay
       05:A146  A5 02              lda    <__arg_idx
                                   add    #3
                0000              .if (1 = 2)            ; register A (handle carry
                                  .else
       05:A148  18                 clc
       05:A149  69 03              adc    #3
                                  .endif
       05:A14B  85 02              sta    <__arg_idx
       05:A14D  42                 say
                                  .else
                                  .endif
                          
       05:A14E  99 88 29           sta    __arg-(3),Y
       05:A151  8A                 txa
       05:A152  99 89 29           sta    __arg-(3-1),Y
  192                             __ldwi  2
       05:A155  A2 02              ldx    #low(2)
       05:A157  A9 00              lda    #high(2)
  193                             __phb   1
                                   ; #1 (bytes :  6, cycles : 11)
                                   ; #2 (bytes : 12, cycles : 21)
                          
                0000              .if (1 = 2)
                                  .else
       05:A159  A4 02              ldy    <__arg_idx
                                  .endif
                          
       05:A15B  8A                 txa
       05:A15C  99 8A 29           sta    __arg-(1),Y
  194                             __ldwi  5
       05:A15F  A2 05              ldx    #low(5)
       05:A161  A9 00              lda    #high(5)
  195  05:A163  20 02 EF            call  _put_string.3
  196                     ;     put_hex(joy(3), 4, 9, 5);
  197                             __ldwi  3
       05:A166  A2 03              ldx    #low(3)
       05:A168  A9 00              lda    #high(3)
  198  05:A16A  20 56 FA            call  _joy
  199                             __phw   4,4
                                   ; #1 (bytes :  9, cycles : 16)
                                   ; #2 (bytes : 16, cycles : 28)
                          
                0001              .if (2 = 2)
       05:A16D  A8                 tay
       05:A16E  A5 02              lda    <__arg_idx
                                   add    #4
                0000              .if (1 = 2)            ; register A (handle carry
                                  .else
       05:A170  18                 clc
       05:A171  69 04              adc    #4
                                  .endif
       05:A173  85 02              sta    <__arg_idx
       05:A175  42                 say
                                  .else
                                  .endif
                          
       05:A176  99 87 29           sta    __arg-(4),Y
       05:A179  8A                 txa
       05:A17A  99 88 29           sta    __arg-(4-1),Y
  200                             __ldwi  4
       05:A17D  A2 04              ldx    #low(4)
       05:A17F  A9 00              lda    #high(4)
  201                             __phb   2
                                   ; #1 (bytes :  6, cycles : 11)
                                   ; #2 (bytes : 12, cycles : 21)
                          
                0000              .if (1 = 2)
                                  .else
       05:A181  A4 02              ldy    <__arg_idx
                                  .endif
                          
       05:A183  8A                 txa
       05:A184  99 89 29           sta    __arg-(2),Y
  202                             __ldwi  9
       05:A187  A2 09              ldx    #low(9)
       05:A189  A9 00              lda    #high(9)
  203                             __phb   1
                                   ; #1 (bytes :  6, cycles : 11)
                                   ; #2 (bytes : 12, cycles : 21)
                          
                0000              .if (1 = 2)
                                  .else
       05:A18B  A4 02              ldy    <__arg_idx
                                  .endif
                          
       05:A18D  8A                 txa
       05:A18E  99 8A 29           sta    __arg-(1),Y
  204                             __ldwi  5
       05:A191  A2 05              ldx    #low(5)
       05:A193  A9 00              lda    #high(5)
  205  05:A195  20 A0 EE            call  _put_hex.4
  206                     ;     put_string("joy 4:", 2, 6); 
  207                             __ldwi  LL0+28
       05:A198  A2 1C              ldx    #low(LL0+28)
       05:A19A  A9 40              lda    #high(LL0+28)
  208                             __phw   3,3
                                   ; #1 (bytes :  9, cycles : 16)
                                   ; #2 (bytes : 16, cycles : 28)
                          
                0001              .if (2 = 2)
       05:A19C  A8                 tay
       05:A19D  A5 02              lda    <__arg_idx
                                   add    #3
                0000              .if (1 = 2)            ; register A (handle carry
                                  .else
       05:A19F  18                 clc
       05:A1A0  69 03              adc    #3
                                  .endif
       05:A1A2  85 02              sta    <__arg_idx
       05:A1A4  42                 say
                                  .else
                                  .endif
                          
       05:A1A5  99 88 29           sta    __arg-(3),Y
       05:A1A8  8A                 txa
       05:A1A9  99 89 29           sta    __arg-(3-1),Y
  209                             __ldwi  2
       05:A1AC  A2 02              ldx    #low(2)
       05:A1AE  A9 00              lda    #high(2)
  210                             __phb   1
                                   ; #1 (bytes :  6, cycles : 11)
                                   ; #2 (bytes : 12, cycles : 21)
                          
                0000              .if (1 = 2)
                                  .else
       05:A1B0  A4 02              ldy    <__arg_idx
                                  .endif
                          
       05:A1B2  8A                 txa
       05:A1B3  99 8A 29           sta    __arg-(1),Y
  211                             __ldwi  6
       05:A1B6  A2 06              ldx    #low(6)
       05:A1B8  A9 00              lda    #high(6)
  212  05:A1BA  20 02 EF            call  _put_string.3
  213                     ;     put_hex(joy(4), 4, 9, 6);
  214                             __ldwi  4
       05:A1BD  A2 04              ldx    #low(4)
       05:A1BF  A9 00              lda    #high(4)
  215  05:A1C1  20 56 FA            call  _joy
  216                             __phw   4,4
                                   ; #1 (bytes :  9, cycles : 16)
                                   ; #2 (bytes : 16, cycles : 28)
                          
                0001              .if (2 = 2)
       05:A1C4  A8                 tay
       05:A1C5  A5 02              lda    <__arg_idx
                                   add    #4
                0000              .if (1 = 2)            ; register A (handle carry
                                  .else
       05:A1C7  18                 clc
       05:A1C8  69 04              adc    #4
                                  .endif
       05:A1CA  85 02              sta    <__arg_idx
       05:A1CC  42                 say
                                  .else
                                  .endif
                          
       05:A1CD  99 87 29           sta    __arg-(4),Y
       05:A1D0  8A                 txa
       05:A1D1  99 88 29           sta    __arg-(4-1),Y
  217                             __ldwi  4
       05:A1D4  A2 04              ldx    #low(4)
       05:A1D6  A9 00              lda    #high(4)
  218                             __phb   2
                                   ; #1 (bytes :  6, cycles : 11)
                                   ; #2 (bytes : 12, cycles : 21)
                          
                0000              .if (1 = 2)
                                  .else
       05:A1D8  A4 02              ldy    <__arg_idx
                                  .endif
                          
       05:A1DA  8A                 txa
       05:A1DB  99 89 29           sta    __arg-(2),Y
  219                             __ldwi  9
       05:A1DE  A2 09              ldx    #low(9)
       05:A1E0  A9 00              lda    #high(9)
  220                             __phb   1
                                   ; #1 (bytes :  6, cycles : 11)
                                   ; #2 (bytes : 12, cycles : 21)
                          
                0000              .if (1 = 2)
                                  .else
       05:A1E2  A4 02              ldy    <__arg_idx
                                  .endif
                          
       05:A1E4  8A                 txa
       05:A1E5  99 8A 29           sta    __arg-(1),Y
  221                             __ldwi  6
       05:A1E8  A2 06              ldx    #low(6)
       05:A1EA  A9 00              lda    #high(6)
  222  05:A1EC  20 A0 EE            call  _put_hex.4
  223                     ;     put_string("mouse:", 2, 8); 
  224                             __ldwi  LL0+35
       05:A1EF  A2 23              ldx    #low(LL0+35)
       05:A1F1  A9 40              lda    #high(LL0+35)
  225                             __phw   3,3
                                   ; #1 (bytes :  9, cycles : 16)
                                   ; #2 (bytes : 16, cycles : 28)
                          
                0001              .if (2 = 2)
       05:A1F3  A8                 tay
       05:A1F4  A5 02              lda    <__arg_idx
                                   add    #3
                0000              .if (1 = 2)            ; register A (handle carry
                                  .else
       05:A1F6  18                 clc
       05:A1F7  69 03              adc    #3
                                  .endif
       05:A1F9  85 02              sta    <__arg_idx
       05:A1FB  42                 say
                                  .else
                                  .endif
                          
       05:A1FC  99 88 29           sta    __arg-(3),Y
       05:A1FF  8A                 txa
       05:A200  99 89 29           sta    __arg-(3-1),Y
  226                             __ldwi  2
       05:A203  A2 02              ldx    #low(2)
       05:A205  A9 00              lda    #high(2)
  227                             __phb   1
                                   ; #1 (bytes :  6, cycles : 11)
                                   ; #2 (bytes : 12, cycles : 21)
                          
                0000              .if (1 = 2)
                                  .else
       05:A207  A4 02              ldy    <__arg_idx
                                  .endif
                          
       05:A209  8A                 txa
       05:A20A  99 8A 29           sta    __arg-(1),Y
  228                             __ldwi  8
       05:A20D  A2 08              ldx    #low(8)
       05:A20F  A9 00              lda    #high(8)
  229  05:A211  20 02 EF            call  _put_string.3
  230                     ;     put_hex(mouse_exists(), 2, 9, 8);
  231  05:A214  20 76 FA            call  _mouse_exists
  232                             __phw   4,4
                                   ; #1 (bytes :  9, cycles : 16)
                                   ; #2 (bytes : 16, cycles : 28)
                          
                0001              .if (2 = 2)
       05:A217  A8                 tay
       05:A218  A5 02              lda    <__arg_idx
                                   add    #4
                0000              .if (1 = 2)            ; register A (handle carry
                                  .else
       05:A21A  18                 clc
       05:A21B  69 04              adc    #4
                                  .endif
       05:A21D  85 02              sta    <__arg_idx
       05:A21F  42                 say
                                  .else
                                  .endif
                          
       05:A220  99 87 29           sta    __arg-(4),Y
       05:A223  8A                 txa
       05:A224  99 88 29           sta    __arg-(4-1),Y
  233                             __ldwi  2
       05:A227  A2 02              ldx    #low(2)
       05:A229  A9 00              lda    #high(2)
  234                             __phb   2
                                   ; #1 (bytes :  6, cycles : 11)
                                   ; #2 (bytes : 12, cycles : 21)
                          
                0000              .if (1 = 2)
                                  .else
       05:A22B  A4 02              ldy    <__arg_idx
                                  .endif
                          
       05:A22D  8A                 txa
       05:A22E  99 89 29           sta    __arg-(2),Y
  235                             __ldwi  9
       05:A231  A2 09              ldx    #low(9)
       05:A233  A9 00              lda    #high(9)
  236                             __phb   1
                                   ; #1 (bytes :  6, cycles : 11)
                                   ; #2 (bytes : 12, cycles : 21)
                          
                0000              .if (1 = 2)
                                  .else
       05:A235  A4 02              ldy    <__arg_idx
                                  .endif
                          
       05:A237  8A                 txa
       05:A238  99 8A 29           sta    __arg-(1),Y
  237                             __ldwi  8
       05:A23B  A2 08              ldx    #low(8)
       05:A23D  A9 00              lda    #high(8)
  238  05:A23F  20 A0 EE            call  _put_hex.4
  239                     ;     put_string("x:", 6, 9); 
  240                             __ldwi  LL0+42
       05:A242  A2 2A              ldx    #low(LL0+42)
       05:A244  A9 40              lda    #high(LL0+42)
  241                             __phw   3,3
                                   ; #1 (bytes :  9, cycles : 16)
                                   ; #2 (bytes : 16, cycles : 28)
                          
                0001              .if (2 = 2)
       05:A246  A8                 tay
       05:A247  A5 02              lda    <__arg_idx
                                   add    #3
                0000              .if (1 = 2)            ; register A (handle carry
                                  .else
       05:A249  18                 clc
       05:A24A  69 03              adc    #3
                                  .endif
       05:A24C  85 02              sta    <__arg_idx
       05:A24E  42                 say
                                  .else
                                  .endif
                          
       05:A24F  99 88 29           sta    __arg-(3),Y
       05:A252  8A                 txa
       05:A253  99 89 29           sta    __arg-(3-1),Y
  242                             __ldwi  6
       05:A256  A2 06              ldx    #low(6)
       05:A258  A9 00              lda    #high(6)
  243                             __phb   1
                                   ; #1 (bytes :  6, cycles : 11)
                                   ; #2 (bytes : 12, cycles : 21)
                          
                0000              .if (1 = 2)
                                  .else
       05:A25A  A4 02              ldy    <__arg_idx
                                  .endif
                          
       05:A25C  8A                 txa
       05:A25D  99 8A 29           sta    __arg-(1),Y
  244                             __ldwi  9
       05:A260  A2 09              ldx    #low(9)
       05:A262  A9 00              lda    #high(9)
  245  05:A264  20 02 EF            call  _put_string.3
  246                     ;     put_hex(mouse_x(), 2, 9, 9);
  247  05:A267  20 87 FA            call  _mouse_x
  248                             __phw   4,4
                                   ; #1 (bytes :  9, cycles : 16)
                                   ; #2 (bytes : 16, cycles : 28)
                          
                0001              .if (2 = 2)
       05:A26A  A8                 tay
       05:A26B  A5 02              lda    <__arg_idx
                                   add    #4
                0000              .if (1 = 2)            ; register A (handle carry
                                  .else
       05:A26D  18                 clc
       05:A26E  69 04              adc    #4
                                  .endif
       05:A270  85 02              sta    <__arg_idx
       05:A272  42                 say
                                  .else
                                  .endif
                          
       05:A273  99 87 29           sta    __arg-(4),Y
       05:A276  8A                 txa
       05:A277  99 88 29           sta    __arg-(4-1),Y
  249                             __ldwi  2
       05:A27A  A2 02              ldx    #low(2)
       05:A27C  A9 00              lda    #high(2)
  250                             __phb   2
                                   ; #1 (bytes :  6, cycles : 11)
                                   ; #2 (bytes : 12, cycles : 21)
                          
                0000              .if (1 = 2)
                                  .else
       05:A27E  A4 02              ldy    <__arg_idx
                                  .endif
                          
       05:A280  8A                 txa
       05:A281  99 89 29           sta    __arg-(2),Y
  251                             __ldwi  9
       05:A284  A2 09              ldx    #low(9)
       05:A286  A9 00              lda    #high(9)
  252                             __phb   1
                                   ; #1 (bytes :  6, cycles : 11)
                                   ; #2 (bytes : 12, cycles : 21)
                          
                0000              .if (1 = 2)
                                  .else
       05:A288  A4 02              ldy    <__arg_idx
                                  .endif
                          
       05:A28A  8A                 txa
       05:A28B  99 8A 29           sta    __arg-(1),Y
  253                             __ldwi  9
       05:A28E  A2 09              ldx    #low(9)
       05:A290  A9 00              lda    #high(9)
  254  05:A292  20 A0 EE            call  _put_hex.4
  255                     ;     put_string("y:", 6, 10); 
  256                             __ldwi  LL0+45
       05:A295  A2 2D              ldx    #low(LL0+45)
       05:A297  A9 40              lda    #high(LL0+45)
  257                             __phw   3,3
                                   ; #1 (bytes :  9, cycles : 16)
                                   ; #2 (bytes : 16, cycles : 28)
                          
                0001              .if (2 = 2)
       05:A299  A8                 tay
       05:A29A  A5 02              lda    <__arg_idx
                                   add    #3
                0000              .if (1 = 2)            ; register A (handle carry
                                  .else
       05:A29C  18                 clc
       05:A29D  69 03              adc    #3
                                  .endif
       05:A29F  85 02              sta    <__arg_idx
       05:A2A1  42                 say
                                  .else
                                  .endif
                          
       05:A2A2  99 88 29           sta    __arg-(3),Y
       05:A2A5  8A                 txa
       05:A2A6  99 89 29           sta    __arg-(3-1),Y
  258                             __ldwi  6
       05:A2A9  A2 06              ldx    #low(6)
       05:A2AB  A9 00              lda    #high(6)
  259                             __phb   1
                                   ; #1 (bytes :  6, cycles : 11)
                                   ; #2 (bytes : 12, cycles : 21)
                          
                0000              .if (1 = 2)
                                  .else
       05:A2AD  A4 02              ldy    <__arg_idx
                                  .endif
                          
       05:A2AF  8A                 txa
       05:A2B0  99 8A 29           sta    __arg-(1),Y
  260                             __ldwi  10
       05:A2B3  A2 0A              ldx    #low(10)
       05:A2B5  A9 00              lda    #high(10)
  261  05:A2B7  20 02 EF            call  _put_string.3
  262                     ;     put_hex(mouse_y(), 2, 9, 10);
  263  05:A2BA  20 8F FA            call  _mouse_y
  264                             __phw   4,4
                                   ; #1 (bytes :  9, cycles : 16)
                                   ; #2 (bytes : 16, cycles : 28)
                          
                0001              .if (2 = 2)
       05:A2BD  A8                 tay
       05:A2BE  A5 02              lda    <__arg_idx
                                   add    #4
                0000              .if (1 = 2)            ; register A (handle carry
                                  .else
       05:A2C0  18                 clc
       05:A2C1  69 04              adc    #4
                                  .endif
       05:A2C3  85 02              sta    <__arg_idx
       05:A2C5  42                 say
                                  .else
                                  .endif
                          
       05:A2C6  99 87 29           sta    __arg-(4),Y
       05:A2C9  8A                 txa
       05:A2CA  99 88 29           sta    __arg-(4-1),Y
  265                             __ldwi  2
       05:A2CD  A2 02              ldx    #low(2)
       05:A2CF  A9 00              lda    #high(2)
  266                             __phb   2
                                   ; #1 (bytes :  6, cycles : 11)
                                   ; #2 (bytes : 12, cycles : 21)
                          
                0000              .if (1 = 2)
                                  .else
       05:A2D1  A4 02              ldy    <__arg_idx
                                  .endif
                          
       05:A2D3  8A                 txa
       05:A2D4  99 89 29           sta    __arg-(2),Y
  267                             __ldwi  9
       05:A2D7  A2 09              ldx    #low(9)
       05:A2D9  A9 00              lda    #high(9)
  268                             __phb   1
                                   ; #1 (bytes :  6, cycles : 11)
                                   ; #2 (bytes : 12, cycles : 21)
                          
                0000              .if (1 = 2)
                                  .else
       05:A2DB  A4 02              ldy    <__arg_idx
                                  .endif
                          
       05:A2DD  8A                 txa
       05:A2DE  99 8A 29           sta    __arg-(1),Y
  269                             __ldwi  10
       05:A2E1  A2 0A              ldx    #low(10)
       05:A2E3  A9 00              lda    #high(10)
  270  05:A2E5  20 A0 EE            call  _put_hex.4
  271                     ;     abs_x -= mouse_x();
  272                             __ldw   LL2
                0000              .if (1 = 2)
                                  .else
       05:A2E8  AE 87 29           ldx    LL2
       05:A2EB  AD 88 29           lda    LL2+1
                                  .endif
  273                             __pushw
                                 __submi  2,__stack
       05:A2EE  48                 pha
       05:A2EF  38                 sec
       05:A2F0  A5 00              lda    <__stack
       05:A2F2  E9 02              sbc    #low(2)
       05:A2F4  85 00              sta    <__stack
       05:A2F6  A5 01              lda    <__stack+1
       05:A2F8  E9 00              sbc    #high(2)
       05:A2FA  85 01              sta    <__stack+1
       05:A2FC  68                 pla
       05:A2FD  22                 sax
       05:A2FE  92 00              sta    [__stack]
       05:A300  22                 sax
       05:A301  A0 01              ldy    #1
       05:A303  91 00              sta    [__stack],Y
  274  05:A305  20 87 FA            call  _mouse_x
  275                             __subws
       05:A308  86 03             stx     <__temp
       05:A30A  85 04             sta     <__temp+1
       05:A30C  38                sec
       05:A30D  B2 00             lda     [__stack]
       05:A30F  E5 03             sbc     <__temp
       05:A311  AA                tax
       05:A312  A0 01             ldy     #1
       05:A314  B1 00             lda     [__stack],Y
       05:A316  E5 04             sbc     <__temp+1
                                  __addmi 2, __stack
       05:A318  48                 pha
       05:A319  18                 clc
       05:A31A  A5 00              lda    <__stack
       05:A31C  69 02              adc    #low(2)
       05:A31E  85 00              sta    <__stack
       05:A320  A5 01              lda    <__stack+1
       05:A322  69 00              adc    #high(2)
       05:A324  85 01              sta    <__stack+1
       05:A326  68                 pla
  276                             __stw   LL2
       05:A327  8E 87 29           stx    LL2
       05:A32A  8D 88 29           sta    LL2+1
  277                     ;     abs_y -= mouse_y();
  278                             __ldw   LL3
                0000              .if (1 = 2)
                                  .else
       05:A32D  AE 89 29           ldx    LL3
       05:A330  AD 8A 29           lda    LL3+1
                                  .endif
  279                             __pushw
                                 __submi  2,__stack
       05:A333  48                 pha
       05:A334  38                 sec
       05:A335  A5 00              lda    <__stack
       05:A337  E9 02              sbc    #low(2)
       05:A339  85 00              sta    <__stack
       05:A33B  A5 01              lda    <__stack+1
       05:A33D  E9 00              sbc    #high(2)
       05:A33F  85 01              sta    <__stack+1
       05:A341  68                 pla
       05:A342  22                 sax
       05:A343  92 00              sta    [__stack]
       05:A345  22                 sax
       05:A346  A0 01              ldy    #1
       05:A348  91 00              sta    [__stack],Y
  280  05:A34A  20 8F FA            call  _mouse_y
  281                             __subws
       05:A34D  86 03             stx     <__temp
       05:A34F  85 04             sta     <__temp+1
       05:A351  38                sec
       05:A352  B2 00             lda     [__stack]
       05:A354  E5 03             sbc     <__temp
       05:A356  AA                tax
       05:A357  A0 01             ldy     #1
       05:A359  B1 00             lda     [__stack],Y
       05:A35B  E5 04             sbc     <__temp+1
                                  __addmi 2, __stack
       05:A35D  48                 pha
       05:A35E  18                 clc
       05:A35F  A5 00              lda    <__stack
       05:A361  69 02              adc    #low(2)
       05:A363  85 00              sta    <__stack
       05:A365  A5 01              lda    <__stack+1
       05:A367  69 00              adc    #high(2)
       05:A369  85 01              sta    <__stack+1
       05:A36B  68                 pla
  282                             __stw   LL3
       05:A36C  8E 89 29           stx    LL3
       05:A36F  8D 8A 29           sta    LL3+1
  283                     ;     put_string("abs x:", 2, 12); 
  284                             __ldwi  LL0+48
       05:A372  A2 30              ldx    #low(LL0+48)
       05:A374  A9 40              lda    #high(LL0+48)
  285                             __phw   3,3
                                   ; #1 (bytes :  9, cycles : 16)
                                   ; #2 (bytes : 16, cycles : 28)
                          
                0001              .if (2 = 2)
       05:A376  A8                 tay
       05:A377  A5 02              lda    <__arg_idx
                                   add    #3
                0000              .if (1 = 2)            ; register A (handle carry
                                  .else
       05:A379  18                 clc
       05:A37A  69 03              adc    #3
                                  .endif
       05:A37C  85 02              sta    <__arg_idx
       05:A37E  42                 say
                                  .else
                                  .endif
                          
       05:A37F  99 88 29           sta    __arg-(3),Y
       05:A382  8A                 txa
       05:A383  99 89 29           sta    __arg-(3-1),Y
  286                             __ldwi  2
       05:A386  A2 02              ldx    #low(2)
       05:A388  A9 00              lda    #high(2)
  287                             __phb   1
                                   ; #1 (bytes :  6, cycles : 11)
                                   ; #2 (bytes : 12, cycles : 21)
                          
                0000              .if (1 = 2)
                                  .else
       05:A38A  A4 02              ldy    <__arg_idx
                                  .endif
                          
       05:A38C  8A                 txa
       05:A38D  99 8A 29           sta    __arg-(1),Y
  288                             __ldwi  12
       05:A390  A2 0C              ldx    #low(12)
       05:A392  A9 00              lda    #high(12)
  289  05:A394  20 02 EF            call  _put_string.3
  290                     ;     put_hex(abs_x, 4, 9, 12);
  291                             __ldw   LL2
                0000              .if (1 = 2)
                                  .else
       05:A397  AE 87 29           ldx    LL2
       05:A39A  AD 88 29           lda    LL2+1
                                  .endif
  292                             __phw   4,4
                                   ; #1 (bytes :  9, cycles : 16)
                                   ; #2 (bytes : 16, cycles : 28)
                          
                0001              .if (2 = 2)
       05:A39D  A8                 tay
       05:A39E  A5 02              lda    <__arg_idx
                                   add    #4
                0000              .if (1 = 2)            ; register A (handle carry
                                  .else
       05:A3A0  18                 clc
       05:A3A1  69 04              adc    #4
                                  .endif
       05:A3A3  85 02              sta    <__arg_idx
       05:A3A5  42                 say
                                  .else
                                  .endif
                          
       05:A3A6  99 87 29           sta    __arg-(4),Y
       05:A3A9  8A                 txa
       05:A3AA  99 88 29           sta    __arg-(4-1),Y
  293                             __ldwi  4
       05:A3AD  A2 04              ldx    #low(4)
       05:A3AF  A9 00              lda    #high(4)
  294                             __phb   2
                                   ; #1 (bytes :  6, cycles : 11)
                                   ; #2 (bytes : 12, cycles : 21)
                          
                0000              .if (1 = 2)
                                  .else
       05:A3B1  A4 02              ldy    <__arg_idx
                                  .endif
                          
       05:A3B3  8A                 txa
       05:A3B4  99 89 29           sta    __arg-(2),Y
  295                             __ldwi  9
       05:A3B7  A2 09              ldx    #low(9)
       05:A3B9  A9 00              lda    #high(9)
  296                             __phb   1
                                   ; #1 (bytes :  6, cycles : 11)
                                   ; #2 (bytes : 12, cycles : 21)
                          
                0000              .if (1 = 2)
                                  .else
       05:A3BB  A4 02              ldy    <__arg_idx
                                  .endif
                          
       05:A3BD  8A                 txa
       05:A3BE  99 8A 29           sta    __arg-(1),Y
  297                             __ldwi  12
       05:A3C1  A2 0C              ldx    #low(12)
       05:A3C3  A9 00              lda    #high(12)
  298  05:A3C5  20 A0 EE            call  _put_hex.4
  299                     ;     put_string("abs y:", 2, 13); 
  300                             __ldwi  LL0+55
       05:A3C8  A2 37              ldx    #low(LL0+55)
       05:A3CA  A9 40              lda    #high(LL0+55)
  301                             __phw   3,3
                                   ; #1 (bytes :  9, cycles : 16)
                                   ; #2 (bytes : 16, cycles : 28)
                          
                0001              .if (2 = 2)
       05:A3CC  A8                 tay
       05:A3CD  A5 02              lda    <__arg_idx
                                   add    #3
                0000              .if (1 = 2)            ; register A (handle carry
                                  .else
       05:A3CF  18                 clc
       05:A3D0  69 03              adc    #3
                                  .endif
       05:A3D2  85 02              sta    <__arg_idx
       05:A3D4  42                 say
                                  .else
                                  .endif
                          
       05:A3D5  99 88 29           sta    __arg-(3),Y
       05:A3D8  8A                 txa
       05:A3D9  99 89 29           sta    __arg-(3-1),Y
  302                             __ldwi  2
       05:A3DC  A2 02              ldx    #low(2)
       05:A3DE  A9 00              lda    #high(2)
  303                             __phb   1
                                   ; #1 (bytes :  6, cycles : 11)
                                   ; #2 (bytes : 12, cycles : 21)
                          
                0000              .if (1 = 2)
                                  .else
       05:A3E0  A4 02              ldy    <__arg_idx
                                  .endif
                          
       05:A3E2  8A                 txa
       05:A3E3  99 8A 29           sta    __arg-(1),Y
  304                             __ldwi  13
       05:A3E6  A2 0D              ldx    #low(13)
       05:A3E8  A9 00              lda    #high(13)
  305  05:A3EA  20 02 EF            call  _put_string.3
  306                     ;     put_hex(abs_y, 4, 9, 13);
  307                             __ldw   LL3
                0000              .if (1 = 2)
                                  .else
       05:A3ED  AE 89 29           ldx    LL3
       05:A3F0  AD 8A 29           lda    LL3+1
                                  .endif
  308                             __phw   4,4
                                   ; #1 (bytes :  9, cycles : 16)
                                   ; #2 (bytes : 16, cycles : 28)
                          
                0001              .if (2 = 2)
       05:A3F3  A8                 tay
       05:A3F4  A5 02              lda    <__arg_idx
                                   add    #4
                0000              .if (1 = 2)            ; register A (handle carry
                                  .else
       05:A3F6  18                 clc
       05:A3F7  69 04              adc    #4
                                  .endif
       05:A3F9  85 02              sta    <__arg_idx
       05:A3FB  42                 say
                                  .else
                                  .endif
                          
       05:A3FC  99 87 29           sta    __arg-(4),Y
       05:A3FF  8A                 txa
       05:A400  99 88 29           sta    __arg-(4-1),Y
  309                             __ldwi  4
       05:A403  A2 04              ldx    #low(4)
       05:A405  A9 00              lda    #high(4)
  310                             __phb   2
                                   ; #1 (bytes :  6, cycles : 11)
                                   ; #2 (bytes : 12, cycles : 21)
                          
                0000              .if (1 = 2)
                                  .else
       05:A407  A4 02              ldy    <__arg_idx
                                  .endif
                          
       05:A409  8A                 txa
       05:A40A  99 89 29           sta    __arg-(2),Y
  311                             __ldwi  9
       05:A40D  A2 09              ldx    #low(9)
       05:A40F  A9 00              lda    #high(9)
  312                             __phb   1
                                   ; #1 (bytes :  6, cycles : 11)
                                   ; #2 (bytes : 12, cycles : 21)
                          
                0000              .if (1 = 2)
                                  .else
       05:A411  A4 02              ldy    <__arg_idx
                                  .endif
                          
       05:A413  8A                 txa
       05:A414  99 8A 29           sta    __arg-(1),Y
  313                             __ldwi  13
       05:A417  A2 0D              ldx    #low(13)
       05:A419  A9 00              lda    #high(13)
  314  05:A41B  20 A0 EE            call  _put_hex.4
  315                     ;     if (joytrg(0) & JOY_A) {
  316                             __ldwi  0
       05:A41E  A2 00              ldx    #low(0)
       05:A420  A9 00              lda    #high(0)
  317  05:A422  20 5E FA            call  _joytrg
  318                             __andwi 1
       05:A425  22                 sax
       05:A426  29 01              and    #low(1)
       05:A428  22                 sax
       05:A429  29 00              and    #high(1)
  319                             __tstw
                                   ; pha
       05:A42B  86 03              stx    <__temp
       05:A42D  05 03              ora    <__temp
                                   ; pla
  320                             __lbeq  LL8
       05:A42F  D0 03              bne    .x00881
       05:A431  4C 49 A4           jmp    LL8
       05:A434            .x00881
  321                     ;        if (mouse_exists()) {
  322  05:A434  20 76 FA            call  _mouse_exists
  323                             __tstw
                                   ; pha
       05:A437  86 03              stx    <__temp
       05:A439  05 03              ora    <__temp
                                   ; pla
  324                             __lbeq  LL9
       05:A43B  D0 03              bne    .x00883
       05:A43D  4C 46 A4           jmp    LL9
       05:A440            .x00883
  325                     ;           mouse_disable();
  326  05:A440  20 7B FA            call  _mouse_disable
  327                     ;       }
  328                     ;       else {
  329                             __lbra  LL10
       05:A443  4C 49 A4           jmp    LL10
  330  05:A446            LL9:
  331                     
  332                     ;           mouse_enable();
  333  05:A446  20 81 FA            call  _mouse_enable
  334                     ;       }
  335  05:A449            LL10:
  336                     
  337                     ;     }
  338                     ;     vsync(0);
  339  05:A449            LL8:
  340                     
  341                             __ldwi  0
       05:A449  A2 00              ldx    #low(0)
       05:A44B  A9 00              lda    #high(0)
  342  05:A44D  A0 01               ldy   #1
  343  05:A44F  20 44 EF            call  _vsync
  344                     ;   }
  345                             __lbra  LL6
       05:A452  4C 3C A0           jmp    LL6
  346  05:A455            LL7:
  347                     
  348                     ;   return;
  349                             __lbra  LL1
       05:A455  4C 58 A4           jmp    LL1
  350                     ;}
  351  05:A458            LL1:
  352                     
  353  05:A458  60                  rts
  354                             .endp
  355                     
  356           60C8              .data
  357           0003              .bank CONST_BANK
  358           4000              .org $4000
  359  03:4000            LL0:
  360  03:4000  6A 6F 79          .db     106,111,121,32,48,58,0,106
       03:4003  20 30 3A  
       03:4006  00 6A     
  361  03:4008  6F 79 20          .db     111,121,32,49,58,0,106,111
       03:400B  31 3A 00  
       03:400E  6A 6F     
  362  03:4010  79 20 32          .db     121,32,50,58,0,106,111,121
       03:4013  3A 00 6A  
       03:4016  6F 79     
  363  03:4018  20 33 3A          .db     32,51,58,0,106,111,121,32
       03:401B  00 6A 6F  
       03:401E  79 20     
  364  03:4020  34 3A 00          .db     52,58,0,109,111,117,115,101
       03:4023  6D 6F 75  
       03:4026  73 65     
  365  03:4028  3A 00 78          .db     58,0,120,58,0,121,58,0
       03:402B  3A 00 79  
       03:402E  3A 00     
  366  03:4030  61 62 73          .db     97,98,115,32,120,58,0,97
       03:4033  20 78 3A  
       03:4036  00 61     
  367  03:4038  62 73 20          .db     98,115,32,121,58,0
       03:403B  79 3A 00  
  368                     
  369           298B              .bss
  370  --:298B            __arg:
  371                     
  372                     ;0 error(s) in compilation
  373                     ;       literal pool:62
  374                     ;       constant pool:0
  375                     ;       global pool:544
  376                     ;       Macro pool:1065
